ARM GAS  C:\Users\ADMINI~1\AppData\Local\Temp\ccQGYun9.s 			page 1


   1              		.cpu cortex-m7
   2              		.arch armv7e-m
   3              		.fpu fpv5-d16
   4              		.eabi_attribute 28, 1
   5              		.eabi_attribute 20, 1
   6              		.eabi_attribute 21, 1
   7              		.eabi_attribute 23, 3
   8              		.eabi_attribute 24, 1
   9              		.eabi_attribute 25, 1
  10              		.eabi_attribute 26, 1
  11              		.eabi_attribute 30, 1
  12              		.eabi_attribute 34, 1
  13              		.eabi_attribute 18, 4
  14              		.file	"bsp_dwt.c"
  15              		.text
  16              	.Ltext0:
  17              		.cfi_sections	.debug_frame
  18              		.file 1 "bsp/dwt/bsp_dwt.c"
  19              		.section	.text.DWT_CNT_Update,"ax",%progbits
  20              		.align	1
  21              		.syntax unified
  22              		.thumb
  23              		.thumb_func
  25              	DWT_CNT_Update:
  26              	.LFB357:
   1:bsp/dwt/bsp_dwt.c **** /**
   2:bsp/dwt/bsp_dwt.c ****  ******************************************************************************
   3:bsp/dwt/bsp_dwt.c ****  * @file	bsp_dwt.c
   4:bsp/dwt/bsp_dwt.c ****  * @author  Wang Hongxi
   5:bsp/dwt/bsp_dwt.c ****  * @author modified by Neo with annotation
   6:bsp/dwt/bsp_dwt.c ****  * @version V1.1.0
   7:bsp/dwt/bsp_dwt.c ****  * @date    2022/3/8
   8:bsp/dwt/bsp_dwt.c ****  * @brief
   9:bsp/dwt/bsp_dwt.c ****  */
  10:bsp/dwt/bsp_dwt.c **** 
  11:bsp/dwt/bsp_dwt.c **** #include "bsp_dwt.h"
  12:bsp/dwt/bsp_dwt.c **** #include "cmsis_os.h"
  13:bsp/dwt/bsp_dwt.c **** 
  14:bsp/dwt/bsp_dwt.c **** static DWT_Time_t SysTime;
  15:bsp/dwt/bsp_dwt.c **** static uint32_t CPU_FREQ_Hz, CPU_FREQ_Hz_ms, CPU_FREQ_Hz_us;
  16:bsp/dwt/bsp_dwt.c **** static uint32_t CYCCNT_RountCount;
  17:bsp/dwt/bsp_dwt.c **** static uint32_t CYCCNT_LAST;
  18:bsp/dwt/bsp_dwt.c **** static uint64_t CYCCNT64;
  19:bsp/dwt/bsp_dwt.c **** 
  20:bsp/dwt/bsp_dwt.c **** /**
  21:bsp/dwt/bsp_dwt.c ****  * @brief 私有函数,用于检查DWT CYCCNT寄存器是否溢出,并更新CYCCNT_RountCount
  22:bsp/dwt/bsp_dwt.c ****  * @attention 此函数假设两次调用之间的时间间隔不超过一次溢出
  23:bsp/dwt/bsp_dwt.c ****  *
  24:bsp/dwt/bsp_dwt.c ****  * @todo 更好的方案是为dwt的时间更新单独设置一个任务?
  25:bsp/dwt/bsp_dwt.c ****  *       不过,使用dwt的初衷是定时不被中断/任务等因素影响,因此该实现仍然
  26:bsp/dwt/bsp_dwt.c ****  *
  27:bsp/dwt/bsp_dwt.c ****  */
  28:bsp/dwt/bsp_dwt.c **** static void DWT_CNT_Update(void)
  29:bsp/dwt/bsp_dwt.c **** {
  27              		.loc 1 29 1 view -0
  28              		.cfi_startproc
  29              		@ args = 0, pretend = 0, frame = 8
ARM GAS  C:\Users\ADMINI~1\AppData\Local\Temp\ccQGYun9.s 			page 2


  30              		@ frame_needed = 0, uses_anonymous_args = 0
  31              		@ link register save eliminated.
  30:bsp/dwt/bsp_dwt.c ****     static volatile uint8_t bit_locker = 0;
  32              		.loc 1 30 5 view .LVU1
  31:bsp/dwt/bsp_dwt.c ****     if (!bit_locker)
  33              		.loc 1 31 5 view .LVU2
  34              		.loc 1 31 9 is_stmt 0 view .LVU3
  35 0000 0E4B     		ldr	r3, .L8
  36 0002 1B78     		ldrb	r3, [r3]	@ zero_extendqisi2
  37              		.loc 1 31 8 view .LVU4
  38 0004 C3B9     		cbnz	r3, .L5
  29:bsp/dwt/bsp_dwt.c ****     static volatile uint8_t bit_locker = 0;
  39              		.loc 1 29 1 view .LVU5
  40 0006 82B0     		sub	sp, sp, #8
  41              	.LCFI0:
  42              		.cfi_def_cfa_offset 8
  43              	.LBB2:
  32:bsp/dwt/bsp_dwt.c ****     {
  33:bsp/dwt/bsp_dwt.c ****         bit_locker = 1;
  44              		.loc 1 33 9 is_stmt 1 view .LVU6
  45              		.loc 1 33 20 is_stmt 0 view .LVU7
  46 0008 0C4B     		ldr	r3, .L8
  47 000a 0122     		movs	r2, #1
  48 000c 1A70     		strb	r2, [r3]
  34:bsp/dwt/bsp_dwt.c ****         volatile uint32_t cnt_now = DWT->CYCCNT;
  49              		.loc 1 34 9 is_stmt 1 view .LVU8
  50              		.loc 1 34 40 is_stmt 0 view .LVU9
  51 000e 0C4B     		ldr	r3, .L8+4
  52 0010 5B68     		ldr	r3, [r3, #4]
  53              		.loc 1 34 27 view .LVU10
  54 0012 0193     		str	r3, [sp, #4]
  35:bsp/dwt/bsp_dwt.c ****         if (cnt_now < CYCCNT_LAST)
  55              		.loc 1 35 9 is_stmt 1 view .LVU11
  56              		.loc 1 35 21 is_stmt 0 view .LVU12
  57 0014 019A     		ldr	r2, [sp, #4]
  58 0016 0B4B     		ldr	r3, .L8+8
  59 0018 1B68     		ldr	r3, [r3]
  60              		.loc 1 35 12 view .LVU13
  61 001a 9A42     		cmp	r2, r3
  62 001c 03D2     		bcs	.L3
  36:bsp/dwt/bsp_dwt.c ****             CYCCNT_RountCount++;
  63              		.loc 1 36 13 is_stmt 1 view .LVU14
  64              		.loc 1 36 30 is_stmt 0 view .LVU15
  65 001e 0A4A     		ldr	r2, .L8+12
  66 0020 1368     		ldr	r3, [r2]
  67 0022 0133     		adds	r3, r3, #1
  68 0024 1360     		str	r3, [r2]
  69              	.L3:
  37:bsp/dwt/bsp_dwt.c **** 
  38:bsp/dwt/bsp_dwt.c ****         CYCCNT_LAST = DWT->CYCCNT;
  70              		.loc 1 38 9 is_stmt 1 view .LVU16
  71              		.loc 1 38 26 is_stmt 0 view .LVU17
  72 0026 064B     		ldr	r3, .L8+4
  73 0028 5A68     		ldr	r2, [r3, #4]
  74              		.loc 1 38 21 view .LVU18
  75 002a 064B     		ldr	r3, .L8+8
  76 002c 1A60     		str	r2, [r3]
ARM GAS  C:\Users\ADMINI~1\AppData\Local\Temp\ccQGYun9.s 			page 3


  39:bsp/dwt/bsp_dwt.c ****         bit_locker = 0;
  77              		.loc 1 39 9 is_stmt 1 view .LVU19
  78              		.loc 1 39 20 is_stmt 0 view .LVU20
  79 002e 034B     		ldr	r3, .L8
  80 0030 0022     		movs	r2, #0
  81 0032 1A70     		strb	r2, [r3]
  82              	.LBE2:
  40:bsp/dwt/bsp_dwt.c ****     }
  41:bsp/dwt/bsp_dwt.c **** }
  83              		.loc 1 41 1 view .LVU21
  84 0034 02B0     		add	sp, sp, #8
  85              	.LCFI1:
  86              		.cfi_def_cfa_offset 0
  87              		@ sp needed
  88 0036 7047     		bx	lr
  89              	.L5:
  90 0038 7047     		bx	lr
  91              	.L9:
  92 003a 00BF     		.align	2
  93              	.L8:
  94 003c 00000000 		.word	bit_locker.3
  95 0040 001000E0 		.word	-536866816
  96 0044 00000000 		.word	CYCCNT_LAST
  97 0048 00000000 		.word	CYCCNT_RountCount
  98              		.cfi_endproc
  99              	.LFE357:
 101              		.section	.text.DWT_Init,"ax",%progbits
 102              		.align	1
 103              		.global	DWT_Init
 104              		.syntax unified
 105              		.thumb
 106              		.thumb_func
 108              	DWT_Init:
 109              	.LVL0:
 110              	.LFB358:
  42:bsp/dwt/bsp_dwt.c **** 
  43:bsp/dwt/bsp_dwt.c **** void DWT_Init(uint32_t CPU_Freq_mHz)
  44:bsp/dwt/bsp_dwt.c **** {
 111              		.loc 1 44 1 is_stmt 1 view -0
 112              		.cfi_startproc
 113              		@ args = 0, pretend = 0, frame = 0
 114              		@ frame_needed = 0, uses_anonymous_args = 0
 115              		.loc 1 44 1 is_stmt 0 view .LVU23
 116 0000 08B5     		push	{r3, lr}
 117              	.LCFI2:
 118              		.cfi_def_cfa_offset 8
 119              		.cfi_offset 3, -8
 120              		.cfi_offset 14, -4
  45:bsp/dwt/bsp_dwt.c ****     /* 使能DWT外设 */
  46:bsp/dwt/bsp_dwt.c ****     CoreDebug->DEMCR |= CoreDebug_DEMCR_TRCENA_Msk;
 121              		.loc 1 46 5 is_stmt 1 view .LVU24
 122              		.loc 1 46 14 is_stmt 0 view .LVU25
 123 0002 124A     		ldr	r2, .L12
 124 0004 D2F8FC30 		ldr	r3, [r2, #252]
 125              		.loc 1 46 22 view .LVU26
 126 0008 43F08073 		orr	r3, r3, #16777216
 127 000c C2F8FC30 		str	r3, [r2, #252]
ARM GAS  C:\Users\ADMINI~1\AppData\Local\Temp\ccQGYun9.s 			page 4


  47:bsp/dwt/bsp_dwt.c **** 
  48:bsp/dwt/bsp_dwt.c ****     /* DWT CYCCNT寄存器计数清0 */
  49:bsp/dwt/bsp_dwt.c ****     DWT->CYCCNT = (uint32_t)0u;
 128              		.loc 1 49 5 is_stmt 1 view .LVU27
 129              		.loc 1 49 17 is_stmt 0 view .LVU28
 130 0010 0F4B     		ldr	r3, .L12+4
 131 0012 0021     		movs	r1, #0
 132 0014 5960     		str	r1, [r3, #4]
  50:bsp/dwt/bsp_dwt.c **** 
  51:bsp/dwt/bsp_dwt.c ****     /* 使能Cortex-M DWT CYCCNT寄存器 */
  52:bsp/dwt/bsp_dwt.c ****     DWT->CTRL |= DWT_CTRL_CYCCNTENA_Msk;
 133              		.loc 1 52 5 is_stmt 1 view .LVU29
 134              		.loc 1 52 8 is_stmt 0 view .LVU30
 135 0016 1A68     		ldr	r2, [r3]
 136              		.loc 1 52 15 view .LVU31
 137 0018 42F00102 		orr	r2, r2, #1
 138 001c 1A60     		str	r2, [r3]
  53:bsp/dwt/bsp_dwt.c **** 
  54:bsp/dwt/bsp_dwt.c ****     CPU_FREQ_Hz = CPU_Freq_mHz * 1000000;
 139              		.loc 1 54 5 is_stmt 1 view .LVU32
 140              		.loc 1 54 32 is_stmt 0 view .LVU33
 141 001e 0D4B     		ldr	r3, .L12+8
 142 0020 03FB00F0 		mul	r0, r3, r0
 143              	.LVL1:
 144              		.loc 1 54 17 view .LVU34
 145 0024 0C4B     		ldr	r3, .L12+12
 146 0026 1860     		str	r0, [r3]
  55:bsp/dwt/bsp_dwt.c ****     CPU_FREQ_Hz_ms = CPU_FREQ_Hz / 1000;
 147              		.loc 1 55 5 is_stmt 1 view .LVU35
 148              		.loc 1 55 34 is_stmt 0 view .LVU36
 149 0028 0C4B     		ldr	r3, .L12+16
 150 002a A3FB0023 		umull	r2, r3, r3, r0
 151 002e 9B09     		lsrs	r3, r3, #6
 152              		.loc 1 55 20 view .LVU37
 153 0030 0B4A     		ldr	r2, .L12+20
 154 0032 1360     		str	r3, [r2]
  56:bsp/dwt/bsp_dwt.c ****     CPU_FREQ_Hz_us = CPU_FREQ_Hz / 1000000;
 155              		.loc 1 56 5 is_stmt 1 view .LVU38
 156              		.loc 1 56 34 is_stmt 0 view .LVU39
 157 0034 0B4B     		ldr	r3, .L12+24
 158 0036 A3FB0030 		umull	r3, r0, r3, r0
 159 003a 800C     		lsrs	r0, r0, #18
 160              		.loc 1 56 20 view .LVU40
 161 003c 0A4B     		ldr	r3, .L12+28
 162 003e 1860     		str	r0, [r3]
  57:bsp/dwt/bsp_dwt.c ****     CYCCNT_RountCount = 0;
 163              		.loc 1 57 5 is_stmt 1 view .LVU41
 164              		.loc 1 57 23 is_stmt 0 view .LVU42
 165 0040 0A4B     		ldr	r3, .L12+32
 166 0042 1960     		str	r1, [r3]
  58:bsp/dwt/bsp_dwt.c **** 
  59:bsp/dwt/bsp_dwt.c ****     DWT_CNT_Update();
 167              		.loc 1 59 5 is_stmt 1 view .LVU43
 168 0044 FFF7FEFF 		bl	DWT_CNT_Update
 169              	.LVL2:
  60:bsp/dwt/bsp_dwt.c **** }
 170              		.loc 1 60 1 is_stmt 0 view .LVU44
ARM GAS  C:\Users\ADMINI~1\AppData\Local\Temp\ccQGYun9.s 			page 5


 171 0048 08BD     		pop	{r3, pc}
 172              	.L13:
 173 004a 00BF     		.align	2
 174              	.L12:
 175 004c 00ED00E0 		.word	-536810240
 176 0050 001000E0 		.word	-536866816
 177 0054 40420F00 		.word	1000000
 178 0058 00000000 		.word	CPU_FREQ_Hz
 179 005c D34D6210 		.word	274877907
 180 0060 00000000 		.word	CPU_FREQ_Hz_ms
 181 0064 83DE1B43 		.word	1125899907
 182 0068 00000000 		.word	CPU_FREQ_Hz_us
 183 006c 00000000 		.word	CYCCNT_RountCount
 184              		.cfi_endproc
 185              	.LFE358:
 187              		.section	.text.DWT_GetDeltaT,"ax",%progbits
 188              		.align	1
 189              		.global	DWT_GetDeltaT
 190              		.syntax unified
 191              		.thumb
 192              		.thumb_func
 194              	DWT_GetDeltaT:
 195              	.LVL3:
 196              	.LFB359:
  61:bsp/dwt/bsp_dwt.c **** 
  62:bsp/dwt/bsp_dwt.c **** float DWT_GetDeltaT(uint32_t *cnt_last)
  63:bsp/dwt/bsp_dwt.c **** {
 197              		.loc 1 63 1 is_stmt 1 view -0
 198              		.cfi_startproc
 199              		@ args = 0, pretend = 0, frame = 8
 200              		@ frame_needed = 0, uses_anonymous_args = 0
 201              		.loc 1 63 1 is_stmt 0 view .LVU46
 202 0000 00B5     		push	{lr}
 203              	.LCFI3:
 204              		.cfi_def_cfa_offset 4
 205              		.cfi_offset 14, -4
 206 0002 2DED028B 		vpush.64	{d8}
 207              	.LCFI4:
 208              		.cfi_def_cfa_offset 12
 209              		.cfi_offset 80, -12
 210              		.cfi_offset 81, -8
 211 0006 83B0     		sub	sp, sp, #12
 212              	.LCFI5:
 213              		.cfi_def_cfa_offset 24
  64:bsp/dwt/bsp_dwt.c ****     volatile uint32_t cnt_now = DWT->CYCCNT;
 214              		.loc 1 64 5 is_stmt 1 view .LVU47
 215              		.loc 1 64 36 is_stmt 0 view .LVU48
 216 0008 0E4B     		ldr	r3, .L16
 217 000a 5B68     		ldr	r3, [r3, #4]
 218              		.loc 1 64 23 view .LVU49
 219 000c 0193     		str	r3, [sp, #4]
  65:bsp/dwt/bsp_dwt.c ****     float dt = ((uint32_t)(cnt_now - *cnt_last)) / ((float)(CPU_FREQ_Hz));
 220              		.loc 1 65 5 is_stmt 1 view .LVU50
 221              		.loc 1 65 36 is_stmt 0 view .LVU51
 222 000e 019B     		ldr	r3, [sp, #4]
 223              		.loc 1 65 38 view .LVU52
 224 0010 0268     		ldr	r2, [r0]
ARM GAS  C:\Users\ADMINI~1\AppData\Local\Temp\ccQGYun9.s 			page 6


 225              		.loc 1 65 36 view .LVU53
 226 0012 9B1A     		subs	r3, r3, r2
 227              		.loc 1 65 50 view .LVU54
 228 0014 07EE903A 		vmov	s15, r3	@ int
 229 0018 F8EE677A 		vcvt.f32.u32	s15, s15
 230              		.loc 1 65 53 view .LVU55
 231 001c 0A4B     		ldr	r3, .L16+4
 232 001e 93ED007A 		vldr.32	s14, [r3]	@ int
 233 0022 B8EE477A 		vcvt.f32.u32	s14, s14
 234              		.loc 1 65 11 view .LVU56
 235 0026 C7EE877A 		vdiv.f32	s15, s15, s14
 236 002a B0EE678A 		vmov.f32	s16, s15
 237              	.LVL4:
  66:bsp/dwt/bsp_dwt.c ****     *cnt_last = cnt_now;
 238              		.loc 1 66 5 is_stmt 1 view .LVU57
 239              		.loc 1 66 15 is_stmt 0 view .LVU58
 240 002e 019B     		ldr	r3, [sp, #4]
 241 0030 0360     		str	r3, [r0]
  67:bsp/dwt/bsp_dwt.c **** 
  68:bsp/dwt/bsp_dwt.c ****     DWT_CNT_Update();
 242              		.loc 1 68 5 is_stmt 1 view .LVU59
 243 0032 FFF7FEFF 		bl	DWT_CNT_Update
 244              	.LVL5:
  69:bsp/dwt/bsp_dwt.c **** 
  70:bsp/dwt/bsp_dwt.c ****     return dt;
 245              		.loc 1 70 5 view .LVU60
  71:bsp/dwt/bsp_dwt.c **** }
 246              		.loc 1 71 1 is_stmt 0 view .LVU61
 247 0036 B0EE480A 		vmov.f32	s0, s16
 248 003a 03B0     		add	sp, sp, #12
 249              	.LCFI6:
 250              		.cfi_def_cfa_offset 12
 251              		@ sp needed
 252 003c BDEC028B 		vldm	sp!, {d8}
 253              	.LCFI7:
 254              		.cfi_restore 80
 255              		.cfi_restore 81
 256              		.cfi_def_cfa_offset 4
 257              	.LVL6:
 258              		.loc 1 71 1 view .LVU62
 259 0040 00BD     		pop	{pc}
 260              	.L17:
 261 0042 00BF     		.align	2
 262              	.L16:
 263 0044 001000E0 		.word	-536866816
 264 0048 00000000 		.word	CPU_FREQ_Hz
 265              		.cfi_endproc
 266              	.LFE359:
 268              		.section	.text.DWT_GetDeltaT64,"ax",%progbits
 269              		.align	1
 270              		.global	DWT_GetDeltaT64
 271              		.syntax unified
 272              		.thumb
 273              		.thumb_func
 275              	DWT_GetDeltaT64:
 276              	.LVL7:
 277              	.LFB360:
ARM GAS  C:\Users\ADMINI~1\AppData\Local\Temp\ccQGYun9.s 			page 7


  72:bsp/dwt/bsp_dwt.c **** 
  73:bsp/dwt/bsp_dwt.c **** double DWT_GetDeltaT64(uint32_t *cnt_last)
  74:bsp/dwt/bsp_dwt.c **** {
 278              		.loc 1 74 1 is_stmt 1 view -0
 279              		.cfi_startproc
 280              		@ args = 0, pretend = 0, frame = 8
 281              		@ frame_needed = 0, uses_anonymous_args = 0
 282              		.loc 1 74 1 is_stmt 0 view .LVU64
 283 0000 00B5     		push	{lr}
 284              	.LCFI8:
 285              		.cfi_def_cfa_offset 4
 286              		.cfi_offset 14, -4
 287 0002 2DED028B 		vpush.64	{d8}
 288              	.LCFI9:
 289              		.cfi_def_cfa_offset 12
 290              		.cfi_offset 80, -12
 291              		.cfi_offset 81, -8
 292 0006 83B0     		sub	sp, sp, #12
 293              	.LCFI10:
 294              		.cfi_def_cfa_offset 24
  75:bsp/dwt/bsp_dwt.c ****     volatile uint32_t cnt_now = DWT->CYCCNT;
 295              		.loc 1 75 5 is_stmt 1 view .LVU65
 296              		.loc 1 75 36 is_stmt 0 view .LVU66
 297 0008 0E4B     		ldr	r3, .L20
 298 000a 5B68     		ldr	r3, [r3, #4]
 299              		.loc 1 75 23 view .LVU67
 300 000c 0193     		str	r3, [sp, #4]
  76:bsp/dwt/bsp_dwt.c ****     double dt = ((uint32_t)(cnt_now - *cnt_last)) / ((double)(CPU_FREQ_Hz));
 301              		.loc 1 76 5 is_stmt 1 view .LVU68
 302              		.loc 1 76 37 is_stmt 0 view .LVU69
 303 000e 019B     		ldr	r3, [sp, #4]
 304              		.loc 1 76 39 view .LVU70
 305 0010 0268     		ldr	r2, [r0]
 306              		.loc 1 76 37 view .LVU71
 307 0012 9B1A     		subs	r3, r3, r2
 308              		.loc 1 76 51 view .LVU72
 309 0014 07EE903A 		vmov	s15, r3	@ int
 310 0018 B8EE677B 		vcvt.f64.u32	d7, s15
 311              		.loc 1 76 54 view .LVU73
 312 001c 0A4B     		ldr	r3, .L20+4
 313 001e 93ED006A 		vldr.32	s12, [r3]	@ int
 314 0022 B8EE466B 		vcvt.f64.u32	d6, s12
 315              		.loc 1 76 12 view .LVU74
 316 0026 87EE067B 		vdiv.f64	d7, d7, d6
 317 002a B0EE478B 		vmov.f64	d8, d7
 318              	.LVL8:
  77:bsp/dwt/bsp_dwt.c ****     *cnt_last = cnt_now;
 319              		.loc 1 77 5 is_stmt 1 view .LVU75
 320              		.loc 1 77 15 is_stmt 0 view .LVU76
 321 002e 019B     		ldr	r3, [sp, #4]
 322 0030 0360     		str	r3, [r0]
  78:bsp/dwt/bsp_dwt.c **** 
  79:bsp/dwt/bsp_dwt.c ****     DWT_CNT_Update();
 323              		.loc 1 79 5 is_stmt 1 view .LVU77
 324 0032 FFF7FEFF 		bl	DWT_CNT_Update
 325              	.LVL9:
  80:bsp/dwt/bsp_dwt.c **** 
ARM GAS  C:\Users\ADMINI~1\AppData\Local\Temp\ccQGYun9.s 			page 8


  81:bsp/dwt/bsp_dwt.c ****     return dt;
 326              		.loc 1 81 5 view .LVU78
  82:bsp/dwt/bsp_dwt.c **** }
 327              		.loc 1 82 1 is_stmt 0 view .LVU79
 328 0036 B0EE480B 		vmov.f64	d0, d8
 329 003a 03B0     		add	sp, sp, #12
 330              	.LCFI11:
 331              		.cfi_def_cfa_offset 12
 332              		@ sp needed
 333 003c BDEC028B 		vldm	sp!, {d8}
 334              	.LCFI12:
 335              		.cfi_restore 80
 336              		.cfi_restore 81
 337              		.cfi_def_cfa_offset 4
 338              	.LVL10:
 339              		.loc 1 82 1 view .LVU80
 340 0040 00BD     		pop	{pc}
 341              	.L21:
 342 0042 00BF     		.align	2
 343              	.L20:
 344 0044 001000E0 		.word	-536866816
 345 0048 00000000 		.word	CPU_FREQ_Hz
 346              		.cfi_endproc
 347              	.LFE360:
 349              		.section	.text.DWT_SysTimeUpdate,"ax",%progbits
 350              		.align	1
 351              		.global	DWT_SysTimeUpdate
 352              		.syntax unified
 353              		.thumb
 354              		.thumb_func
 356              	DWT_SysTimeUpdate:
 357              	.LFB361:
  83:bsp/dwt/bsp_dwt.c **** 
  84:bsp/dwt/bsp_dwt.c **** void DWT_SysTimeUpdate(void)
  85:bsp/dwt/bsp_dwt.c **** {
 358              		.loc 1 85 1 is_stmt 1 view -0
 359              		.cfi_startproc
 360              		@ args = 0, pretend = 0, frame = 8
 361              		@ frame_needed = 0, uses_anonymous_args = 0
 362 0000 2DE9F041 		push	{r4, r5, r6, r7, r8, lr}
 363              	.LCFI13:
 364              		.cfi_def_cfa_offset 24
 365              		.cfi_offset 4, -24
 366              		.cfi_offset 5, -20
 367              		.cfi_offset 6, -16
 368              		.cfi_offset 7, -12
 369              		.cfi_offset 8, -8
 370              		.cfi_offset 14, -4
 371 0004 82B0     		sub	sp, sp, #8
 372              	.LCFI14:
 373              		.cfi_def_cfa_offset 32
  86:bsp/dwt/bsp_dwt.c ****     volatile uint32_t cnt_now = DWT->CYCCNT;
 374              		.loc 1 86 5 view .LVU82
 375              		.loc 1 86 36 is_stmt 0 view .LVU83
 376 0006 294B     		ldr	r3, .L24
 377 0008 5B68     		ldr	r3, [r3, #4]
 378              		.loc 1 86 23 view .LVU84
ARM GAS  C:\Users\ADMINI~1\AppData\Local\Temp\ccQGYun9.s 			page 9


 379 000a 0193     		str	r3, [sp, #4]
  87:bsp/dwt/bsp_dwt.c ****     static uint64_t CNT_TEMP1, CNT_TEMP2, CNT_TEMP3;
 380              		.loc 1 87 5 is_stmt 1 view .LVU85
  88:bsp/dwt/bsp_dwt.c **** 
  89:bsp/dwt/bsp_dwt.c ****     DWT_CNT_Update();
 381              		.loc 1 89 5 view .LVU86
 382 000c FFF7FEFF 		bl	DWT_CNT_Update
 383              	.LVL11:
  90:bsp/dwt/bsp_dwt.c **** 
  91:bsp/dwt/bsp_dwt.c ****     CYCCNT64 = (uint64_t)CYCCNT_RountCount * (uint64_t)UINT32_MAX + (uint64_t)cnt_now;
 384              		.loc 1 91 5 view .LVU87
 385              		.loc 1 91 16 is_stmt 0 view .LVU88
 386 0010 274B     		ldr	r3, .L24+4
 387 0012 1C68     		ldr	r4, [r3]
 388 0014 0026     		movs	r6, #0
 389              		.loc 1 91 44 view .LVU89
 390 0016 6508     		lsrs	r5, r4, #1
 391 0018 E307     		lsls	r3, r4, #31
 392 001a 1B1B     		subs	r3, r3, r4
 393 001c 65F10005 		sbc	r5, r5, #0
 394 0020 DB18     		adds	r3, r3, r3
 395 0022 6D41     		adcs	r5, r5, r5
 396 0024 1C19     		adds	r4, r3, r4
 397 0026 45F10005 		adc	r5, r5, #0
 398              		.loc 1 91 69 view .LVU90
 399 002a 019B     		ldr	r3, [sp, #4]
 400              		.loc 1 91 67 view .LVU91
 401 002c E418     		adds	r4, r4, r3
 402 002e 45F10005 		adc	r5, r5, #0
 403              		.loc 1 91 14 view .LVU92
 404 0032 204B     		ldr	r3, .L24+8
 405 0034 1C60     		str	r4, [r3]
 406 0036 5D60     		str	r5, [r3, #4]
  92:bsp/dwt/bsp_dwt.c ****     CNT_TEMP1 = CYCCNT64 / CPU_FREQ_Hz;
 407              		.loc 1 92 5 is_stmt 1 view .LVU93
 408              		.loc 1 92 26 is_stmt 0 view .LVU94
 409 0038 1F4B     		ldr	r3, .L24+12
 410 003a D3F80080 		ldr	r8, [r3]
 411 003e 4246     		mov	r2, r8
 412 0040 3346     		mov	r3, r6
 413 0042 2046     		mov	r0, r4
 414 0044 2946     		mov	r1, r5
 415 0046 FFF7FEFF 		bl	__aeabi_uldivmod
 416              	.LVL12:
 417 004a 0746     		mov	r7, r0
 418              		.loc 1 92 15 view .LVU95
 419 004c 1B4B     		ldr	r3, .L24+16
 420 004e 1860     		str	r0, [r3]
 421 0050 5960     		str	r1, [r3, #4]
  93:bsp/dwt/bsp_dwt.c ****     CNT_TEMP2 = CYCCNT64 - CNT_TEMP1 * CPU_FREQ_Hz;
 422              		.loc 1 93 5 is_stmt 1 view .LVU96
 423 0052 4246     		mov	r2, r8
 424 0054 3346     		mov	r3, r6
 425 0056 2046     		mov	r0, r4
 426 0058 2946     		mov	r1, r5
 427 005a FFF7FEFF 		bl	__aeabi_uldivmod
 428              	.LVL13:
ARM GAS  C:\Users\ADMINI~1\AppData\Local\Temp\ccQGYun9.s 			page 10


 429 005e 1046     		mov	r0, r2
 430 0060 1C46     		mov	r4, r3
 431 0062 1546     		mov	r5, r2
 432              		.loc 1 93 15 is_stmt 0 view .LVU97
 433 0064 164B     		ldr	r3, .L24+20
 434 0066 1A60     		str	r2, [r3]
 435 0068 5C60     		str	r4, [r3, #4]
  94:bsp/dwt/bsp_dwt.c ****     SysTime.s = CNT_TEMP1;
 436              		.loc 1 94 5 is_stmt 1 view .LVU98
 437              		.loc 1 94 15 is_stmt 0 view .LVU99
 438 006a DFF86480 		ldr	r8, .L24+36
 439 006e C8F80070 		str	r7, [r8]
  95:bsp/dwt/bsp_dwt.c ****     SysTime.ms = CNT_TEMP2 / CPU_FREQ_Hz_ms;
 440              		.loc 1 95 5 is_stmt 1 view .LVU100
 441              		.loc 1 95 28 is_stmt 0 view .LVU101
 442 0072 144B     		ldr	r3, .L24+24
 443 0074 1F68     		ldr	r7, [r3]
 444 0076 3A46     		mov	r2, r7
 445 0078 3346     		mov	r3, r6
 446 007a 2146     		mov	r1, r4
 447 007c FFF7FEFF 		bl	__aeabi_uldivmod
 448              	.LVL14:
 449              		.loc 1 95 16 view .LVU102
 450 0080 80B2     		uxth	r0, r0
 451 0082 A8F80400 		strh	r0, [r8, #4]	@ movhi
  96:bsp/dwt/bsp_dwt.c ****     CNT_TEMP3 = CNT_TEMP2 - SysTime.ms * CPU_FREQ_Hz_ms;
 452              		.loc 1 96 5 is_stmt 1 view .LVU103
 453              		.loc 1 96 40 is_stmt 0 view .LVU104
 454 0086 00FB07F7 		mul	r7, r0, r7
 455              		.loc 1 96 27 view .LVU105
 456 008a E81B     		subs	r0, r5, r7
 457 008c 64F10001 		sbc	r1, r4, #0
 458              		.loc 1 96 15 view .LVU106
 459 0090 0D4B     		ldr	r3, .L24+28
 460 0092 1860     		str	r0, [r3]
 461 0094 5960     		str	r1, [r3, #4]
  97:bsp/dwt/bsp_dwt.c ****     SysTime.us = CNT_TEMP3 / CPU_FREQ_Hz_us;
 462              		.loc 1 97 5 is_stmt 1 view .LVU107
 463              		.loc 1 97 28 is_stmt 0 view .LVU108
 464 0096 0D4B     		ldr	r3, .L24+32
 465 0098 1A68     		ldr	r2, [r3]
 466 009a 3346     		mov	r3, r6
 467 009c FFF7FEFF 		bl	__aeabi_uldivmod
 468              	.LVL15:
 469              		.loc 1 97 16 view .LVU109
 470 00a0 A8F80600 		strh	r0, [r8, #6]	@ movhi
  98:bsp/dwt/bsp_dwt.c **** }
 471              		.loc 1 98 1 view .LVU110
 472 00a4 02B0     		add	sp, sp, #8
 473              	.LCFI15:
 474              		.cfi_def_cfa_offset 24
 475              		@ sp needed
 476 00a6 BDE8F081 		pop	{r4, r5, r6, r7, r8, pc}
 477              	.L25:
 478 00aa 00BF     		.align	2
 479              	.L24:
 480 00ac 001000E0 		.word	-536866816
ARM GAS  C:\Users\ADMINI~1\AppData\Local\Temp\ccQGYun9.s 			page 11


 481 00b0 00000000 		.word	CYCCNT_RountCount
 482 00b4 00000000 		.word	CYCCNT64
 483 00b8 00000000 		.word	CPU_FREQ_Hz
 484 00bc 00000000 		.word	CNT_TEMP1.2
 485 00c0 00000000 		.word	CNT_TEMP2.1
 486 00c4 00000000 		.word	CPU_FREQ_Hz_ms
 487 00c8 00000000 		.word	CNT_TEMP3.0
 488 00cc 00000000 		.word	CPU_FREQ_Hz_us
 489 00d0 00000000 		.word	SysTime
 490              		.cfi_endproc
 491              	.LFE361:
 493              		.section	.text.DWT_GetTimeline_s,"ax",%progbits
 494              		.align	1
 495              		.global	DWT_GetTimeline_s
 496              		.syntax unified
 497              		.thumb
 498              		.thumb_func
 500              	DWT_GetTimeline_s:
 501              	.LFB362:
  99:bsp/dwt/bsp_dwt.c **** 
 100:bsp/dwt/bsp_dwt.c **** float DWT_GetTimeline_s(void)
 101:bsp/dwt/bsp_dwt.c **** {
 502              		.loc 1 101 1 is_stmt 1 view -0
 503              		.cfi_startproc
 504              		@ args = 0, pretend = 0, frame = 0
 505              		@ frame_needed = 0, uses_anonymous_args = 0
 506 0000 08B5     		push	{r3, lr}
 507              	.LCFI16:
 508              		.cfi_def_cfa_offset 8
 509              		.cfi_offset 3, -8
 510              		.cfi_offset 14, -4
 102:bsp/dwt/bsp_dwt.c ****     DWT_SysTimeUpdate();
 511              		.loc 1 102 5 view .LVU112
 512 0002 FFF7FEFF 		bl	DWT_SysTimeUpdate
 513              	.LVL16:
 103:bsp/dwt/bsp_dwt.c **** 
 104:bsp/dwt/bsp_dwt.c ****     float DWT_Timelinef32 = SysTime.s + SysTime.ms * 0.001f + SysTime.us * 0.000001f;
 514              		.loc 1 104 5 view .LVU113
 515              		.loc 1 104 36 is_stmt 0 view .LVU114
 516 0006 0E4B     		ldr	r3, .L28
 517              		.loc 1 104 48 view .LVU115
 518 0008 9A88     		ldrh	r2, [r3, #4]
 519 000a 07EE902A 		vmov	s15, r2	@ int
 520              		.loc 1 104 52 view .LVU116
 521 000e F8EEE77A 		vcvt.f32.s32	s15, s15
 522 0012 9FED0C7A 		vldr.32	s14, .L28+4
 523 0016 67EE877A 		vmul.f32	s15, s15, s14
 524              		.loc 1 104 39 view .LVU117
 525 001a 93ED007A 		vldr.32	s14, [r3]	@ int
 526 001e B8EE470A 		vcvt.f32.u32	s0, s14
 527 0022 30EE270A 		vadd.f32	s0, s0, s15
 528              		.loc 1 104 70 view .LVU118
 529 0026 DB88     		ldrh	r3, [r3, #6]
 530 0028 07EE903A 		vmov	s15, r3	@ int
 531              		.loc 1 104 74 view .LVU119
 532 002c F8EEE77A 		vcvt.f32.s32	s15, s15
 533 0030 9FED057A 		vldr.32	s14, .L28+8
ARM GAS  C:\Users\ADMINI~1\AppData\Local\Temp\ccQGYun9.s 			page 12


 534 0034 67EE877A 		vmul.f32	s15, s15, s14
 535              	.LVL17:
 105:bsp/dwt/bsp_dwt.c **** 
 106:bsp/dwt/bsp_dwt.c ****     return DWT_Timelinef32;
 536              		.loc 1 106 5 is_stmt 1 view .LVU120
 107:bsp/dwt/bsp_dwt.c **** }
 537              		.loc 1 107 1 is_stmt 0 view .LVU121
 538 0038 30EE270A 		vadd.f32	s0, s0, s15
 539              	.LVL18:
 540              		.loc 1 107 1 view .LVU122
 541 003c 08BD     		pop	{r3, pc}
 542              	.L29:
 543 003e 00BF     		.align	2
 544              	.L28:
 545 0040 00000000 		.word	SysTime
 546 0044 6F12833A 		.word	981668463
 547 0048 BD378635 		.word	897988541
 548              		.cfi_endproc
 549              	.LFE362:
 551              		.section	.text.DWT_GetTimeline_ms,"ax",%progbits
 552              		.align	1
 553              		.global	DWT_GetTimeline_ms
 554              		.syntax unified
 555              		.thumb
 556              		.thumb_func
 558              	DWT_GetTimeline_ms:
 559              	.LFB363:
 108:bsp/dwt/bsp_dwt.c **** 
 109:bsp/dwt/bsp_dwt.c **** float DWT_GetTimeline_ms(void)
 110:bsp/dwt/bsp_dwt.c **** {
 560              		.loc 1 110 1 is_stmt 1 view -0
 561              		.cfi_startproc
 562              		@ args = 0, pretend = 0, frame = 0
 563              		@ frame_needed = 0, uses_anonymous_args = 0
 564 0000 08B5     		push	{r3, lr}
 565              	.LCFI17:
 566              		.cfi_def_cfa_offset 8
 567              		.cfi_offset 3, -8
 568              		.cfi_offset 14, -4
 111:bsp/dwt/bsp_dwt.c ****     DWT_SysTimeUpdate();
 569              		.loc 1 111 5 view .LVU124
 570 0002 FFF7FEFF 		bl	DWT_SysTimeUpdate
 571              	.LVL19:
 112:bsp/dwt/bsp_dwt.c **** 
 113:bsp/dwt/bsp_dwt.c ****     float DWT_Timelinef32 = SysTime.s * 1000 + SysTime.ms + SysTime.us * 0.001f;
 572              		.loc 1 113 5 view .LVU125
 573              		.loc 1 113 36 is_stmt 0 view .LVU126
 574 0006 0B4A     		ldr	r2, .L32
 575 0008 1168     		ldr	r1, [r2]
 576              		.loc 1 113 55 view .LVU127
 577 000a 9388     		ldrh	r3, [r2, #4]
 578              		.loc 1 113 46 view .LVU128
 579 000c 4FF47A70 		mov	r0, #1000
 580 0010 00FB0133 		mla	r3, r0, r1, r3
 581 0014 00EE103A 		vmov	s0, r3	@ int
 582              		.loc 1 113 59 view .LVU129
 583 0018 B8EE400A 		vcvt.f32.u32	s0, s0
ARM GAS  C:\Users\ADMINI~1\AppData\Local\Temp\ccQGYun9.s 			page 13


 584              		.loc 1 113 68 view .LVU130
 585 001c D388     		ldrh	r3, [r2, #6]
 586 001e 07EE903A 		vmov	s15, r3	@ int
 587              		.loc 1 113 72 view .LVU131
 588 0022 F8EEE77A 		vcvt.f32.s32	s15, s15
 589 0026 9FED047A 		vldr.32	s14, .L32+4
 590 002a 67EE877A 		vmul.f32	s15, s15, s14
 591              	.LVL20:
 114:bsp/dwt/bsp_dwt.c **** 
 115:bsp/dwt/bsp_dwt.c ****     return DWT_Timelinef32;
 592              		.loc 1 115 5 is_stmt 1 view .LVU132
 116:bsp/dwt/bsp_dwt.c **** }
 593              		.loc 1 116 1 is_stmt 0 view .LVU133
 594 002e 30EE270A 		vadd.f32	s0, s0, s15
 595              	.LVL21:
 596              		.loc 1 116 1 view .LVU134
 597 0032 08BD     		pop	{r3, pc}
 598              	.L33:
 599              		.align	2
 600              	.L32:
 601 0034 00000000 		.word	SysTime
 602 0038 6F12833A 		.word	981668463
 603              		.cfi_endproc
 604              	.LFE363:
 606              		.section	.text.DWT_GetTimeline_us,"ax",%progbits
 607              		.align	1
 608              		.global	DWT_GetTimeline_us
 609              		.syntax unified
 610              		.thumb
 611              		.thumb_func
 613              	DWT_GetTimeline_us:
 614              	.LFB364:
 117:bsp/dwt/bsp_dwt.c **** 
 118:bsp/dwt/bsp_dwt.c **** uint64_t DWT_GetTimeline_us(void)
 119:bsp/dwt/bsp_dwt.c **** {
 615              		.loc 1 119 1 is_stmt 1 view -0
 616              		.cfi_startproc
 617              		@ args = 0, pretend = 0, frame = 0
 618              		@ frame_needed = 0, uses_anonymous_args = 0
 619 0000 08B5     		push	{r3, lr}
 620              	.LCFI18:
 621              		.cfi_def_cfa_offset 8
 622              		.cfi_offset 3, -8
 623              		.cfi_offset 14, -4
 120:bsp/dwt/bsp_dwt.c ****     DWT_SysTimeUpdate();
 624              		.loc 1 120 5 view .LVU136
 625 0002 FFF7FEFF 		bl	DWT_SysTimeUpdate
 626              	.LVL22:
 121:bsp/dwt/bsp_dwt.c **** 
 122:bsp/dwt/bsp_dwt.c ****     uint64_t DWT_Timelinef32 = SysTime.s * 1000000 + SysTime.ms * 1000 + SysTime.us;
 627              		.loc 1 122 5 view .LVU137
 628              		.loc 1 122 39 is_stmt 0 view .LVU138
 629 0006 074A     		ldr	r2, .L36
 630 0008 1168     		ldr	r1, [r2]
 631              		.loc 1 122 61 view .LVU139
 632 000a 9388     		ldrh	r3, [r2, #4]
 633              		.loc 1 122 65 view .LVU140
ARM GAS  C:\Users\ADMINI~1\AppData\Local\Temp\ccQGYun9.s 			page 14


 634 000c 4FF47A70 		mov	r0, #1000
 635 0010 00FB03F3 		mul	r3, r0, r3
 636              		.loc 1 122 52 view .LVU141
 637 0014 0448     		ldr	r0, .L36+4
 638 0016 00FB0133 		mla	r3, r0, r1, r3
 639              		.loc 1 122 81 view .LVU142
 640 001a D088     		ldrh	r0, [r2, #6]
 641              	.LVL23:
 123:bsp/dwt/bsp_dwt.c **** 
 124:bsp/dwt/bsp_dwt.c ****     return DWT_Timelinef32;
 642              		.loc 1 124 5 is_stmt 1 view .LVU143
 125:bsp/dwt/bsp_dwt.c **** }
 643              		.loc 1 125 1 is_stmt 0 view .LVU144
 644 001c 1844     		add	r0, r0, r3
 645              	.LVL24:
 646              		.loc 1 125 1 view .LVU145
 647 001e 0021     		movs	r1, #0
 648 0020 08BD     		pop	{r3, pc}
 649              	.L37:
 650 0022 00BF     		.align	2
 651              	.L36:
 652 0024 00000000 		.word	SysTime
 653 0028 40420F00 		.word	1000000
 654              		.cfi_endproc
 655              	.LFE364:
 657              		.section	.text.DWT_Delay,"ax",%progbits
 658              		.align	1
 659              		.global	DWT_Delay
 660              		.syntax unified
 661              		.thumb
 662              		.thumb_func
 664              	DWT_Delay:
 665              	.LVL25:
 666              	.LFB365:
 126:bsp/dwt/bsp_dwt.c **** 
 127:bsp/dwt/bsp_dwt.c **** void DWT_Delay(float Delay)
 128:bsp/dwt/bsp_dwt.c **** {
 667              		.loc 1 128 1 is_stmt 1 view -0
 668              		.cfi_startproc
 669              		@ args = 0, pretend = 0, frame = 0
 670              		@ frame_needed = 0, uses_anonymous_args = 0
 671              		@ link register save eliminated.
 129:bsp/dwt/bsp_dwt.c ****     uint32_t tickstart = DWT->CYCCNT;
 672              		.loc 1 129 5 view .LVU147
 673              		.loc 1 129 14 is_stmt 0 view .LVU148
 674 0000 0A4B     		ldr	r3, .L40
 675 0002 5968     		ldr	r1, [r3, #4]
 676              	.LVL26:
 130:bsp/dwt/bsp_dwt.c ****     float wait = Delay;
 677              		.loc 1 130 5 is_stmt 1 view .LVU149
 131:bsp/dwt/bsp_dwt.c **** 
 132:bsp/dwt/bsp_dwt.c ****     while ((DWT->CYCCNT - tickstart) < wait * (float)CPU_FREQ_Hz)
 678              		.loc 1 132 5 view .LVU150
 679              	.L39:
 680              		.loc 1 132 38 discriminator 1 view .LVU151
 681              		.loc 1 132 16 is_stmt 0 discriminator 1 view .LVU152
 682 0004 094B     		ldr	r3, .L40
ARM GAS  C:\Users\ADMINI~1\AppData\Local\Temp\ccQGYun9.s 			page 15


 683 0006 5B68     		ldr	r3, [r3, #4]
 684              		.loc 1 132 25 discriminator 1 view .LVU153
 685 0008 5B1A     		subs	r3, r3, r1
 686              		.loc 1 132 47 discriminator 1 view .LVU154
 687 000a 094A     		ldr	r2, .L40+4
 688 000c D2ED007A 		vldr.32	s15, [r2]	@ int
 689 0010 F8EE677A 		vcvt.f32.u32	s15, s15
 690              		.loc 1 132 45 discriminator 1 view .LVU155
 691 0014 67EE807A 		vmul.f32	s15, s15, s0
 692              		.loc 1 132 38 discriminator 1 view .LVU156
 693 0018 07EE103A 		vmov	s14, r3	@ int
 694 001c B8EE477A 		vcvt.f32.u32	s14, s14
 695 0020 B4EEE77A 		vcmpe.f32	s14, s15
 696 0024 F1EE10FA 		vmrs	APSR_nzcv, FPSCR
 697 0028 ECD4     		bmi	.L39
 133:bsp/dwt/bsp_dwt.c ****         ;
 134:bsp/dwt/bsp_dwt.c **** }
 698              		.loc 1 134 1 view .LVU157
 699 002a 7047     		bx	lr
 700              	.L41:
 701              		.align	2
 702              	.L40:
 703 002c 001000E0 		.word	-536866816
 704 0030 00000000 		.word	CPU_FREQ_Hz
 705              		.cfi_endproc
 706              	.LFE365:
 708              		.section	.bss.CNT_TEMP3.0,"aw",%nobits
 709              		.align	3
 712              	CNT_TEMP3.0:
 713 0000 00000000 		.space	8
 713      00000000 
 714              		.section	.bss.CNT_TEMP2.1,"aw",%nobits
 715              		.align	3
 718              	CNT_TEMP2.1:
 719 0000 00000000 		.space	8
 719      00000000 
 720              		.section	.bss.CNT_TEMP1.2,"aw",%nobits
 721              		.align	3
 724              	CNT_TEMP1.2:
 725 0000 00000000 		.space	8
 725      00000000 
 726              		.section	.bss.bit_locker.3,"aw",%nobits
 729              	bit_locker.3:
 730 0000 00       		.space	1
 731              		.section	.bss.CYCCNT64,"aw",%nobits
 732              		.align	3
 735              	CYCCNT64:
 736 0000 00000000 		.space	8
 736      00000000 
 737              		.section	.bss.CYCCNT_LAST,"aw",%nobits
 738              		.align	2
 741              	CYCCNT_LAST:
 742 0000 00000000 		.space	4
 743              		.section	.bss.CYCCNT_RountCount,"aw",%nobits
 744              		.align	2
 747              	CYCCNT_RountCount:
 748 0000 00000000 		.space	4
ARM GAS  C:\Users\ADMINI~1\AppData\Local\Temp\ccQGYun9.s 			page 16


 749              		.section	.bss.CPU_FREQ_Hz_us,"aw",%nobits
 750              		.align	2
 753              	CPU_FREQ_Hz_us:
 754 0000 00000000 		.space	4
 755              		.section	.bss.CPU_FREQ_Hz_ms,"aw",%nobits
 756              		.align	2
 759              	CPU_FREQ_Hz_ms:
 760 0000 00000000 		.space	4
 761              		.section	.bss.CPU_FREQ_Hz,"aw",%nobits
 762              		.align	2
 765              	CPU_FREQ_Hz:
 766 0000 00000000 		.space	4
 767              		.section	.bss.SysTime,"aw",%nobits
 768              		.align	2
 771              	SysTime:
 772 0000 00000000 		.space	8
 772      00000000 
 773              		.text
 774              	.Letext0:
 775              		.file 2 "D:/14.3 rel1/arm-none-eabi/include/machine/_default_types.h"
 776              		.file 3 "D:/14.3 rel1/arm-none-eabi/include/sys/_stdint.h"
 777              		.file 4 "Drivers/CMSIS/Include/core_cm7.h"
 778              		.file 5 "bsp/dwt/bsp_dwt.h"
ARM GAS  C:\Users\ADMINI~1\AppData\Local\Temp\ccQGYun9.s 			page 17

