ARM GAS  C:\Users\ADMINI~1\AppData\Local\Temp\cceMOlfx.s 			page 1


   1              		.cpu cortex-m7
   2              		.arch armv7e-m
   3              		.fpu fpv5-d16
   4              		.eabi_attribute 28, 1
   5              		.eabi_attribute 20, 1
   6              		.eabi_attribute 21, 1
   7              		.eabi_attribute 23, 3
   8              		.eabi_attribute 24, 1
   9              		.eabi_attribute 25, 1
  10              		.eabi_attribute 26, 1
  11              		.eabi_attribute 30, 1
  12              		.eabi_attribute 34, 1
  13              		.eabi_attribute 18, 4
  14              		.file	"stm32h7xx_ll_usb.c"
  15              		.text
  16              	.Ltext0:
  17              		.cfi_sections	.debug_frame
  18              		.file 1 "Drivers/STM32H7xx_HAL_Driver/Src/stm32h7xx_ll_usb.c"
  19              		.section	.text.USB_CoreReset,"ax",%progbits
  20              		.align	1
  21              		.syntax unified
  22              		.thumb
  23              		.thumb_func
  25              	USB_CoreReset:
  26              	.LVL0:
  27              	.LFB384:
   1:Drivers/STM32H7xx_HAL_Driver/Src/stm32h7xx_ll_usb.c **** /**
   2:Drivers/STM32H7xx_HAL_Driver/Src/stm32h7xx_ll_usb.c ****   ******************************************************************************
   3:Drivers/STM32H7xx_HAL_Driver/Src/stm32h7xx_ll_usb.c ****   * @file    stm32h7xx_ll_usb.c
   4:Drivers/STM32H7xx_HAL_Driver/Src/stm32h7xx_ll_usb.c ****   * @author  MCD Application Team
   5:Drivers/STM32H7xx_HAL_Driver/Src/stm32h7xx_ll_usb.c ****   * @brief   USB Low Layer HAL module driver.
   6:Drivers/STM32H7xx_HAL_Driver/Src/stm32h7xx_ll_usb.c ****   *
   7:Drivers/STM32H7xx_HAL_Driver/Src/stm32h7xx_ll_usb.c ****   *          This file provides firmware functions to manage the following
   8:Drivers/STM32H7xx_HAL_Driver/Src/stm32h7xx_ll_usb.c ****   *          functionalities of the USB Peripheral Controller:
   9:Drivers/STM32H7xx_HAL_Driver/Src/stm32h7xx_ll_usb.c ****   *           + Initialization/de-initialization functions
  10:Drivers/STM32H7xx_HAL_Driver/Src/stm32h7xx_ll_usb.c ****   *           + I/O operation functions
  11:Drivers/STM32H7xx_HAL_Driver/Src/stm32h7xx_ll_usb.c ****   *           + Peripheral Control functions
  12:Drivers/STM32H7xx_HAL_Driver/Src/stm32h7xx_ll_usb.c ****   *           + Peripheral State functions
  13:Drivers/STM32H7xx_HAL_Driver/Src/stm32h7xx_ll_usb.c ****   *
  14:Drivers/STM32H7xx_HAL_Driver/Src/stm32h7xx_ll_usb.c ****   ******************************************************************************
  15:Drivers/STM32H7xx_HAL_Driver/Src/stm32h7xx_ll_usb.c ****   * @attention
  16:Drivers/STM32H7xx_HAL_Driver/Src/stm32h7xx_ll_usb.c ****   *
  17:Drivers/STM32H7xx_HAL_Driver/Src/stm32h7xx_ll_usb.c ****   * Copyright (c) 2017 STMicroelectronics.
  18:Drivers/STM32H7xx_HAL_Driver/Src/stm32h7xx_ll_usb.c ****   * All rights reserved.
  19:Drivers/STM32H7xx_HAL_Driver/Src/stm32h7xx_ll_usb.c ****   *
  20:Drivers/STM32H7xx_HAL_Driver/Src/stm32h7xx_ll_usb.c ****   * This software is licensed under terms that can be found in the LICENSE file
  21:Drivers/STM32H7xx_HAL_Driver/Src/stm32h7xx_ll_usb.c ****   * in the root directory of this software component.
  22:Drivers/STM32H7xx_HAL_Driver/Src/stm32h7xx_ll_usb.c ****   * If no LICENSE file comes with this software, it is provided AS-IS.
  23:Drivers/STM32H7xx_HAL_Driver/Src/stm32h7xx_ll_usb.c ****   *
  24:Drivers/STM32H7xx_HAL_Driver/Src/stm32h7xx_ll_usb.c ****   ******************************************************************************
  25:Drivers/STM32H7xx_HAL_Driver/Src/stm32h7xx_ll_usb.c ****   @verbatim
  26:Drivers/STM32H7xx_HAL_Driver/Src/stm32h7xx_ll_usb.c ****   ==============================================================================
  27:Drivers/STM32H7xx_HAL_Driver/Src/stm32h7xx_ll_usb.c ****                     ##### How to use this driver #####
  28:Drivers/STM32H7xx_HAL_Driver/Src/stm32h7xx_ll_usb.c ****   ==============================================================================
  29:Drivers/STM32H7xx_HAL_Driver/Src/stm32h7xx_ll_usb.c ****     [..]
  30:Drivers/STM32H7xx_HAL_Driver/Src/stm32h7xx_ll_usb.c ****       (#) Fill parameters of Init structure in USB_CfgTypeDef structure.
  31:Drivers/STM32H7xx_HAL_Driver/Src/stm32h7xx_ll_usb.c **** 
ARM GAS  C:\Users\ADMINI~1\AppData\Local\Temp\cceMOlfx.s 			page 2


  32:Drivers/STM32H7xx_HAL_Driver/Src/stm32h7xx_ll_usb.c ****       (#) Call USB_CoreInit() API to initialize the USB Core peripheral.
  33:Drivers/STM32H7xx_HAL_Driver/Src/stm32h7xx_ll_usb.c **** 
  34:Drivers/STM32H7xx_HAL_Driver/Src/stm32h7xx_ll_usb.c ****       (#) The upper HAL HCD/PCD driver will call the right routines for its internal processes.
  35:Drivers/STM32H7xx_HAL_Driver/Src/stm32h7xx_ll_usb.c **** 
  36:Drivers/STM32H7xx_HAL_Driver/Src/stm32h7xx_ll_usb.c ****   @endverbatim
  37:Drivers/STM32H7xx_HAL_Driver/Src/stm32h7xx_ll_usb.c **** 
  38:Drivers/STM32H7xx_HAL_Driver/Src/stm32h7xx_ll_usb.c ****   ******************************************************************************
  39:Drivers/STM32H7xx_HAL_Driver/Src/stm32h7xx_ll_usb.c ****   */
  40:Drivers/STM32H7xx_HAL_Driver/Src/stm32h7xx_ll_usb.c **** 
  41:Drivers/STM32H7xx_HAL_Driver/Src/stm32h7xx_ll_usb.c **** /* Includes ------------------------------------------------------------------*/
  42:Drivers/STM32H7xx_HAL_Driver/Src/stm32h7xx_ll_usb.c **** #include "stm32h7xx_hal.h"
  43:Drivers/STM32H7xx_HAL_Driver/Src/stm32h7xx_ll_usb.c **** 
  44:Drivers/STM32H7xx_HAL_Driver/Src/stm32h7xx_ll_usb.c **** /** @addtogroup STM32H7xx_LL_USB_DRIVER
  45:Drivers/STM32H7xx_HAL_Driver/Src/stm32h7xx_ll_usb.c ****   * @{
  46:Drivers/STM32H7xx_HAL_Driver/Src/stm32h7xx_ll_usb.c ****   */
  47:Drivers/STM32H7xx_HAL_Driver/Src/stm32h7xx_ll_usb.c **** 
  48:Drivers/STM32H7xx_HAL_Driver/Src/stm32h7xx_ll_usb.c **** #if defined (HAL_PCD_MODULE_ENABLED) || defined (HAL_HCD_MODULE_ENABLED)
  49:Drivers/STM32H7xx_HAL_Driver/Src/stm32h7xx_ll_usb.c **** #if defined (USB_OTG_FS) || defined (USB_OTG_HS)
  50:Drivers/STM32H7xx_HAL_Driver/Src/stm32h7xx_ll_usb.c **** /* Private typedef -----------------------------------------------------------*/
  51:Drivers/STM32H7xx_HAL_Driver/Src/stm32h7xx_ll_usb.c **** /* Private define ------------------------------------------------------------*/
  52:Drivers/STM32H7xx_HAL_Driver/Src/stm32h7xx_ll_usb.c **** /* Private macro -------------------------------------------------------------*/
  53:Drivers/STM32H7xx_HAL_Driver/Src/stm32h7xx_ll_usb.c **** /* Private variables ---------------------------------------------------------*/
  54:Drivers/STM32H7xx_HAL_Driver/Src/stm32h7xx_ll_usb.c **** /* Private function prototypes -----------------------------------------------*/
  55:Drivers/STM32H7xx_HAL_Driver/Src/stm32h7xx_ll_usb.c **** /* Private functions ---------------------------------------------------------*/
  56:Drivers/STM32H7xx_HAL_Driver/Src/stm32h7xx_ll_usb.c **** #if defined (USB_OTG_FS) || defined (USB_OTG_HS)
  57:Drivers/STM32H7xx_HAL_Driver/Src/stm32h7xx_ll_usb.c **** static HAL_StatusTypeDef USB_CoreReset(USB_OTG_GlobalTypeDef *USBx);
  58:Drivers/STM32H7xx_HAL_Driver/Src/stm32h7xx_ll_usb.c **** 
  59:Drivers/STM32H7xx_HAL_Driver/Src/stm32h7xx_ll_usb.c **** /* Exported functions --------------------------------------------------------*/
  60:Drivers/STM32H7xx_HAL_Driver/Src/stm32h7xx_ll_usb.c **** /** @defgroup USB_LL_Exported_Functions USB Low Layer Exported Functions
  61:Drivers/STM32H7xx_HAL_Driver/Src/stm32h7xx_ll_usb.c ****   * @{
  62:Drivers/STM32H7xx_HAL_Driver/Src/stm32h7xx_ll_usb.c ****   */
  63:Drivers/STM32H7xx_HAL_Driver/Src/stm32h7xx_ll_usb.c **** 
  64:Drivers/STM32H7xx_HAL_Driver/Src/stm32h7xx_ll_usb.c **** /** @defgroup USB_LL_Exported_Functions_Group1 Initialization/de-initialization functions
  65:Drivers/STM32H7xx_HAL_Driver/Src/stm32h7xx_ll_usb.c ****   *  @brief    Initialization and Configuration functions
  66:Drivers/STM32H7xx_HAL_Driver/Src/stm32h7xx_ll_usb.c ****   *
  67:Drivers/STM32H7xx_HAL_Driver/Src/stm32h7xx_ll_usb.c **** @verbatim
  68:Drivers/STM32H7xx_HAL_Driver/Src/stm32h7xx_ll_usb.c ****  ===============================================================================
  69:Drivers/STM32H7xx_HAL_Driver/Src/stm32h7xx_ll_usb.c ****                       ##### Initialization/de-initialization functions #####
  70:Drivers/STM32H7xx_HAL_Driver/Src/stm32h7xx_ll_usb.c ****  ===============================================================================
  71:Drivers/STM32H7xx_HAL_Driver/Src/stm32h7xx_ll_usb.c **** 
  72:Drivers/STM32H7xx_HAL_Driver/Src/stm32h7xx_ll_usb.c **** @endverbatim
  73:Drivers/STM32H7xx_HAL_Driver/Src/stm32h7xx_ll_usb.c ****   * @{
  74:Drivers/STM32H7xx_HAL_Driver/Src/stm32h7xx_ll_usb.c ****   */
  75:Drivers/STM32H7xx_HAL_Driver/Src/stm32h7xx_ll_usb.c **** 
  76:Drivers/STM32H7xx_HAL_Driver/Src/stm32h7xx_ll_usb.c **** /**
  77:Drivers/STM32H7xx_HAL_Driver/Src/stm32h7xx_ll_usb.c ****   * @brief  Initializes the USB Core
  78:Drivers/STM32H7xx_HAL_Driver/Src/stm32h7xx_ll_usb.c ****   * @param  USBx USB Instance
  79:Drivers/STM32H7xx_HAL_Driver/Src/stm32h7xx_ll_usb.c ****   * @param  cfg pointer to a USB_OTG_CfgTypeDef structure that contains
  80:Drivers/STM32H7xx_HAL_Driver/Src/stm32h7xx_ll_usb.c ****   *         the configuration information for the specified USBx peripheral.
  81:Drivers/STM32H7xx_HAL_Driver/Src/stm32h7xx_ll_usb.c ****   * @retval HAL status
  82:Drivers/STM32H7xx_HAL_Driver/Src/stm32h7xx_ll_usb.c ****   */
  83:Drivers/STM32H7xx_HAL_Driver/Src/stm32h7xx_ll_usb.c **** HAL_StatusTypeDef USB_CoreInit(USB_OTG_GlobalTypeDef *USBx, USB_OTG_CfgTypeDef cfg)
  84:Drivers/STM32H7xx_HAL_Driver/Src/stm32h7xx_ll_usb.c **** {
  85:Drivers/STM32H7xx_HAL_Driver/Src/stm32h7xx_ll_usb.c ****   HAL_StatusTypeDef ret;
  86:Drivers/STM32H7xx_HAL_Driver/Src/stm32h7xx_ll_usb.c ****   if (cfg.phy_itface == USB_OTG_ULPI_PHY)
  87:Drivers/STM32H7xx_HAL_Driver/Src/stm32h7xx_ll_usb.c ****   {
  88:Drivers/STM32H7xx_HAL_Driver/Src/stm32h7xx_ll_usb.c ****     USBx->GCCFG &= ~(USB_OTG_GCCFG_PWRDWN);
ARM GAS  C:\Users\ADMINI~1\AppData\Local\Temp\cceMOlfx.s 			page 3


  89:Drivers/STM32H7xx_HAL_Driver/Src/stm32h7xx_ll_usb.c **** 
  90:Drivers/STM32H7xx_HAL_Driver/Src/stm32h7xx_ll_usb.c ****     /* Init The ULPI Interface */
  91:Drivers/STM32H7xx_HAL_Driver/Src/stm32h7xx_ll_usb.c ****     USBx->GUSBCFG &= ~(USB_OTG_GUSBCFG_TSDPS | USB_OTG_GUSBCFG_ULPIFSLS | USB_OTG_GUSBCFG_PHYSEL);
  92:Drivers/STM32H7xx_HAL_Driver/Src/stm32h7xx_ll_usb.c **** 
  93:Drivers/STM32H7xx_HAL_Driver/Src/stm32h7xx_ll_usb.c ****     /* Select vbus source */
  94:Drivers/STM32H7xx_HAL_Driver/Src/stm32h7xx_ll_usb.c ****     USBx->GUSBCFG &= ~(USB_OTG_GUSBCFG_ULPIEVBUSD | USB_OTG_GUSBCFG_ULPIEVBUSI);
  95:Drivers/STM32H7xx_HAL_Driver/Src/stm32h7xx_ll_usb.c ****     if (cfg.use_external_vbus == 1U)
  96:Drivers/STM32H7xx_HAL_Driver/Src/stm32h7xx_ll_usb.c ****     {
  97:Drivers/STM32H7xx_HAL_Driver/Src/stm32h7xx_ll_usb.c ****       USBx->GUSBCFG |= USB_OTG_GUSBCFG_ULPIEVBUSD;
  98:Drivers/STM32H7xx_HAL_Driver/Src/stm32h7xx_ll_usb.c ****     }
  99:Drivers/STM32H7xx_HAL_Driver/Src/stm32h7xx_ll_usb.c **** 
 100:Drivers/STM32H7xx_HAL_Driver/Src/stm32h7xx_ll_usb.c ****     /* Reset after a PHY select */
 101:Drivers/STM32H7xx_HAL_Driver/Src/stm32h7xx_ll_usb.c ****     ret = USB_CoreReset(USBx);
 102:Drivers/STM32H7xx_HAL_Driver/Src/stm32h7xx_ll_usb.c ****   }
 103:Drivers/STM32H7xx_HAL_Driver/Src/stm32h7xx_ll_usb.c ****   else /* FS interface (embedded Phy) */
 104:Drivers/STM32H7xx_HAL_Driver/Src/stm32h7xx_ll_usb.c ****   {
 105:Drivers/STM32H7xx_HAL_Driver/Src/stm32h7xx_ll_usb.c ****     /* Select FS Embedded PHY */
 106:Drivers/STM32H7xx_HAL_Driver/Src/stm32h7xx_ll_usb.c ****     USBx->GUSBCFG |= USB_OTG_GUSBCFG_PHYSEL;
 107:Drivers/STM32H7xx_HAL_Driver/Src/stm32h7xx_ll_usb.c **** 
 108:Drivers/STM32H7xx_HAL_Driver/Src/stm32h7xx_ll_usb.c ****     /* Reset after a PHY select */
 109:Drivers/STM32H7xx_HAL_Driver/Src/stm32h7xx_ll_usb.c ****     ret = USB_CoreReset(USBx);
 110:Drivers/STM32H7xx_HAL_Driver/Src/stm32h7xx_ll_usb.c **** 
 111:Drivers/STM32H7xx_HAL_Driver/Src/stm32h7xx_ll_usb.c ****     if (cfg.battery_charging_enable == 0U)
 112:Drivers/STM32H7xx_HAL_Driver/Src/stm32h7xx_ll_usb.c ****     {
 113:Drivers/STM32H7xx_HAL_Driver/Src/stm32h7xx_ll_usb.c ****       /* Activate the USB Transceiver */
 114:Drivers/STM32H7xx_HAL_Driver/Src/stm32h7xx_ll_usb.c ****       USBx->GCCFG |= USB_OTG_GCCFG_PWRDWN;
 115:Drivers/STM32H7xx_HAL_Driver/Src/stm32h7xx_ll_usb.c ****     }
 116:Drivers/STM32H7xx_HAL_Driver/Src/stm32h7xx_ll_usb.c ****     else
 117:Drivers/STM32H7xx_HAL_Driver/Src/stm32h7xx_ll_usb.c ****     {
 118:Drivers/STM32H7xx_HAL_Driver/Src/stm32h7xx_ll_usb.c ****       /* Deactivate the USB Transceiver */
 119:Drivers/STM32H7xx_HAL_Driver/Src/stm32h7xx_ll_usb.c ****       USBx->GCCFG &= ~(USB_OTG_GCCFG_PWRDWN);
 120:Drivers/STM32H7xx_HAL_Driver/Src/stm32h7xx_ll_usb.c ****     }
 121:Drivers/STM32H7xx_HAL_Driver/Src/stm32h7xx_ll_usb.c ****   }
 122:Drivers/STM32H7xx_HAL_Driver/Src/stm32h7xx_ll_usb.c **** 
 123:Drivers/STM32H7xx_HAL_Driver/Src/stm32h7xx_ll_usb.c ****   if (cfg.dma_enable == 1U)
 124:Drivers/STM32H7xx_HAL_Driver/Src/stm32h7xx_ll_usb.c ****   {
 125:Drivers/STM32H7xx_HAL_Driver/Src/stm32h7xx_ll_usb.c ****     /* make sure to reserve 18 fifo Locations for DMA buffers */
 126:Drivers/STM32H7xx_HAL_Driver/Src/stm32h7xx_ll_usb.c ****     USBx->GDFIFOCFG &= ~(0xFFFFU << 16);
 127:Drivers/STM32H7xx_HAL_Driver/Src/stm32h7xx_ll_usb.c ****     USBx->GDFIFOCFG |= 0x3EEU << 16;
 128:Drivers/STM32H7xx_HAL_Driver/Src/stm32h7xx_ll_usb.c **** 
 129:Drivers/STM32H7xx_HAL_Driver/Src/stm32h7xx_ll_usb.c ****     USBx->GAHBCFG |= USB_OTG_GAHBCFG_HBSTLEN_2;
 130:Drivers/STM32H7xx_HAL_Driver/Src/stm32h7xx_ll_usb.c ****     USBx->GAHBCFG |= USB_OTG_GAHBCFG_DMAEN;
 131:Drivers/STM32H7xx_HAL_Driver/Src/stm32h7xx_ll_usb.c ****   }
 132:Drivers/STM32H7xx_HAL_Driver/Src/stm32h7xx_ll_usb.c **** 
 133:Drivers/STM32H7xx_HAL_Driver/Src/stm32h7xx_ll_usb.c ****   return ret;
 134:Drivers/STM32H7xx_HAL_Driver/Src/stm32h7xx_ll_usb.c **** }
 135:Drivers/STM32H7xx_HAL_Driver/Src/stm32h7xx_ll_usb.c **** 
 136:Drivers/STM32H7xx_HAL_Driver/Src/stm32h7xx_ll_usb.c **** 
 137:Drivers/STM32H7xx_HAL_Driver/Src/stm32h7xx_ll_usb.c **** /**
 138:Drivers/STM32H7xx_HAL_Driver/Src/stm32h7xx_ll_usb.c ****   * @brief  Set the USB turnaround time
 139:Drivers/STM32H7xx_HAL_Driver/Src/stm32h7xx_ll_usb.c ****   * @param  USBx USB Instance
 140:Drivers/STM32H7xx_HAL_Driver/Src/stm32h7xx_ll_usb.c ****   * @param  hclk: AHB clock frequency
 141:Drivers/STM32H7xx_HAL_Driver/Src/stm32h7xx_ll_usb.c ****   * @retval USB turnaround time In PHY Clocks number
 142:Drivers/STM32H7xx_HAL_Driver/Src/stm32h7xx_ll_usb.c ****   */
 143:Drivers/STM32H7xx_HAL_Driver/Src/stm32h7xx_ll_usb.c **** HAL_StatusTypeDef USB_SetTurnaroundTime(USB_OTG_GlobalTypeDef *USBx,
 144:Drivers/STM32H7xx_HAL_Driver/Src/stm32h7xx_ll_usb.c ****                                         uint32_t hclk, uint8_t speed)
 145:Drivers/STM32H7xx_HAL_Driver/Src/stm32h7xx_ll_usb.c **** {
ARM GAS  C:\Users\ADMINI~1\AppData\Local\Temp\cceMOlfx.s 			page 4


 146:Drivers/STM32H7xx_HAL_Driver/Src/stm32h7xx_ll_usb.c ****   uint32_t UsbTrd;
 147:Drivers/STM32H7xx_HAL_Driver/Src/stm32h7xx_ll_usb.c **** 
 148:Drivers/STM32H7xx_HAL_Driver/Src/stm32h7xx_ll_usb.c ****   /* The USBTRD is configured according to the tables below, depending on AHB frequency
 149:Drivers/STM32H7xx_HAL_Driver/Src/stm32h7xx_ll_usb.c ****   used by application. In the low AHB frequency range it is used to stretch enough the USB response
 150:Drivers/STM32H7xx_HAL_Driver/Src/stm32h7xx_ll_usb.c ****   time to IN tokens, the USB turnaround time, so to compensate for the longer AHB read access
 151:Drivers/STM32H7xx_HAL_Driver/Src/stm32h7xx_ll_usb.c ****   latency to the Data FIFO */
 152:Drivers/STM32H7xx_HAL_Driver/Src/stm32h7xx_ll_usb.c ****   if (speed == USBD_FS_SPEED)
 153:Drivers/STM32H7xx_HAL_Driver/Src/stm32h7xx_ll_usb.c ****   {
 154:Drivers/STM32H7xx_HAL_Driver/Src/stm32h7xx_ll_usb.c ****     if ((hclk >= 14200000U) && (hclk < 15000000U))
 155:Drivers/STM32H7xx_HAL_Driver/Src/stm32h7xx_ll_usb.c ****     {
 156:Drivers/STM32H7xx_HAL_Driver/Src/stm32h7xx_ll_usb.c ****       /* hclk Clock Range between 14.2-15 MHz */
 157:Drivers/STM32H7xx_HAL_Driver/Src/stm32h7xx_ll_usb.c ****       UsbTrd = 0xFU;
 158:Drivers/STM32H7xx_HAL_Driver/Src/stm32h7xx_ll_usb.c ****     }
 159:Drivers/STM32H7xx_HAL_Driver/Src/stm32h7xx_ll_usb.c ****     else if ((hclk >= 15000000U) && (hclk < 16000000U))
 160:Drivers/STM32H7xx_HAL_Driver/Src/stm32h7xx_ll_usb.c ****     {
 161:Drivers/STM32H7xx_HAL_Driver/Src/stm32h7xx_ll_usb.c ****       /* hclk Clock Range between 15-16 MHz */
 162:Drivers/STM32H7xx_HAL_Driver/Src/stm32h7xx_ll_usb.c ****       UsbTrd = 0xEU;
 163:Drivers/STM32H7xx_HAL_Driver/Src/stm32h7xx_ll_usb.c ****     }
 164:Drivers/STM32H7xx_HAL_Driver/Src/stm32h7xx_ll_usb.c ****     else if ((hclk >= 16000000U) && (hclk < 17200000U))
 165:Drivers/STM32H7xx_HAL_Driver/Src/stm32h7xx_ll_usb.c ****     {
 166:Drivers/STM32H7xx_HAL_Driver/Src/stm32h7xx_ll_usb.c ****       /* hclk Clock Range between 16-17.2 MHz */
 167:Drivers/STM32H7xx_HAL_Driver/Src/stm32h7xx_ll_usb.c ****       UsbTrd = 0xDU;
 168:Drivers/STM32H7xx_HAL_Driver/Src/stm32h7xx_ll_usb.c ****     }
 169:Drivers/STM32H7xx_HAL_Driver/Src/stm32h7xx_ll_usb.c ****     else if ((hclk >= 17200000U) && (hclk < 18500000U))
 170:Drivers/STM32H7xx_HAL_Driver/Src/stm32h7xx_ll_usb.c ****     {
 171:Drivers/STM32H7xx_HAL_Driver/Src/stm32h7xx_ll_usb.c ****       /* hclk Clock Range between 17.2-18.5 MHz */
 172:Drivers/STM32H7xx_HAL_Driver/Src/stm32h7xx_ll_usb.c ****       UsbTrd = 0xCU;
 173:Drivers/STM32H7xx_HAL_Driver/Src/stm32h7xx_ll_usb.c ****     }
 174:Drivers/STM32H7xx_HAL_Driver/Src/stm32h7xx_ll_usb.c ****     else if ((hclk >= 18500000U) && (hclk < 20000000U))
 175:Drivers/STM32H7xx_HAL_Driver/Src/stm32h7xx_ll_usb.c ****     {
 176:Drivers/STM32H7xx_HAL_Driver/Src/stm32h7xx_ll_usb.c ****       /* hclk Clock Range between 18.5-20 MHz */
 177:Drivers/STM32H7xx_HAL_Driver/Src/stm32h7xx_ll_usb.c ****       UsbTrd = 0xBU;
 178:Drivers/STM32H7xx_HAL_Driver/Src/stm32h7xx_ll_usb.c ****     }
 179:Drivers/STM32H7xx_HAL_Driver/Src/stm32h7xx_ll_usb.c ****     else if ((hclk >= 20000000U) && (hclk < 21800000U))
 180:Drivers/STM32H7xx_HAL_Driver/Src/stm32h7xx_ll_usb.c ****     {
 181:Drivers/STM32H7xx_HAL_Driver/Src/stm32h7xx_ll_usb.c ****       /* hclk Clock Range between 20-21.8 MHz */
 182:Drivers/STM32H7xx_HAL_Driver/Src/stm32h7xx_ll_usb.c ****       UsbTrd = 0xAU;
 183:Drivers/STM32H7xx_HAL_Driver/Src/stm32h7xx_ll_usb.c ****     }
 184:Drivers/STM32H7xx_HAL_Driver/Src/stm32h7xx_ll_usb.c ****     else if ((hclk >= 21800000U) && (hclk < 24000000U))
 185:Drivers/STM32H7xx_HAL_Driver/Src/stm32h7xx_ll_usb.c ****     {
 186:Drivers/STM32H7xx_HAL_Driver/Src/stm32h7xx_ll_usb.c ****       /* hclk Clock Range between 21.8-24 MHz */
 187:Drivers/STM32H7xx_HAL_Driver/Src/stm32h7xx_ll_usb.c ****       UsbTrd = 0x9U;
 188:Drivers/STM32H7xx_HAL_Driver/Src/stm32h7xx_ll_usb.c ****     }
 189:Drivers/STM32H7xx_HAL_Driver/Src/stm32h7xx_ll_usb.c ****     else if ((hclk >= 24000000U) && (hclk < 27700000U))
 190:Drivers/STM32H7xx_HAL_Driver/Src/stm32h7xx_ll_usb.c ****     {
 191:Drivers/STM32H7xx_HAL_Driver/Src/stm32h7xx_ll_usb.c ****       /* hclk Clock Range between 24-27.7 MHz */
 192:Drivers/STM32H7xx_HAL_Driver/Src/stm32h7xx_ll_usb.c ****       UsbTrd = 0x8U;
 193:Drivers/STM32H7xx_HAL_Driver/Src/stm32h7xx_ll_usb.c ****     }
 194:Drivers/STM32H7xx_HAL_Driver/Src/stm32h7xx_ll_usb.c ****     else if ((hclk >= 27700000U) && (hclk < 32000000U))
 195:Drivers/STM32H7xx_HAL_Driver/Src/stm32h7xx_ll_usb.c ****     {
 196:Drivers/STM32H7xx_HAL_Driver/Src/stm32h7xx_ll_usb.c ****       /* hclk Clock Range between 27.7-32 MHz */
 197:Drivers/STM32H7xx_HAL_Driver/Src/stm32h7xx_ll_usb.c ****       UsbTrd = 0x7U;
 198:Drivers/STM32H7xx_HAL_Driver/Src/stm32h7xx_ll_usb.c ****     }
 199:Drivers/STM32H7xx_HAL_Driver/Src/stm32h7xx_ll_usb.c ****     else /* if(hclk >= 32000000) */
 200:Drivers/STM32H7xx_HAL_Driver/Src/stm32h7xx_ll_usb.c ****     {
 201:Drivers/STM32H7xx_HAL_Driver/Src/stm32h7xx_ll_usb.c ****       /* hclk Clock Range between 32-200 MHz */
 202:Drivers/STM32H7xx_HAL_Driver/Src/stm32h7xx_ll_usb.c ****       UsbTrd = 0x6U;
ARM GAS  C:\Users\ADMINI~1\AppData\Local\Temp\cceMOlfx.s 			page 5


 203:Drivers/STM32H7xx_HAL_Driver/Src/stm32h7xx_ll_usb.c ****     }
 204:Drivers/STM32H7xx_HAL_Driver/Src/stm32h7xx_ll_usb.c ****   }
 205:Drivers/STM32H7xx_HAL_Driver/Src/stm32h7xx_ll_usb.c ****   else if (speed == USBD_HS_SPEED)
 206:Drivers/STM32H7xx_HAL_Driver/Src/stm32h7xx_ll_usb.c ****   {
 207:Drivers/STM32H7xx_HAL_Driver/Src/stm32h7xx_ll_usb.c ****     UsbTrd = USBD_HS_TRDT_VALUE;
 208:Drivers/STM32H7xx_HAL_Driver/Src/stm32h7xx_ll_usb.c ****   }
 209:Drivers/STM32H7xx_HAL_Driver/Src/stm32h7xx_ll_usb.c ****   else
 210:Drivers/STM32H7xx_HAL_Driver/Src/stm32h7xx_ll_usb.c ****   {
 211:Drivers/STM32H7xx_HAL_Driver/Src/stm32h7xx_ll_usb.c ****     UsbTrd = USBD_DEFAULT_TRDT_VALUE;
 212:Drivers/STM32H7xx_HAL_Driver/Src/stm32h7xx_ll_usb.c ****   }
 213:Drivers/STM32H7xx_HAL_Driver/Src/stm32h7xx_ll_usb.c **** 
 214:Drivers/STM32H7xx_HAL_Driver/Src/stm32h7xx_ll_usb.c ****   USBx->GUSBCFG &= ~USB_OTG_GUSBCFG_TRDT;
 215:Drivers/STM32H7xx_HAL_Driver/Src/stm32h7xx_ll_usb.c ****   USBx->GUSBCFG |= (uint32_t)((UsbTrd << 10) & USB_OTG_GUSBCFG_TRDT);
 216:Drivers/STM32H7xx_HAL_Driver/Src/stm32h7xx_ll_usb.c **** 
 217:Drivers/STM32H7xx_HAL_Driver/Src/stm32h7xx_ll_usb.c ****   return HAL_OK;
 218:Drivers/STM32H7xx_HAL_Driver/Src/stm32h7xx_ll_usb.c **** }
 219:Drivers/STM32H7xx_HAL_Driver/Src/stm32h7xx_ll_usb.c **** 
 220:Drivers/STM32H7xx_HAL_Driver/Src/stm32h7xx_ll_usb.c **** /**
 221:Drivers/STM32H7xx_HAL_Driver/Src/stm32h7xx_ll_usb.c ****   * @brief  USB_EnableGlobalInt
 222:Drivers/STM32H7xx_HAL_Driver/Src/stm32h7xx_ll_usb.c ****   *         Enables the controller's Global Int in the AHB Config reg
 223:Drivers/STM32H7xx_HAL_Driver/Src/stm32h7xx_ll_usb.c ****   * @param  USBx  Selected device
 224:Drivers/STM32H7xx_HAL_Driver/Src/stm32h7xx_ll_usb.c ****   * @retval HAL status
 225:Drivers/STM32H7xx_HAL_Driver/Src/stm32h7xx_ll_usb.c ****   */
 226:Drivers/STM32H7xx_HAL_Driver/Src/stm32h7xx_ll_usb.c **** HAL_StatusTypeDef USB_EnableGlobalInt(USB_OTG_GlobalTypeDef *USBx)
 227:Drivers/STM32H7xx_HAL_Driver/Src/stm32h7xx_ll_usb.c **** {
 228:Drivers/STM32H7xx_HAL_Driver/Src/stm32h7xx_ll_usb.c ****   USBx->GAHBCFG |= USB_OTG_GAHBCFG_GINT;
 229:Drivers/STM32H7xx_HAL_Driver/Src/stm32h7xx_ll_usb.c ****   return HAL_OK;
 230:Drivers/STM32H7xx_HAL_Driver/Src/stm32h7xx_ll_usb.c **** }
 231:Drivers/STM32H7xx_HAL_Driver/Src/stm32h7xx_ll_usb.c **** 
 232:Drivers/STM32H7xx_HAL_Driver/Src/stm32h7xx_ll_usb.c **** /**
 233:Drivers/STM32H7xx_HAL_Driver/Src/stm32h7xx_ll_usb.c ****   * @brief  USB_DisableGlobalInt
 234:Drivers/STM32H7xx_HAL_Driver/Src/stm32h7xx_ll_usb.c ****   *         Disable the controller's Global Int in the AHB Config reg
 235:Drivers/STM32H7xx_HAL_Driver/Src/stm32h7xx_ll_usb.c ****   * @param  USBx  Selected device
 236:Drivers/STM32H7xx_HAL_Driver/Src/stm32h7xx_ll_usb.c ****   * @retval HAL status
 237:Drivers/STM32H7xx_HAL_Driver/Src/stm32h7xx_ll_usb.c ****   */
 238:Drivers/STM32H7xx_HAL_Driver/Src/stm32h7xx_ll_usb.c **** HAL_StatusTypeDef USB_DisableGlobalInt(USB_OTG_GlobalTypeDef *USBx)
 239:Drivers/STM32H7xx_HAL_Driver/Src/stm32h7xx_ll_usb.c **** {
 240:Drivers/STM32H7xx_HAL_Driver/Src/stm32h7xx_ll_usb.c ****   USBx->GAHBCFG &= ~USB_OTG_GAHBCFG_GINT;
 241:Drivers/STM32H7xx_HAL_Driver/Src/stm32h7xx_ll_usb.c ****   return HAL_OK;
 242:Drivers/STM32H7xx_HAL_Driver/Src/stm32h7xx_ll_usb.c **** }
 243:Drivers/STM32H7xx_HAL_Driver/Src/stm32h7xx_ll_usb.c **** 
 244:Drivers/STM32H7xx_HAL_Driver/Src/stm32h7xx_ll_usb.c **** /**
 245:Drivers/STM32H7xx_HAL_Driver/Src/stm32h7xx_ll_usb.c ****   * @brief  USB_SetCurrentMode Set functional mode
 246:Drivers/STM32H7xx_HAL_Driver/Src/stm32h7xx_ll_usb.c ****   * @param  USBx  Selected device
 247:Drivers/STM32H7xx_HAL_Driver/Src/stm32h7xx_ll_usb.c ****   * @param  mode  current core mode
 248:Drivers/STM32H7xx_HAL_Driver/Src/stm32h7xx_ll_usb.c ****   *          This parameter can be one of these values:
 249:Drivers/STM32H7xx_HAL_Driver/Src/stm32h7xx_ll_usb.c ****   *            @arg USB_DEVICE_MODE Peripheral mode
 250:Drivers/STM32H7xx_HAL_Driver/Src/stm32h7xx_ll_usb.c ****   *            @arg USB_HOST_MODE Host mode
 251:Drivers/STM32H7xx_HAL_Driver/Src/stm32h7xx_ll_usb.c ****   * @retval HAL status
 252:Drivers/STM32H7xx_HAL_Driver/Src/stm32h7xx_ll_usb.c ****   */
 253:Drivers/STM32H7xx_HAL_Driver/Src/stm32h7xx_ll_usb.c **** HAL_StatusTypeDef USB_SetCurrentMode(USB_OTG_GlobalTypeDef *USBx, USB_OTG_ModeTypeDef mode)
 254:Drivers/STM32H7xx_HAL_Driver/Src/stm32h7xx_ll_usb.c **** {
 255:Drivers/STM32H7xx_HAL_Driver/Src/stm32h7xx_ll_usb.c ****   uint32_t ms = 0U;
 256:Drivers/STM32H7xx_HAL_Driver/Src/stm32h7xx_ll_usb.c **** 
 257:Drivers/STM32H7xx_HAL_Driver/Src/stm32h7xx_ll_usb.c ****   USBx->GUSBCFG &= ~(USB_OTG_GUSBCFG_FHMOD | USB_OTG_GUSBCFG_FDMOD);
 258:Drivers/STM32H7xx_HAL_Driver/Src/stm32h7xx_ll_usb.c **** 
 259:Drivers/STM32H7xx_HAL_Driver/Src/stm32h7xx_ll_usb.c ****   if (mode == USB_HOST_MODE)
ARM GAS  C:\Users\ADMINI~1\AppData\Local\Temp\cceMOlfx.s 			page 6


 260:Drivers/STM32H7xx_HAL_Driver/Src/stm32h7xx_ll_usb.c ****   {
 261:Drivers/STM32H7xx_HAL_Driver/Src/stm32h7xx_ll_usb.c ****     USBx->GUSBCFG |= USB_OTG_GUSBCFG_FHMOD;
 262:Drivers/STM32H7xx_HAL_Driver/Src/stm32h7xx_ll_usb.c **** 
 263:Drivers/STM32H7xx_HAL_Driver/Src/stm32h7xx_ll_usb.c ****     do
 264:Drivers/STM32H7xx_HAL_Driver/Src/stm32h7xx_ll_usb.c ****     {
 265:Drivers/STM32H7xx_HAL_Driver/Src/stm32h7xx_ll_usb.c ****       HAL_Delay(10U);
 266:Drivers/STM32H7xx_HAL_Driver/Src/stm32h7xx_ll_usb.c ****       ms += 10U;
 267:Drivers/STM32H7xx_HAL_Driver/Src/stm32h7xx_ll_usb.c ****     } while ((USB_GetMode(USBx) != (uint32_t)USB_HOST_MODE) && (ms < HAL_USB_CURRENT_MODE_MAX_DELAY
 268:Drivers/STM32H7xx_HAL_Driver/Src/stm32h7xx_ll_usb.c ****   }
 269:Drivers/STM32H7xx_HAL_Driver/Src/stm32h7xx_ll_usb.c ****   else if (mode == USB_DEVICE_MODE)
 270:Drivers/STM32H7xx_HAL_Driver/Src/stm32h7xx_ll_usb.c ****   {
 271:Drivers/STM32H7xx_HAL_Driver/Src/stm32h7xx_ll_usb.c ****     USBx->GUSBCFG |= USB_OTG_GUSBCFG_FDMOD;
 272:Drivers/STM32H7xx_HAL_Driver/Src/stm32h7xx_ll_usb.c **** 
 273:Drivers/STM32H7xx_HAL_Driver/Src/stm32h7xx_ll_usb.c ****     do
 274:Drivers/STM32H7xx_HAL_Driver/Src/stm32h7xx_ll_usb.c ****     {
 275:Drivers/STM32H7xx_HAL_Driver/Src/stm32h7xx_ll_usb.c ****       HAL_Delay(10U);
 276:Drivers/STM32H7xx_HAL_Driver/Src/stm32h7xx_ll_usb.c ****       ms += 10U;
 277:Drivers/STM32H7xx_HAL_Driver/Src/stm32h7xx_ll_usb.c ****     } while ((USB_GetMode(USBx) != (uint32_t)USB_DEVICE_MODE) && (ms < HAL_USB_CURRENT_MODE_MAX_DEL
 278:Drivers/STM32H7xx_HAL_Driver/Src/stm32h7xx_ll_usb.c ****   }
 279:Drivers/STM32H7xx_HAL_Driver/Src/stm32h7xx_ll_usb.c ****   else
 280:Drivers/STM32H7xx_HAL_Driver/Src/stm32h7xx_ll_usb.c ****   {
 281:Drivers/STM32H7xx_HAL_Driver/Src/stm32h7xx_ll_usb.c ****     return HAL_ERROR;
 282:Drivers/STM32H7xx_HAL_Driver/Src/stm32h7xx_ll_usb.c ****   }
 283:Drivers/STM32H7xx_HAL_Driver/Src/stm32h7xx_ll_usb.c **** 
 284:Drivers/STM32H7xx_HAL_Driver/Src/stm32h7xx_ll_usb.c ****   if (ms == HAL_USB_CURRENT_MODE_MAX_DELAY_MS)
 285:Drivers/STM32H7xx_HAL_Driver/Src/stm32h7xx_ll_usb.c ****   {
 286:Drivers/STM32H7xx_HAL_Driver/Src/stm32h7xx_ll_usb.c ****     return HAL_ERROR;
 287:Drivers/STM32H7xx_HAL_Driver/Src/stm32h7xx_ll_usb.c ****   }
 288:Drivers/STM32H7xx_HAL_Driver/Src/stm32h7xx_ll_usb.c **** 
 289:Drivers/STM32H7xx_HAL_Driver/Src/stm32h7xx_ll_usb.c ****   return HAL_OK;
 290:Drivers/STM32H7xx_HAL_Driver/Src/stm32h7xx_ll_usb.c **** }
 291:Drivers/STM32H7xx_HAL_Driver/Src/stm32h7xx_ll_usb.c **** 
 292:Drivers/STM32H7xx_HAL_Driver/Src/stm32h7xx_ll_usb.c **** /**
 293:Drivers/STM32H7xx_HAL_Driver/Src/stm32h7xx_ll_usb.c ****   * @brief  USB_DevInit Initializes the USB_OTG controller registers
 294:Drivers/STM32H7xx_HAL_Driver/Src/stm32h7xx_ll_usb.c ****   *         for device mode
 295:Drivers/STM32H7xx_HAL_Driver/Src/stm32h7xx_ll_usb.c ****   * @param  USBx  Selected device
 296:Drivers/STM32H7xx_HAL_Driver/Src/stm32h7xx_ll_usb.c ****   * @param  cfg   pointer to a USB_OTG_CfgTypeDef structure that contains
 297:Drivers/STM32H7xx_HAL_Driver/Src/stm32h7xx_ll_usb.c ****   *         the configuration information for the specified USBx peripheral.
 298:Drivers/STM32H7xx_HAL_Driver/Src/stm32h7xx_ll_usb.c ****   * @retval HAL status
 299:Drivers/STM32H7xx_HAL_Driver/Src/stm32h7xx_ll_usb.c ****   */
 300:Drivers/STM32H7xx_HAL_Driver/Src/stm32h7xx_ll_usb.c **** HAL_StatusTypeDef USB_DevInit(USB_OTG_GlobalTypeDef *USBx, USB_OTG_CfgTypeDef cfg)
 301:Drivers/STM32H7xx_HAL_Driver/Src/stm32h7xx_ll_usb.c **** {
 302:Drivers/STM32H7xx_HAL_Driver/Src/stm32h7xx_ll_usb.c ****   HAL_StatusTypeDef ret = HAL_OK;
 303:Drivers/STM32H7xx_HAL_Driver/Src/stm32h7xx_ll_usb.c ****   uint32_t USBx_BASE = (uint32_t)USBx;
 304:Drivers/STM32H7xx_HAL_Driver/Src/stm32h7xx_ll_usb.c ****   uint32_t i;
 305:Drivers/STM32H7xx_HAL_Driver/Src/stm32h7xx_ll_usb.c **** 
 306:Drivers/STM32H7xx_HAL_Driver/Src/stm32h7xx_ll_usb.c ****   for (i = 0U; i < 15U; i++)
 307:Drivers/STM32H7xx_HAL_Driver/Src/stm32h7xx_ll_usb.c ****   {
 308:Drivers/STM32H7xx_HAL_Driver/Src/stm32h7xx_ll_usb.c ****     USBx->DIEPTXF[i] = 0U;
 309:Drivers/STM32H7xx_HAL_Driver/Src/stm32h7xx_ll_usb.c ****   }
 310:Drivers/STM32H7xx_HAL_Driver/Src/stm32h7xx_ll_usb.c **** 
 311:Drivers/STM32H7xx_HAL_Driver/Src/stm32h7xx_ll_usb.c ****   /* VBUS Sensing setup */
 312:Drivers/STM32H7xx_HAL_Driver/Src/stm32h7xx_ll_usb.c ****   if (cfg.vbus_sensing_enable == 0U)
 313:Drivers/STM32H7xx_HAL_Driver/Src/stm32h7xx_ll_usb.c ****   {
 314:Drivers/STM32H7xx_HAL_Driver/Src/stm32h7xx_ll_usb.c ****     USBx_DEVICE->DCTL |= USB_OTG_DCTL_SDIS;
 315:Drivers/STM32H7xx_HAL_Driver/Src/stm32h7xx_ll_usb.c **** 
 316:Drivers/STM32H7xx_HAL_Driver/Src/stm32h7xx_ll_usb.c ****     /* Deactivate VBUS Sensing B */
ARM GAS  C:\Users\ADMINI~1\AppData\Local\Temp\cceMOlfx.s 			page 7


 317:Drivers/STM32H7xx_HAL_Driver/Src/stm32h7xx_ll_usb.c ****     USBx->GCCFG &= ~USB_OTG_GCCFG_VBDEN;
 318:Drivers/STM32H7xx_HAL_Driver/Src/stm32h7xx_ll_usb.c **** 
 319:Drivers/STM32H7xx_HAL_Driver/Src/stm32h7xx_ll_usb.c ****     /* B-peripheral session valid override enable */
 320:Drivers/STM32H7xx_HAL_Driver/Src/stm32h7xx_ll_usb.c ****     USBx->GOTGCTL |= USB_OTG_GOTGCTL_BVALOEN;
 321:Drivers/STM32H7xx_HAL_Driver/Src/stm32h7xx_ll_usb.c ****     USBx->GOTGCTL |= USB_OTG_GOTGCTL_BVALOVAL;
 322:Drivers/STM32H7xx_HAL_Driver/Src/stm32h7xx_ll_usb.c ****   }
 323:Drivers/STM32H7xx_HAL_Driver/Src/stm32h7xx_ll_usb.c ****   else
 324:Drivers/STM32H7xx_HAL_Driver/Src/stm32h7xx_ll_usb.c ****   {
 325:Drivers/STM32H7xx_HAL_Driver/Src/stm32h7xx_ll_usb.c ****     /* Enable HW VBUS sensing */
 326:Drivers/STM32H7xx_HAL_Driver/Src/stm32h7xx_ll_usb.c ****     USBx->GCCFG |= USB_OTG_GCCFG_VBDEN;
 327:Drivers/STM32H7xx_HAL_Driver/Src/stm32h7xx_ll_usb.c ****   }
 328:Drivers/STM32H7xx_HAL_Driver/Src/stm32h7xx_ll_usb.c **** 
 329:Drivers/STM32H7xx_HAL_Driver/Src/stm32h7xx_ll_usb.c ****   /* Restart the Phy Clock */
 330:Drivers/STM32H7xx_HAL_Driver/Src/stm32h7xx_ll_usb.c ****   USBx_PCGCCTL = 0U;
 331:Drivers/STM32H7xx_HAL_Driver/Src/stm32h7xx_ll_usb.c **** 
 332:Drivers/STM32H7xx_HAL_Driver/Src/stm32h7xx_ll_usb.c ****   if (cfg.phy_itface == USB_OTG_ULPI_PHY)
 333:Drivers/STM32H7xx_HAL_Driver/Src/stm32h7xx_ll_usb.c ****   {
 334:Drivers/STM32H7xx_HAL_Driver/Src/stm32h7xx_ll_usb.c ****     if (cfg.speed == USBD_HS_SPEED)
 335:Drivers/STM32H7xx_HAL_Driver/Src/stm32h7xx_ll_usb.c ****     {
 336:Drivers/STM32H7xx_HAL_Driver/Src/stm32h7xx_ll_usb.c ****       /* Set Core speed to High speed mode */
 337:Drivers/STM32H7xx_HAL_Driver/Src/stm32h7xx_ll_usb.c ****       (void)USB_SetDevSpeed(USBx, USB_OTG_SPEED_HIGH);
 338:Drivers/STM32H7xx_HAL_Driver/Src/stm32h7xx_ll_usb.c ****     }
 339:Drivers/STM32H7xx_HAL_Driver/Src/stm32h7xx_ll_usb.c ****     else
 340:Drivers/STM32H7xx_HAL_Driver/Src/stm32h7xx_ll_usb.c ****     {
 341:Drivers/STM32H7xx_HAL_Driver/Src/stm32h7xx_ll_usb.c ****       /* Set Core speed to Full speed mode */
 342:Drivers/STM32H7xx_HAL_Driver/Src/stm32h7xx_ll_usb.c ****       (void)USB_SetDevSpeed(USBx, USB_OTG_SPEED_HIGH_IN_FULL);
 343:Drivers/STM32H7xx_HAL_Driver/Src/stm32h7xx_ll_usb.c ****     }
 344:Drivers/STM32H7xx_HAL_Driver/Src/stm32h7xx_ll_usb.c ****   }
 345:Drivers/STM32H7xx_HAL_Driver/Src/stm32h7xx_ll_usb.c ****   else
 346:Drivers/STM32H7xx_HAL_Driver/Src/stm32h7xx_ll_usb.c ****   {
 347:Drivers/STM32H7xx_HAL_Driver/Src/stm32h7xx_ll_usb.c ****     /* Set Core speed to Full speed mode */
 348:Drivers/STM32H7xx_HAL_Driver/Src/stm32h7xx_ll_usb.c ****     (void)USB_SetDevSpeed(USBx, USB_OTG_SPEED_FULL);
 349:Drivers/STM32H7xx_HAL_Driver/Src/stm32h7xx_ll_usb.c ****   }
 350:Drivers/STM32H7xx_HAL_Driver/Src/stm32h7xx_ll_usb.c **** 
 351:Drivers/STM32H7xx_HAL_Driver/Src/stm32h7xx_ll_usb.c ****   /* Flush the FIFOs */
 352:Drivers/STM32H7xx_HAL_Driver/Src/stm32h7xx_ll_usb.c ****   if (USB_FlushTxFifo(USBx, 0x10U) != HAL_OK) /* all Tx FIFOs */
 353:Drivers/STM32H7xx_HAL_Driver/Src/stm32h7xx_ll_usb.c ****   {
 354:Drivers/STM32H7xx_HAL_Driver/Src/stm32h7xx_ll_usb.c ****     ret = HAL_ERROR;
 355:Drivers/STM32H7xx_HAL_Driver/Src/stm32h7xx_ll_usb.c ****   }
 356:Drivers/STM32H7xx_HAL_Driver/Src/stm32h7xx_ll_usb.c **** 
 357:Drivers/STM32H7xx_HAL_Driver/Src/stm32h7xx_ll_usb.c ****   if (USB_FlushRxFifo(USBx) != HAL_OK)
 358:Drivers/STM32H7xx_HAL_Driver/Src/stm32h7xx_ll_usb.c ****   {
 359:Drivers/STM32H7xx_HAL_Driver/Src/stm32h7xx_ll_usb.c ****     ret = HAL_ERROR;
 360:Drivers/STM32H7xx_HAL_Driver/Src/stm32h7xx_ll_usb.c ****   }
 361:Drivers/STM32H7xx_HAL_Driver/Src/stm32h7xx_ll_usb.c **** 
 362:Drivers/STM32H7xx_HAL_Driver/Src/stm32h7xx_ll_usb.c ****   /* Clear all pending Device Interrupts */
 363:Drivers/STM32H7xx_HAL_Driver/Src/stm32h7xx_ll_usb.c ****   USBx_DEVICE->DIEPMSK = 0U;
 364:Drivers/STM32H7xx_HAL_Driver/Src/stm32h7xx_ll_usb.c ****   USBx_DEVICE->DOEPMSK = 0U;
 365:Drivers/STM32H7xx_HAL_Driver/Src/stm32h7xx_ll_usb.c ****   USBx_DEVICE->DAINTMSK = 0U;
 366:Drivers/STM32H7xx_HAL_Driver/Src/stm32h7xx_ll_usb.c **** 
 367:Drivers/STM32H7xx_HAL_Driver/Src/stm32h7xx_ll_usb.c ****   for (i = 0U; i < cfg.dev_endpoints; i++)
 368:Drivers/STM32H7xx_HAL_Driver/Src/stm32h7xx_ll_usb.c ****   {
 369:Drivers/STM32H7xx_HAL_Driver/Src/stm32h7xx_ll_usb.c ****     if ((USBx_INEP(i)->DIEPCTL & USB_OTG_DIEPCTL_EPENA) == USB_OTG_DIEPCTL_EPENA)
 370:Drivers/STM32H7xx_HAL_Driver/Src/stm32h7xx_ll_usb.c ****     {
 371:Drivers/STM32H7xx_HAL_Driver/Src/stm32h7xx_ll_usb.c ****       if (i == 0U)
 372:Drivers/STM32H7xx_HAL_Driver/Src/stm32h7xx_ll_usb.c ****       {
 373:Drivers/STM32H7xx_HAL_Driver/Src/stm32h7xx_ll_usb.c ****         USBx_INEP(i)->DIEPCTL = USB_OTG_DIEPCTL_SNAK;
ARM GAS  C:\Users\ADMINI~1\AppData\Local\Temp\cceMOlfx.s 			page 8


 374:Drivers/STM32H7xx_HAL_Driver/Src/stm32h7xx_ll_usb.c ****       }
 375:Drivers/STM32H7xx_HAL_Driver/Src/stm32h7xx_ll_usb.c ****       else
 376:Drivers/STM32H7xx_HAL_Driver/Src/stm32h7xx_ll_usb.c ****       {
 377:Drivers/STM32H7xx_HAL_Driver/Src/stm32h7xx_ll_usb.c ****         USBx_INEP(i)->DIEPCTL = USB_OTG_DIEPCTL_EPDIS | USB_OTG_DIEPCTL_SNAK;
 378:Drivers/STM32H7xx_HAL_Driver/Src/stm32h7xx_ll_usb.c ****       }
 379:Drivers/STM32H7xx_HAL_Driver/Src/stm32h7xx_ll_usb.c ****     }
 380:Drivers/STM32H7xx_HAL_Driver/Src/stm32h7xx_ll_usb.c ****     else
 381:Drivers/STM32H7xx_HAL_Driver/Src/stm32h7xx_ll_usb.c ****     {
 382:Drivers/STM32H7xx_HAL_Driver/Src/stm32h7xx_ll_usb.c ****       USBx_INEP(i)->DIEPCTL = 0U;
 383:Drivers/STM32H7xx_HAL_Driver/Src/stm32h7xx_ll_usb.c ****     }
 384:Drivers/STM32H7xx_HAL_Driver/Src/stm32h7xx_ll_usb.c **** 
 385:Drivers/STM32H7xx_HAL_Driver/Src/stm32h7xx_ll_usb.c ****     USBx_INEP(i)->DIEPTSIZ = 0U;
 386:Drivers/STM32H7xx_HAL_Driver/Src/stm32h7xx_ll_usb.c ****     USBx_INEP(i)->DIEPINT  = 0xFB7FU;
 387:Drivers/STM32H7xx_HAL_Driver/Src/stm32h7xx_ll_usb.c ****   }
 388:Drivers/STM32H7xx_HAL_Driver/Src/stm32h7xx_ll_usb.c **** 
 389:Drivers/STM32H7xx_HAL_Driver/Src/stm32h7xx_ll_usb.c ****   for (i = 0U; i < cfg.dev_endpoints; i++)
 390:Drivers/STM32H7xx_HAL_Driver/Src/stm32h7xx_ll_usb.c ****   {
 391:Drivers/STM32H7xx_HAL_Driver/Src/stm32h7xx_ll_usb.c ****     if ((USBx_OUTEP(i)->DOEPCTL & USB_OTG_DOEPCTL_EPENA) == USB_OTG_DOEPCTL_EPENA)
 392:Drivers/STM32H7xx_HAL_Driver/Src/stm32h7xx_ll_usb.c ****     {
 393:Drivers/STM32H7xx_HAL_Driver/Src/stm32h7xx_ll_usb.c ****       if (i == 0U)
 394:Drivers/STM32H7xx_HAL_Driver/Src/stm32h7xx_ll_usb.c ****       {
 395:Drivers/STM32H7xx_HAL_Driver/Src/stm32h7xx_ll_usb.c ****         USBx_OUTEP(i)->DOEPCTL = USB_OTG_DOEPCTL_SNAK;
 396:Drivers/STM32H7xx_HAL_Driver/Src/stm32h7xx_ll_usb.c ****       }
 397:Drivers/STM32H7xx_HAL_Driver/Src/stm32h7xx_ll_usb.c ****       else
 398:Drivers/STM32H7xx_HAL_Driver/Src/stm32h7xx_ll_usb.c ****       {
 399:Drivers/STM32H7xx_HAL_Driver/Src/stm32h7xx_ll_usb.c ****         USBx_OUTEP(i)->DOEPCTL = USB_OTG_DOEPCTL_EPDIS | USB_OTG_DOEPCTL_SNAK;
 400:Drivers/STM32H7xx_HAL_Driver/Src/stm32h7xx_ll_usb.c ****       }
 401:Drivers/STM32H7xx_HAL_Driver/Src/stm32h7xx_ll_usb.c ****     }
 402:Drivers/STM32H7xx_HAL_Driver/Src/stm32h7xx_ll_usb.c ****     else
 403:Drivers/STM32H7xx_HAL_Driver/Src/stm32h7xx_ll_usb.c ****     {
 404:Drivers/STM32H7xx_HAL_Driver/Src/stm32h7xx_ll_usb.c ****       USBx_OUTEP(i)->DOEPCTL = 0U;
 405:Drivers/STM32H7xx_HAL_Driver/Src/stm32h7xx_ll_usb.c ****     }
 406:Drivers/STM32H7xx_HAL_Driver/Src/stm32h7xx_ll_usb.c **** 
 407:Drivers/STM32H7xx_HAL_Driver/Src/stm32h7xx_ll_usb.c ****     USBx_OUTEP(i)->DOEPTSIZ = 0U;
 408:Drivers/STM32H7xx_HAL_Driver/Src/stm32h7xx_ll_usb.c ****     USBx_OUTEP(i)->DOEPINT  = 0xFB7FU;
 409:Drivers/STM32H7xx_HAL_Driver/Src/stm32h7xx_ll_usb.c ****   }
 410:Drivers/STM32H7xx_HAL_Driver/Src/stm32h7xx_ll_usb.c **** 
 411:Drivers/STM32H7xx_HAL_Driver/Src/stm32h7xx_ll_usb.c ****   USBx_DEVICE->DIEPMSK &= ~(USB_OTG_DIEPMSK_TXFURM);
 412:Drivers/STM32H7xx_HAL_Driver/Src/stm32h7xx_ll_usb.c **** 
 413:Drivers/STM32H7xx_HAL_Driver/Src/stm32h7xx_ll_usb.c ****   /* Disable all interrupts. */
 414:Drivers/STM32H7xx_HAL_Driver/Src/stm32h7xx_ll_usb.c ****   USBx->GINTMSK = 0U;
 415:Drivers/STM32H7xx_HAL_Driver/Src/stm32h7xx_ll_usb.c **** 
 416:Drivers/STM32H7xx_HAL_Driver/Src/stm32h7xx_ll_usb.c ****   /* Clear any pending interrupts */
 417:Drivers/STM32H7xx_HAL_Driver/Src/stm32h7xx_ll_usb.c ****   USBx->GINTSTS = 0xBFFFFFFFU;
 418:Drivers/STM32H7xx_HAL_Driver/Src/stm32h7xx_ll_usb.c **** 
 419:Drivers/STM32H7xx_HAL_Driver/Src/stm32h7xx_ll_usb.c ****   /* Enable the common interrupts */
 420:Drivers/STM32H7xx_HAL_Driver/Src/stm32h7xx_ll_usb.c ****   if (cfg.dma_enable == 0U)
 421:Drivers/STM32H7xx_HAL_Driver/Src/stm32h7xx_ll_usb.c ****   {
 422:Drivers/STM32H7xx_HAL_Driver/Src/stm32h7xx_ll_usb.c ****     USBx->GINTMSK |= USB_OTG_GINTMSK_RXFLVLM;
 423:Drivers/STM32H7xx_HAL_Driver/Src/stm32h7xx_ll_usb.c ****   }
 424:Drivers/STM32H7xx_HAL_Driver/Src/stm32h7xx_ll_usb.c **** 
 425:Drivers/STM32H7xx_HAL_Driver/Src/stm32h7xx_ll_usb.c ****   /* Enable interrupts matching to the Device mode ONLY */
 426:Drivers/STM32H7xx_HAL_Driver/Src/stm32h7xx_ll_usb.c ****   USBx->GINTMSK |= USB_OTG_GINTMSK_USBSUSPM | USB_OTG_GINTMSK_USBRST |
 427:Drivers/STM32H7xx_HAL_Driver/Src/stm32h7xx_ll_usb.c ****                    USB_OTG_GINTMSK_ENUMDNEM | USB_OTG_GINTMSK_IEPINT |
 428:Drivers/STM32H7xx_HAL_Driver/Src/stm32h7xx_ll_usb.c ****                    USB_OTG_GINTMSK_OEPINT   | USB_OTG_GINTMSK_IISOIXFRM |
 429:Drivers/STM32H7xx_HAL_Driver/Src/stm32h7xx_ll_usb.c ****                    USB_OTG_GINTMSK_PXFRM_IISOOXFRM | USB_OTG_GINTMSK_WUIM;
 430:Drivers/STM32H7xx_HAL_Driver/Src/stm32h7xx_ll_usb.c **** 
ARM GAS  C:\Users\ADMINI~1\AppData\Local\Temp\cceMOlfx.s 			page 9


 431:Drivers/STM32H7xx_HAL_Driver/Src/stm32h7xx_ll_usb.c ****   if (cfg.Sof_enable != 0U)
 432:Drivers/STM32H7xx_HAL_Driver/Src/stm32h7xx_ll_usb.c ****   {
 433:Drivers/STM32H7xx_HAL_Driver/Src/stm32h7xx_ll_usb.c ****     USBx->GINTMSK |= USB_OTG_GINTMSK_SOFM;
 434:Drivers/STM32H7xx_HAL_Driver/Src/stm32h7xx_ll_usb.c ****   }
 435:Drivers/STM32H7xx_HAL_Driver/Src/stm32h7xx_ll_usb.c **** 
 436:Drivers/STM32H7xx_HAL_Driver/Src/stm32h7xx_ll_usb.c ****   if (cfg.vbus_sensing_enable == 1U)
 437:Drivers/STM32H7xx_HAL_Driver/Src/stm32h7xx_ll_usb.c ****   {
 438:Drivers/STM32H7xx_HAL_Driver/Src/stm32h7xx_ll_usb.c ****     USBx->GINTMSK |= (USB_OTG_GINTMSK_SRQIM | USB_OTG_GINTMSK_OTGINT);
 439:Drivers/STM32H7xx_HAL_Driver/Src/stm32h7xx_ll_usb.c ****   }
 440:Drivers/STM32H7xx_HAL_Driver/Src/stm32h7xx_ll_usb.c **** 
 441:Drivers/STM32H7xx_HAL_Driver/Src/stm32h7xx_ll_usb.c ****   return ret;
 442:Drivers/STM32H7xx_HAL_Driver/Src/stm32h7xx_ll_usb.c **** }
 443:Drivers/STM32H7xx_HAL_Driver/Src/stm32h7xx_ll_usb.c **** 
 444:Drivers/STM32H7xx_HAL_Driver/Src/stm32h7xx_ll_usb.c **** /**
 445:Drivers/STM32H7xx_HAL_Driver/Src/stm32h7xx_ll_usb.c ****   * @brief  USB_FlushTxFifo Flush a Tx FIFO
 446:Drivers/STM32H7xx_HAL_Driver/Src/stm32h7xx_ll_usb.c ****   * @param  USBx  Selected device
 447:Drivers/STM32H7xx_HAL_Driver/Src/stm32h7xx_ll_usb.c ****   * @param  num  FIFO number
 448:Drivers/STM32H7xx_HAL_Driver/Src/stm32h7xx_ll_usb.c ****   *         This parameter can be a value from 1 to 15
 449:Drivers/STM32H7xx_HAL_Driver/Src/stm32h7xx_ll_usb.c ****             15 means Flush all Tx FIFOs
 450:Drivers/STM32H7xx_HAL_Driver/Src/stm32h7xx_ll_usb.c ****   * @retval HAL status
 451:Drivers/STM32H7xx_HAL_Driver/Src/stm32h7xx_ll_usb.c ****   */
 452:Drivers/STM32H7xx_HAL_Driver/Src/stm32h7xx_ll_usb.c **** HAL_StatusTypeDef USB_FlushTxFifo(USB_OTG_GlobalTypeDef *USBx, uint32_t num)
 453:Drivers/STM32H7xx_HAL_Driver/Src/stm32h7xx_ll_usb.c **** {
 454:Drivers/STM32H7xx_HAL_Driver/Src/stm32h7xx_ll_usb.c ****   __IO uint32_t count = 0U;
 455:Drivers/STM32H7xx_HAL_Driver/Src/stm32h7xx_ll_usb.c **** 
 456:Drivers/STM32H7xx_HAL_Driver/Src/stm32h7xx_ll_usb.c ****   /* Wait for AHB master IDLE state. */
 457:Drivers/STM32H7xx_HAL_Driver/Src/stm32h7xx_ll_usb.c ****   do
 458:Drivers/STM32H7xx_HAL_Driver/Src/stm32h7xx_ll_usb.c ****   {
 459:Drivers/STM32H7xx_HAL_Driver/Src/stm32h7xx_ll_usb.c ****     count++;
 460:Drivers/STM32H7xx_HAL_Driver/Src/stm32h7xx_ll_usb.c **** 
 461:Drivers/STM32H7xx_HAL_Driver/Src/stm32h7xx_ll_usb.c ****     if (count > HAL_USB_TIMEOUT)
 462:Drivers/STM32H7xx_HAL_Driver/Src/stm32h7xx_ll_usb.c ****     {
 463:Drivers/STM32H7xx_HAL_Driver/Src/stm32h7xx_ll_usb.c ****       return HAL_TIMEOUT;
 464:Drivers/STM32H7xx_HAL_Driver/Src/stm32h7xx_ll_usb.c ****     }
 465:Drivers/STM32H7xx_HAL_Driver/Src/stm32h7xx_ll_usb.c ****   } while ((USBx->GRSTCTL & USB_OTG_GRSTCTL_AHBIDL) == 0U);
 466:Drivers/STM32H7xx_HAL_Driver/Src/stm32h7xx_ll_usb.c **** 
 467:Drivers/STM32H7xx_HAL_Driver/Src/stm32h7xx_ll_usb.c ****   /* Flush TX Fifo */
 468:Drivers/STM32H7xx_HAL_Driver/Src/stm32h7xx_ll_usb.c ****   count = 0U;
 469:Drivers/STM32H7xx_HAL_Driver/Src/stm32h7xx_ll_usb.c ****   USBx->GRSTCTL = (USB_OTG_GRSTCTL_TXFFLSH | (num << 6));
 470:Drivers/STM32H7xx_HAL_Driver/Src/stm32h7xx_ll_usb.c **** 
 471:Drivers/STM32H7xx_HAL_Driver/Src/stm32h7xx_ll_usb.c ****   do
 472:Drivers/STM32H7xx_HAL_Driver/Src/stm32h7xx_ll_usb.c ****   {
 473:Drivers/STM32H7xx_HAL_Driver/Src/stm32h7xx_ll_usb.c ****     count++;
 474:Drivers/STM32H7xx_HAL_Driver/Src/stm32h7xx_ll_usb.c **** 
 475:Drivers/STM32H7xx_HAL_Driver/Src/stm32h7xx_ll_usb.c ****     if (count > HAL_USB_TIMEOUT)
 476:Drivers/STM32H7xx_HAL_Driver/Src/stm32h7xx_ll_usb.c ****     {
 477:Drivers/STM32H7xx_HAL_Driver/Src/stm32h7xx_ll_usb.c ****       return HAL_TIMEOUT;
 478:Drivers/STM32H7xx_HAL_Driver/Src/stm32h7xx_ll_usb.c ****     }
 479:Drivers/STM32H7xx_HAL_Driver/Src/stm32h7xx_ll_usb.c ****   } while ((USBx->GRSTCTL & USB_OTG_GRSTCTL_TXFFLSH) == USB_OTG_GRSTCTL_TXFFLSH);
 480:Drivers/STM32H7xx_HAL_Driver/Src/stm32h7xx_ll_usb.c **** 
 481:Drivers/STM32H7xx_HAL_Driver/Src/stm32h7xx_ll_usb.c ****   return HAL_OK;
 482:Drivers/STM32H7xx_HAL_Driver/Src/stm32h7xx_ll_usb.c **** }
 483:Drivers/STM32H7xx_HAL_Driver/Src/stm32h7xx_ll_usb.c **** 
 484:Drivers/STM32H7xx_HAL_Driver/Src/stm32h7xx_ll_usb.c **** /**
 485:Drivers/STM32H7xx_HAL_Driver/Src/stm32h7xx_ll_usb.c ****   * @brief  USB_FlushRxFifo  Flush Rx FIFO
 486:Drivers/STM32H7xx_HAL_Driver/Src/stm32h7xx_ll_usb.c ****   * @param  USBx  Selected device
 487:Drivers/STM32H7xx_HAL_Driver/Src/stm32h7xx_ll_usb.c ****   * @retval HAL status
ARM GAS  C:\Users\ADMINI~1\AppData\Local\Temp\cceMOlfx.s 			page 10


 488:Drivers/STM32H7xx_HAL_Driver/Src/stm32h7xx_ll_usb.c ****   */
 489:Drivers/STM32H7xx_HAL_Driver/Src/stm32h7xx_ll_usb.c **** HAL_StatusTypeDef USB_FlushRxFifo(USB_OTG_GlobalTypeDef *USBx)
 490:Drivers/STM32H7xx_HAL_Driver/Src/stm32h7xx_ll_usb.c **** {
 491:Drivers/STM32H7xx_HAL_Driver/Src/stm32h7xx_ll_usb.c ****   __IO uint32_t count = 0U;
 492:Drivers/STM32H7xx_HAL_Driver/Src/stm32h7xx_ll_usb.c **** 
 493:Drivers/STM32H7xx_HAL_Driver/Src/stm32h7xx_ll_usb.c ****   /* Wait for AHB master IDLE state. */
 494:Drivers/STM32H7xx_HAL_Driver/Src/stm32h7xx_ll_usb.c ****   do
 495:Drivers/STM32H7xx_HAL_Driver/Src/stm32h7xx_ll_usb.c ****   {
 496:Drivers/STM32H7xx_HAL_Driver/Src/stm32h7xx_ll_usb.c ****     count++;
 497:Drivers/STM32H7xx_HAL_Driver/Src/stm32h7xx_ll_usb.c **** 
 498:Drivers/STM32H7xx_HAL_Driver/Src/stm32h7xx_ll_usb.c ****     if (count > HAL_USB_TIMEOUT)
 499:Drivers/STM32H7xx_HAL_Driver/Src/stm32h7xx_ll_usb.c ****     {
 500:Drivers/STM32H7xx_HAL_Driver/Src/stm32h7xx_ll_usb.c ****       return HAL_TIMEOUT;
 501:Drivers/STM32H7xx_HAL_Driver/Src/stm32h7xx_ll_usb.c ****     }
 502:Drivers/STM32H7xx_HAL_Driver/Src/stm32h7xx_ll_usb.c ****   } while ((USBx->GRSTCTL & USB_OTG_GRSTCTL_AHBIDL) == 0U);
 503:Drivers/STM32H7xx_HAL_Driver/Src/stm32h7xx_ll_usb.c **** 
 504:Drivers/STM32H7xx_HAL_Driver/Src/stm32h7xx_ll_usb.c ****   /* Flush RX Fifo */
 505:Drivers/STM32H7xx_HAL_Driver/Src/stm32h7xx_ll_usb.c ****   count = 0U;
 506:Drivers/STM32H7xx_HAL_Driver/Src/stm32h7xx_ll_usb.c ****   USBx->GRSTCTL = USB_OTG_GRSTCTL_RXFFLSH;
 507:Drivers/STM32H7xx_HAL_Driver/Src/stm32h7xx_ll_usb.c **** 
 508:Drivers/STM32H7xx_HAL_Driver/Src/stm32h7xx_ll_usb.c ****   do
 509:Drivers/STM32H7xx_HAL_Driver/Src/stm32h7xx_ll_usb.c ****   {
 510:Drivers/STM32H7xx_HAL_Driver/Src/stm32h7xx_ll_usb.c ****     count++;
 511:Drivers/STM32H7xx_HAL_Driver/Src/stm32h7xx_ll_usb.c **** 
 512:Drivers/STM32H7xx_HAL_Driver/Src/stm32h7xx_ll_usb.c ****     if (count > HAL_USB_TIMEOUT)
 513:Drivers/STM32H7xx_HAL_Driver/Src/stm32h7xx_ll_usb.c ****     {
 514:Drivers/STM32H7xx_HAL_Driver/Src/stm32h7xx_ll_usb.c ****       return HAL_TIMEOUT;
 515:Drivers/STM32H7xx_HAL_Driver/Src/stm32h7xx_ll_usb.c ****     }
 516:Drivers/STM32H7xx_HAL_Driver/Src/stm32h7xx_ll_usb.c ****   } while ((USBx->GRSTCTL & USB_OTG_GRSTCTL_RXFFLSH) == USB_OTG_GRSTCTL_RXFFLSH);
 517:Drivers/STM32H7xx_HAL_Driver/Src/stm32h7xx_ll_usb.c **** 
 518:Drivers/STM32H7xx_HAL_Driver/Src/stm32h7xx_ll_usb.c ****   return HAL_OK;
 519:Drivers/STM32H7xx_HAL_Driver/Src/stm32h7xx_ll_usb.c **** }
 520:Drivers/STM32H7xx_HAL_Driver/Src/stm32h7xx_ll_usb.c **** 
 521:Drivers/STM32H7xx_HAL_Driver/Src/stm32h7xx_ll_usb.c **** /**
 522:Drivers/STM32H7xx_HAL_Driver/Src/stm32h7xx_ll_usb.c ****   * @brief  USB_SetDevSpeed  Initializes the DevSpd field of DCFG register
 523:Drivers/STM32H7xx_HAL_Driver/Src/stm32h7xx_ll_usb.c ****   *         depending the PHY type and the enumeration speed of the device.
 524:Drivers/STM32H7xx_HAL_Driver/Src/stm32h7xx_ll_usb.c ****   * @param  USBx  Selected device
 525:Drivers/STM32H7xx_HAL_Driver/Src/stm32h7xx_ll_usb.c ****   * @param  speed  device speed
 526:Drivers/STM32H7xx_HAL_Driver/Src/stm32h7xx_ll_usb.c ****   *          This parameter can be one of these values:
 527:Drivers/STM32H7xx_HAL_Driver/Src/stm32h7xx_ll_usb.c ****   *            @arg USB_OTG_SPEED_HIGH: High speed mode
 528:Drivers/STM32H7xx_HAL_Driver/Src/stm32h7xx_ll_usb.c ****   *            @arg USB_OTG_SPEED_HIGH_IN_FULL: High speed core in Full Speed mode
 529:Drivers/STM32H7xx_HAL_Driver/Src/stm32h7xx_ll_usb.c ****   *            @arg USB_OTG_SPEED_FULL: Full speed mode
 530:Drivers/STM32H7xx_HAL_Driver/Src/stm32h7xx_ll_usb.c ****   * @retval  Hal status
 531:Drivers/STM32H7xx_HAL_Driver/Src/stm32h7xx_ll_usb.c ****   */
 532:Drivers/STM32H7xx_HAL_Driver/Src/stm32h7xx_ll_usb.c **** HAL_StatusTypeDef USB_SetDevSpeed(const USB_OTG_GlobalTypeDef *USBx, uint8_t speed)
 533:Drivers/STM32H7xx_HAL_Driver/Src/stm32h7xx_ll_usb.c **** {
 534:Drivers/STM32H7xx_HAL_Driver/Src/stm32h7xx_ll_usb.c ****   uint32_t USBx_BASE = (uint32_t)USBx;
 535:Drivers/STM32H7xx_HAL_Driver/Src/stm32h7xx_ll_usb.c **** 
 536:Drivers/STM32H7xx_HAL_Driver/Src/stm32h7xx_ll_usb.c ****   USBx_DEVICE->DCFG |= speed;
 537:Drivers/STM32H7xx_HAL_Driver/Src/stm32h7xx_ll_usb.c ****   return HAL_OK;
 538:Drivers/STM32H7xx_HAL_Driver/Src/stm32h7xx_ll_usb.c **** }
 539:Drivers/STM32H7xx_HAL_Driver/Src/stm32h7xx_ll_usb.c **** 
 540:Drivers/STM32H7xx_HAL_Driver/Src/stm32h7xx_ll_usb.c **** /**
 541:Drivers/STM32H7xx_HAL_Driver/Src/stm32h7xx_ll_usb.c ****   * @brief  USB_GetDevSpeed  Return the Dev Speed
 542:Drivers/STM32H7xx_HAL_Driver/Src/stm32h7xx_ll_usb.c ****   * @param  USBx  Selected device
 543:Drivers/STM32H7xx_HAL_Driver/Src/stm32h7xx_ll_usb.c ****   * @retval speed  device speed
 544:Drivers/STM32H7xx_HAL_Driver/Src/stm32h7xx_ll_usb.c ****   *          This parameter can be one of these values:
ARM GAS  C:\Users\ADMINI~1\AppData\Local\Temp\cceMOlfx.s 			page 11


 545:Drivers/STM32H7xx_HAL_Driver/Src/stm32h7xx_ll_usb.c ****   *            @arg USBD_HS_SPEED: High speed mode
 546:Drivers/STM32H7xx_HAL_Driver/Src/stm32h7xx_ll_usb.c ****   *            @arg USBD_FS_SPEED: Full speed mode
 547:Drivers/STM32H7xx_HAL_Driver/Src/stm32h7xx_ll_usb.c ****   */
 548:Drivers/STM32H7xx_HAL_Driver/Src/stm32h7xx_ll_usb.c **** uint8_t USB_GetDevSpeed(const USB_OTG_GlobalTypeDef *USBx)
 549:Drivers/STM32H7xx_HAL_Driver/Src/stm32h7xx_ll_usb.c **** {
 550:Drivers/STM32H7xx_HAL_Driver/Src/stm32h7xx_ll_usb.c ****   uint32_t USBx_BASE = (uint32_t)USBx;
 551:Drivers/STM32H7xx_HAL_Driver/Src/stm32h7xx_ll_usb.c ****   uint8_t speed;
 552:Drivers/STM32H7xx_HAL_Driver/Src/stm32h7xx_ll_usb.c ****   uint32_t DevEnumSpeed = USBx_DEVICE->DSTS & USB_OTG_DSTS_ENUMSPD;
 553:Drivers/STM32H7xx_HAL_Driver/Src/stm32h7xx_ll_usb.c **** 
 554:Drivers/STM32H7xx_HAL_Driver/Src/stm32h7xx_ll_usb.c ****   if (DevEnumSpeed == DSTS_ENUMSPD_HS_PHY_30MHZ_OR_60MHZ)
 555:Drivers/STM32H7xx_HAL_Driver/Src/stm32h7xx_ll_usb.c ****   {
 556:Drivers/STM32H7xx_HAL_Driver/Src/stm32h7xx_ll_usb.c ****     speed = USBD_HS_SPEED;
 557:Drivers/STM32H7xx_HAL_Driver/Src/stm32h7xx_ll_usb.c ****   }
 558:Drivers/STM32H7xx_HAL_Driver/Src/stm32h7xx_ll_usb.c ****   else if ((DevEnumSpeed == DSTS_ENUMSPD_FS_PHY_30MHZ_OR_60MHZ) ||
 559:Drivers/STM32H7xx_HAL_Driver/Src/stm32h7xx_ll_usb.c ****            (DevEnumSpeed == DSTS_ENUMSPD_FS_PHY_48MHZ))
 560:Drivers/STM32H7xx_HAL_Driver/Src/stm32h7xx_ll_usb.c ****   {
 561:Drivers/STM32H7xx_HAL_Driver/Src/stm32h7xx_ll_usb.c ****     speed = USBD_FS_SPEED;
 562:Drivers/STM32H7xx_HAL_Driver/Src/stm32h7xx_ll_usb.c ****   }
 563:Drivers/STM32H7xx_HAL_Driver/Src/stm32h7xx_ll_usb.c ****   else
 564:Drivers/STM32H7xx_HAL_Driver/Src/stm32h7xx_ll_usb.c ****   {
 565:Drivers/STM32H7xx_HAL_Driver/Src/stm32h7xx_ll_usb.c ****     speed = 0xFU;
 566:Drivers/STM32H7xx_HAL_Driver/Src/stm32h7xx_ll_usb.c ****   }
 567:Drivers/STM32H7xx_HAL_Driver/Src/stm32h7xx_ll_usb.c **** 
 568:Drivers/STM32H7xx_HAL_Driver/Src/stm32h7xx_ll_usb.c ****   return speed;
 569:Drivers/STM32H7xx_HAL_Driver/Src/stm32h7xx_ll_usb.c **** }
 570:Drivers/STM32H7xx_HAL_Driver/Src/stm32h7xx_ll_usb.c **** 
 571:Drivers/STM32H7xx_HAL_Driver/Src/stm32h7xx_ll_usb.c **** /**
 572:Drivers/STM32H7xx_HAL_Driver/Src/stm32h7xx_ll_usb.c ****   * @brief  Activate and configure an endpoint
 573:Drivers/STM32H7xx_HAL_Driver/Src/stm32h7xx_ll_usb.c ****   * @param  USBx  Selected device
 574:Drivers/STM32H7xx_HAL_Driver/Src/stm32h7xx_ll_usb.c ****   * @param  ep pointer to endpoint structure
 575:Drivers/STM32H7xx_HAL_Driver/Src/stm32h7xx_ll_usb.c ****   * @retval HAL status
 576:Drivers/STM32H7xx_HAL_Driver/Src/stm32h7xx_ll_usb.c ****   */
 577:Drivers/STM32H7xx_HAL_Driver/Src/stm32h7xx_ll_usb.c **** HAL_StatusTypeDef USB_ActivateEndpoint(const USB_OTG_GlobalTypeDef *USBx, const USB_OTG_EPTypeDef *
 578:Drivers/STM32H7xx_HAL_Driver/Src/stm32h7xx_ll_usb.c **** {
 579:Drivers/STM32H7xx_HAL_Driver/Src/stm32h7xx_ll_usb.c ****   uint32_t USBx_BASE = (uint32_t)USBx;
 580:Drivers/STM32H7xx_HAL_Driver/Src/stm32h7xx_ll_usb.c ****   uint32_t epnum = (uint32_t)ep->num;
 581:Drivers/STM32H7xx_HAL_Driver/Src/stm32h7xx_ll_usb.c **** 
 582:Drivers/STM32H7xx_HAL_Driver/Src/stm32h7xx_ll_usb.c ****   if (ep->is_in == 1U)
 583:Drivers/STM32H7xx_HAL_Driver/Src/stm32h7xx_ll_usb.c ****   {
 584:Drivers/STM32H7xx_HAL_Driver/Src/stm32h7xx_ll_usb.c ****     USBx_DEVICE->DAINTMSK |= USB_OTG_DAINTMSK_IEPM & (uint32_t)(1UL << (ep->num & EP_ADDR_MSK));
 585:Drivers/STM32H7xx_HAL_Driver/Src/stm32h7xx_ll_usb.c **** 
 586:Drivers/STM32H7xx_HAL_Driver/Src/stm32h7xx_ll_usb.c ****     if ((USBx_INEP(epnum)->DIEPCTL & USB_OTG_DIEPCTL_USBAEP) == 0U)
 587:Drivers/STM32H7xx_HAL_Driver/Src/stm32h7xx_ll_usb.c ****     {
 588:Drivers/STM32H7xx_HAL_Driver/Src/stm32h7xx_ll_usb.c ****       USBx_INEP(epnum)->DIEPCTL |= (ep->maxpacket & USB_OTG_DIEPCTL_MPSIZ) |
 589:Drivers/STM32H7xx_HAL_Driver/Src/stm32h7xx_ll_usb.c ****                                    ((uint32_t)ep->type << 18) | (epnum << 22) |
 590:Drivers/STM32H7xx_HAL_Driver/Src/stm32h7xx_ll_usb.c ****                                    USB_OTG_DIEPCTL_SD0PID_SEVNFRM |
 591:Drivers/STM32H7xx_HAL_Driver/Src/stm32h7xx_ll_usb.c ****                                    USB_OTG_DIEPCTL_USBAEP;
 592:Drivers/STM32H7xx_HAL_Driver/Src/stm32h7xx_ll_usb.c ****     }
 593:Drivers/STM32H7xx_HAL_Driver/Src/stm32h7xx_ll_usb.c ****   }
 594:Drivers/STM32H7xx_HAL_Driver/Src/stm32h7xx_ll_usb.c ****   else
 595:Drivers/STM32H7xx_HAL_Driver/Src/stm32h7xx_ll_usb.c ****   {
 596:Drivers/STM32H7xx_HAL_Driver/Src/stm32h7xx_ll_usb.c ****     USBx_DEVICE->DAINTMSK |= USB_OTG_DAINTMSK_OEPM & ((uint32_t)(1UL << (ep->num & EP_ADDR_MSK)) <<
 597:Drivers/STM32H7xx_HAL_Driver/Src/stm32h7xx_ll_usb.c **** 
 598:Drivers/STM32H7xx_HAL_Driver/Src/stm32h7xx_ll_usb.c ****     if (((USBx_OUTEP(epnum)->DOEPCTL) & USB_OTG_DOEPCTL_USBAEP) == 0U)
 599:Drivers/STM32H7xx_HAL_Driver/Src/stm32h7xx_ll_usb.c ****     {
 600:Drivers/STM32H7xx_HAL_Driver/Src/stm32h7xx_ll_usb.c ****       USBx_OUTEP(epnum)->DOEPCTL |= (ep->maxpacket & USB_OTG_DOEPCTL_MPSIZ) |
 601:Drivers/STM32H7xx_HAL_Driver/Src/stm32h7xx_ll_usb.c ****                                     ((uint32_t)ep->type << 18) |
ARM GAS  C:\Users\ADMINI~1\AppData\Local\Temp\cceMOlfx.s 			page 12


 602:Drivers/STM32H7xx_HAL_Driver/Src/stm32h7xx_ll_usb.c ****                                     USB_OTG_DIEPCTL_SD0PID_SEVNFRM |
 603:Drivers/STM32H7xx_HAL_Driver/Src/stm32h7xx_ll_usb.c ****                                     USB_OTG_DOEPCTL_USBAEP;
 604:Drivers/STM32H7xx_HAL_Driver/Src/stm32h7xx_ll_usb.c ****     }
 605:Drivers/STM32H7xx_HAL_Driver/Src/stm32h7xx_ll_usb.c ****   }
 606:Drivers/STM32H7xx_HAL_Driver/Src/stm32h7xx_ll_usb.c ****   return HAL_OK;
 607:Drivers/STM32H7xx_HAL_Driver/Src/stm32h7xx_ll_usb.c **** }
 608:Drivers/STM32H7xx_HAL_Driver/Src/stm32h7xx_ll_usb.c **** 
 609:Drivers/STM32H7xx_HAL_Driver/Src/stm32h7xx_ll_usb.c **** /**
 610:Drivers/STM32H7xx_HAL_Driver/Src/stm32h7xx_ll_usb.c ****   * @brief  Activate and configure a dedicated endpoint
 611:Drivers/STM32H7xx_HAL_Driver/Src/stm32h7xx_ll_usb.c ****   * @param  USBx  Selected device
 612:Drivers/STM32H7xx_HAL_Driver/Src/stm32h7xx_ll_usb.c ****   * @param  ep pointer to endpoint structure
 613:Drivers/STM32H7xx_HAL_Driver/Src/stm32h7xx_ll_usb.c ****   * @retval HAL status
 614:Drivers/STM32H7xx_HAL_Driver/Src/stm32h7xx_ll_usb.c ****   */
 615:Drivers/STM32H7xx_HAL_Driver/Src/stm32h7xx_ll_usb.c **** HAL_StatusTypeDef USB_ActivateDedicatedEndpoint(const USB_OTG_GlobalTypeDef *USBx, const USB_OTG_EP
 616:Drivers/STM32H7xx_HAL_Driver/Src/stm32h7xx_ll_usb.c **** {
 617:Drivers/STM32H7xx_HAL_Driver/Src/stm32h7xx_ll_usb.c ****   uint32_t USBx_BASE = (uint32_t)USBx;
 618:Drivers/STM32H7xx_HAL_Driver/Src/stm32h7xx_ll_usb.c ****   uint32_t epnum = (uint32_t)ep->num;
 619:Drivers/STM32H7xx_HAL_Driver/Src/stm32h7xx_ll_usb.c **** 
 620:Drivers/STM32H7xx_HAL_Driver/Src/stm32h7xx_ll_usb.c ****   /* Read DEPCTLn register */
 621:Drivers/STM32H7xx_HAL_Driver/Src/stm32h7xx_ll_usb.c ****   if (ep->is_in == 1U)
 622:Drivers/STM32H7xx_HAL_Driver/Src/stm32h7xx_ll_usb.c ****   {
 623:Drivers/STM32H7xx_HAL_Driver/Src/stm32h7xx_ll_usb.c ****     if (((USBx_INEP(epnum)->DIEPCTL) & USB_OTG_DIEPCTL_USBAEP) == 0U)
 624:Drivers/STM32H7xx_HAL_Driver/Src/stm32h7xx_ll_usb.c ****     {
 625:Drivers/STM32H7xx_HAL_Driver/Src/stm32h7xx_ll_usb.c ****       USBx_INEP(epnum)->DIEPCTL |= (ep->maxpacket & USB_OTG_DIEPCTL_MPSIZ) |
 626:Drivers/STM32H7xx_HAL_Driver/Src/stm32h7xx_ll_usb.c ****                                    ((uint32_t)ep->type << 18) | (epnum << 22) |
 627:Drivers/STM32H7xx_HAL_Driver/Src/stm32h7xx_ll_usb.c ****                                    USB_OTG_DIEPCTL_SD0PID_SEVNFRM |
 628:Drivers/STM32H7xx_HAL_Driver/Src/stm32h7xx_ll_usb.c ****                                    USB_OTG_DIEPCTL_USBAEP;
 629:Drivers/STM32H7xx_HAL_Driver/Src/stm32h7xx_ll_usb.c ****     }
 630:Drivers/STM32H7xx_HAL_Driver/Src/stm32h7xx_ll_usb.c **** 
 631:Drivers/STM32H7xx_HAL_Driver/Src/stm32h7xx_ll_usb.c ****     USBx_DEVICE->DEACHMSK |= USB_OTG_DAINTMSK_IEPM & (uint32_t)(1UL << (ep->num & EP_ADDR_MSK));
 632:Drivers/STM32H7xx_HAL_Driver/Src/stm32h7xx_ll_usb.c ****   }
 633:Drivers/STM32H7xx_HAL_Driver/Src/stm32h7xx_ll_usb.c ****   else
 634:Drivers/STM32H7xx_HAL_Driver/Src/stm32h7xx_ll_usb.c ****   {
 635:Drivers/STM32H7xx_HAL_Driver/Src/stm32h7xx_ll_usb.c ****     if (((USBx_OUTEP(epnum)->DOEPCTL) & USB_OTG_DOEPCTL_USBAEP) == 0U)
 636:Drivers/STM32H7xx_HAL_Driver/Src/stm32h7xx_ll_usb.c ****     {
 637:Drivers/STM32H7xx_HAL_Driver/Src/stm32h7xx_ll_usb.c ****       USBx_OUTEP(epnum)->DOEPCTL |= (ep->maxpacket & USB_OTG_DOEPCTL_MPSIZ) |
 638:Drivers/STM32H7xx_HAL_Driver/Src/stm32h7xx_ll_usb.c ****                                     ((uint32_t)ep->type << 18) | (epnum << 22) |
 639:Drivers/STM32H7xx_HAL_Driver/Src/stm32h7xx_ll_usb.c ****                                     USB_OTG_DOEPCTL_USBAEP;
 640:Drivers/STM32H7xx_HAL_Driver/Src/stm32h7xx_ll_usb.c ****     }
 641:Drivers/STM32H7xx_HAL_Driver/Src/stm32h7xx_ll_usb.c **** 
 642:Drivers/STM32H7xx_HAL_Driver/Src/stm32h7xx_ll_usb.c ****     USBx_DEVICE->DEACHMSK |= USB_OTG_DAINTMSK_OEPM & ((uint32_t)(1UL << (ep->num & EP_ADDR_MSK)) <<
 643:Drivers/STM32H7xx_HAL_Driver/Src/stm32h7xx_ll_usb.c ****   }
 644:Drivers/STM32H7xx_HAL_Driver/Src/stm32h7xx_ll_usb.c **** 
 645:Drivers/STM32H7xx_HAL_Driver/Src/stm32h7xx_ll_usb.c ****   return HAL_OK;
 646:Drivers/STM32H7xx_HAL_Driver/Src/stm32h7xx_ll_usb.c **** }
 647:Drivers/STM32H7xx_HAL_Driver/Src/stm32h7xx_ll_usb.c **** 
 648:Drivers/STM32H7xx_HAL_Driver/Src/stm32h7xx_ll_usb.c **** /**
 649:Drivers/STM32H7xx_HAL_Driver/Src/stm32h7xx_ll_usb.c ****   * @brief  De-activate and de-initialize an endpoint
 650:Drivers/STM32H7xx_HAL_Driver/Src/stm32h7xx_ll_usb.c ****   * @param  USBx  Selected device
 651:Drivers/STM32H7xx_HAL_Driver/Src/stm32h7xx_ll_usb.c ****   * @param  ep pointer to endpoint structure
 652:Drivers/STM32H7xx_HAL_Driver/Src/stm32h7xx_ll_usb.c ****   * @retval HAL status
 653:Drivers/STM32H7xx_HAL_Driver/Src/stm32h7xx_ll_usb.c ****   */
 654:Drivers/STM32H7xx_HAL_Driver/Src/stm32h7xx_ll_usb.c **** HAL_StatusTypeDef USB_DeactivateEndpoint(const USB_OTG_GlobalTypeDef *USBx, const USB_OTG_EPTypeDef
 655:Drivers/STM32H7xx_HAL_Driver/Src/stm32h7xx_ll_usb.c **** {
 656:Drivers/STM32H7xx_HAL_Driver/Src/stm32h7xx_ll_usb.c ****   uint32_t USBx_BASE = (uint32_t)USBx;
 657:Drivers/STM32H7xx_HAL_Driver/Src/stm32h7xx_ll_usb.c ****   uint32_t epnum = (uint32_t)ep->num;
 658:Drivers/STM32H7xx_HAL_Driver/Src/stm32h7xx_ll_usb.c **** 
ARM GAS  C:\Users\ADMINI~1\AppData\Local\Temp\cceMOlfx.s 			page 13


 659:Drivers/STM32H7xx_HAL_Driver/Src/stm32h7xx_ll_usb.c ****   /* Read DEPCTLn register */
 660:Drivers/STM32H7xx_HAL_Driver/Src/stm32h7xx_ll_usb.c ****   if (ep->is_in == 1U)
 661:Drivers/STM32H7xx_HAL_Driver/Src/stm32h7xx_ll_usb.c ****   {
 662:Drivers/STM32H7xx_HAL_Driver/Src/stm32h7xx_ll_usb.c ****     if ((USBx_INEP(epnum)->DIEPCTL & USB_OTG_DIEPCTL_EPENA) == USB_OTG_DIEPCTL_EPENA)
 663:Drivers/STM32H7xx_HAL_Driver/Src/stm32h7xx_ll_usb.c ****     {
 664:Drivers/STM32H7xx_HAL_Driver/Src/stm32h7xx_ll_usb.c ****       USBx_INEP(epnum)->DIEPCTL |= USB_OTG_DIEPCTL_SNAK;
 665:Drivers/STM32H7xx_HAL_Driver/Src/stm32h7xx_ll_usb.c ****       USBx_INEP(epnum)->DIEPCTL |= USB_OTG_DIEPCTL_EPDIS;
 666:Drivers/STM32H7xx_HAL_Driver/Src/stm32h7xx_ll_usb.c ****     }
 667:Drivers/STM32H7xx_HAL_Driver/Src/stm32h7xx_ll_usb.c **** 
 668:Drivers/STM32H7xx_HAL_Driver/Src/stm32h7xx_ll_usb.c ****     USBx_DEVICE->DEACHMSK &= ~(USB_OTG_DAINTMSK_IEPM & (uint32_t)(1UL << (ep->num & EP_ADDR_MSK)));
 669:Drivers/STM32H7xx_HAL_Driver/Src/stm32h7xx_ll_usb.c ****     USBx_DEVICE->DAINTMSK &= ~(USB_OTG_DAINTMSK_IEPM & (uint32_t)(1UL << (ep->num & EP_ADDR_MSK)));
 670:Drivers/STM32H7xx_HAL_Driver/Src/stm32h7xx_ll_usb.c ****     USBx_INEP(epnum)->DIEPCTL &= ~(USB_OTG_DIEPCTL_USBAEP |
 671:Drivers/STM32H7xx_HAL_Driver/Src/stm32h7xx_ll_usb.c ****                                    USB_OTG_DIEPCTL_MPSIZ |
 672:Drivers/STM32H7xx_HAL_Driver/Src/stm32h7xx_ll_usb.c ****                                    USB_OTG_DIEPCTL_TXFNUM |
 673:Drivers/STM32H7xx_HAL_Driver/Src/stm32h7xx_ll_usb.c ****                                    USB_OTG_DIEPCTL_SD0PID_SEVNFRM |
 674:Drivers/STM32H7xx_HAL_Driver/Src/stm32h7xx_ll_usb.c ****                                    USB_OTG_DIEPCTL_EPTYP);
 675:Drivers/STM32H7xx_HAL_Driver/Src/stm32h7xx_ll_usb.c ****   }
 676:Drivers/STM32H7xx_HAL_Driver/Src/stm32h7xx_ll_usb.c ****   else
 677:Drivers/STM32H7xx_HAL_Driver/Src/stm32h7xx_ll_usb.c ****   {
 678:Drivers/STM32H7xx_HAL_Driver/Src/stm32h7xx_ll_usb.c ****     if ((USBx_OUTEP(epnum)->DOEPCTL & USB_OTG_DOEPCTL_EPENA) == USB_OTG_DOEPCTL_EPENA)
 679:Drivers/STM32H7xx_HAL_Driver/Src/stm32h7xx_ll_usb.c ****     {
 680:Drivers/STM32H7xx_HAL_Driver/Src/stm32h7xx_ll_usb.c ****       USBx_OUTEP(epnum)->DOEPCTL |= USB_OTG_DOEPCTL_SNAK;
 681:Drivers/STM32H7xx_HAL_Driver/Src/stm32h7xx_ll_usb.c ****       USBx_OUTEP(epnum)->DOEPCTL |= USB_OTG_DOEPCTL_EPDIS;
 682:Drivers/STM32H7xx_HAL_Driver/Src/stm32h7xx_ll_usb.c ****     }
 683:Drivers/STM32H7xx_HAL_Driver/Src/stm32h7xx_ll_usb.c **** 
 684:Drivers/STM32H7xx_HAL_Driver/Src/stm32h7xx_ll_usb.c ****     USBx_DEVICE->DEACHMSK &= ~(USB_OTG_DAINTMSK_OEPM & ((uint32_t)(1UL << (ep->num & EP_ADDR_MSK)) 
 685:Drivers/STM32H7xx_HAL_Driver/Src/stm32h7xx_ll_usb.c ****     USBx_DEVICE->DAINTMSK &= ~(USB_OTG_DAINTMSK_OEPM & ((uint32_t)(1UL << (ep->num & EP_ADDR_MSK)) 
 686:Drivers/STM32H7xx_HAL_Driver/Src/stm32h7xx_ll_usb.c ****     USBx_OUTEP(epnum)->DOEPCTL &= ~(USB_OTG_DOEPCTL_USBAEP |
 687:Drivers/STM32H7xx_HAL_Driver/Src/stm32h7xx_ll_usb.c ****                                     USB_OTG_DOEPCTL_MPSIZ |
 688:Drivers/STM32H7xx_HAL_Driver/Src/stm32h7xx_ll_usb.c ****                                     USB_OTG_DOEPCTL_SD0PID_SEVNFRM |
 689:Drivers/STM32H7xx_HAL_Driver/Src/stm32h7xx_ll_usb.c ****                                     USB_OTG_DOEPCTL_EPTYP);
 690:Drivers/STM32H7xx_HAL_Driver/Src/stm32h7xx_ll_usb.c ****   }
 691:Drivers/STM32H7xx_HAL_Driver/Src/stm32h7xx_ll_usb.c **** 
 692:Drivers/STM32H7xx_HAL_Driver/Src/stm32h7xx_ll_usb.c ****   return HAL_OK;
 693:Drivers/STM32H7xx_HAL_Driver/Src/stm32h7xx_ll_usb.c **** }
 694:Drivers/STM32H7xx_HAL_Driver/Src/stm32h7xx_ll_usb.c **** 
 695:Drivers/STM32H7xx_HAL_Driver/Src/stm32h7xx_ll_usb.c **** /**
 696:Drivers/STM32H7xx_HAL_Driver/Src/stm32h7xx_ll_usb.c ****   * @brief  De-activate and de-initialize a dedicated endpoint
 697:Drivers/STM32H7xx_HAL_Driver/Src/stm32h7xx_ll_usb.c ****   * @param  USBx  Selected device
 698:Drivers/STM32H7xx_HAL_Driver/Src/stm32h7xx_ll_usb.c ****   * @param  ep pointer to endpoint structure
 699:Drivers/STM32H7xx_HAL_Driver/Src/stm32h7xx_ll_usb.c ****   * @retval HAL status
 700:Drivers/STM32H7xx_HAL_Driver/Src/stm32h7xx_ll_usb.c ****   */
 701:Drivers/STM32H7xx_HAL_Driver/Src/stm32h7xx_ll_usb.c **** HAL_StatusTypeDef USB_DeactivateDedicatedEndpoint(const USB_OTG_GlobalTypeDef *USBx, const USB_OTG_
 702:Drivers/STM32H7xx_HAL_Driver/Src/stm32h7xx_ll_usb.c **** {
 703:Drivers/STM32H7xx_HAL_Driver/Src/stm32h7xx_ll_usb.c ****   uint32_t USBx_BASE = (uint32_t)USBx;
 704:Drivers/STM32H7xx_HAL_Driver/Src/stm32h7xx_ll_usb.c ****   uint32_t epnum = (uint32_t)ep->num;
 705:Drivers/STM32H7xx_HAL_Driver/Src/stm32h7xx_ll_usb.c **** 
 706:Drivers/STM32H7xx_HAL_Driver/Src/stm32h7xx_ll_usb.c ****   /* Read DEPCTLn register */
 707:Drivers/STM32H7xx_HAL_Driver/Src/stm32h7xx_ll_usb.c ****   if (ep->is_in == 1U)
 708:Drivers/STM32H7xx_HAL_Driver/Src/stm32h7xx_ll_usb.c ****   {
 709:Drivers/STM32H7xx_HAL_Driver/Src/stm32h7xx_ll_usb.c ****     if ((USBx_INEP(epnum)->DIEPCTL & USB_OTG_DIEPCTL_EPENA) == USB_OTG_DIEPCTL_EPENA)
 710:Drivers/STM32H7xx_HAL_Driver/Src/stm32h7xx_ll_usb.c ****     {
 711:Drivers/STM32H7xx_HAL_Driver/Src/stm32h7xx_ll_usb.c ****       USBx_INEP(epnum)->DIEPCTL  |= USB_OTG_DIEPCTL_SNAK;
 712:Drivers/STM32H7xx_HAL_Driver/Src/stm32h7xx_ll_usb.c ****       USBx_INEP(epnum)->DIEPCTL  |= USB_OTG_DIEPCTL_EPDIS;
 713:Drivers/STM32H7xx_HAL_Driver/Src/stm32h7xx_ll_usb.c ****     }
 714:Drivers/STM32H7xx_HAL_Driver/Src/stm32h7xx_ll_usb.c **** 
 715:Drivers/STM32H7xx_HAL_Driver/Src/stm32h7xx_ll_usb.c ****     USBx_INEP(epnum)->DIEPCTL &= ~ USB_OTG_DIEPCTL_USBAEP;
ARM GAS  C:\Users\ADMINI~1\AppData\Local\Temp\cceMOlfx.s 			page 14


 716:Drivers/STM32H7xx_HAL_Driver/Src/stm32h7xx_ll_usb.c ****     USBx_DEVICE->DAINTMSK &= ~(USB_OTG_DAINTMSK_IEPM & (uint32_t)(1UL << (ep->num & EP_ADDR_MSK)));
 717:Drivers/STM32H7xx_HAL_Driver/Src/stm32h7xx_ll_usb.c ****   }
 718:Drivers/STM32H7xx_HAL_Driver/Src/stm32h7xx_ll_usb.c ****   else
 719:Drivers/STM32H7xx_HAL_Driver/Src/stm32h7xx_ll_usb.c ****   {
 720:Drivers/STM32H7xx_HAL_Driver/Src/stm32h7xx_ll_usb.c ****     if ((USBx_OUTEP(epnum)->DOEPCTL & USB_OTG_DOEPCTL_EPENA) == USB_OTG_DOEPCTL_EPENA)
 721:Drivers/STM32H7xx_HAL_Driver/Src/stm32h7xx_ll_usb.c ****     {
 722:Drivers/STM32H7xx_HAL_Driver/Src/stm32h7xx_ll_usb.c ****       USBx_OUTEP(epnum)->DOEPCTL  |= USB_OTG_DOEPCTL_SNAK;
 723:Drivers/STM32H7xx_HAL_Driver/Src/stm32h7xx_ll_usb.c ****       USBx_OUTEP(epnum)->DOEPCTL  |= USB_OTG_DOEPCTL_EPDIS;
 724:Drivers/STM32H7xx_HAL_Driver/Src/stm32h7xx_ll_usb.c ****     }
 725:Drivers/STM32H7xx_HAL_Driver/Src/stm32h7xx_ll_usb.c **** 
 726:Drivers/STM32H7xx_HAL_Driver/Src/stm32h7xx_ll_usb.c ****     USBx_OUTEP(epnum)->DOEPCTL &= ~USB_OTG_DOEPCTL_USBAEP;
 727:Drivers/STM32H7xx_HAL_Driver/Src/stm32h7xx_ll_usb.c ****     USBx_DEVICE->DAINTMSK &= ~(USB_OTG_DAINTMSK_OEPM & ((uint32_t)(1UL << (ep->num & EP_ADDR_MSK)) 
 728:Drivers/STM32H7xx_HAL_Driver/Src/stm32h7xx_ll_usb.c ****   }
 729:Drivers/STM32H7xx_HAL_Driver/Src/stm32h7xx_ll_usb.c **** 
 730:Drivers/STM32H7xx_HAL_Driver/Src/stm32h7xx_ll_usb.c ****   return HAL_OK;
 731:Drivers/STM32H7xx_HAL_Driver/Src/stm32h7xx_ll_usb.c **** }
 732:Drivers/STM32H7xx_HAL_Driver/Src/stm32h7xx_ll_usb.c **** 
 733:Drivers/STM32H7xx_HAL_Driver/Src/stm32h7xx_ll_usb.c **** /**
 734:Drivers/STM32H7xx_HAL_Driver/Src/stm32h7xx_ll_usb.c ****   * @brief  USB_EPStartXfer : setup and starts a transfer over an EP
 735:Drivers/STM32H7xx_HAL_Driver/Src/stm32h7xx_ll_usb.c ****   * @param  USBx  Selected device
 736:Drivers/STM32H7xx_HAL_Driver/Src/stm32h7xx_ll_usb.c ****   * @param  ep pointer to endpoint structure
 737:Drivers/STM32H7xx_HAL_Driver/Src/stm32h7xx_ll_usb.c ****   * @param  dma USB dma enabled or disabled
 738:Drivers/STM32H7xx_HAL_Driver/Src/stm32h7xx_ll_usb.c ****   *          This parameter can be one of these values:
 739:Drivers/STM32H7xx_HAL_Driver/Src/stm32h7xx_ll_usb.c ****   *           0 : DMA feature not used
 740:Drivers/STM32H7xx_HAL_Driver/Src/stm32h7xx_ll_usb.c ****   *           1 : DMA feature used
 741:Drivers/STM32H7xx_HAL_Driver/Src/stm32h7xx_ll_usb.c ****   * @retval HAL status
 742:Drivers/STM32H7xx_HAL_Driver/Src/stm32h7xx_ll_usb.c ****   */
 743:Drivers/STM32H7xx_HAL_Driver/Src/stm32h7xx_ll_usb.c **** HAL_StatusTypeDef USB_EPStartXfer(USB_OTG_GlobalTypeDef *USBx, USB_OTG_EPTypeDef *ep, uint8_t dma)
 744:Drivers/STM32H7xx_HAL_Driver/Src/stm32h7xx_ll_usb.c **** {
 745:Drivers/STM32H7xx_HAL_Driver/Src/stm32h7xx_ll_usb.c ****   uint32_t USBx_BASE = (uint32_t)USBx;
 746:Drivers/STM32H7xx_HAL_Driver/Src/stm32h7xx_ll_usb.c ****   uint32_t epnum = (uint32_t)ep->num;
 747:Drivers/STM32H7xx_HAL_Driver/Src/stm32h7xx_ll_usb.c ****   uint16_t pktcnt;
 748:Drivers/STM32H7xx_HAL_Driver/Src/stm32h7xx_ll_usb.c **** 
 749:Drivers/STM32H7xx_HAL_Driver/Src/stm32h7xx_ll_usb.c ****   /* IN endpoint */
 750:Drivers/STM32H7xx_HAL_Driver/Src/stm32h7xx_ll_usb.c ****   if (ep->is_in == 1U)
 751:Drivers/STM32H7xx_HAL_Driver/Src/stm32h7xx_ll_usb.c ****   {
 752:Drivers/STM32H7xx_HAL_Driver/Src/stm32h7xx_ll_usb.c ****     /* Zero Length Packet? */
 753:Drivers/STM32H7xx_HAL_Driver/Src/stm32h7xx_ll_usb.c ****     if (ep->xfer_len == 0U)
 754:Drivers/STM32H7xx_HAL_Driver/Src/stm32h7xx_ll_usb.c ****     {
 755:Drivers/STM32H7xx_HAL_Driver/Src/stm32h7xx_ll_usb.c ****       USBx_INEP(epnum)->DIEPTSIZ &= ~(USB_OTG_DIEPTSIZ_PKTCNT);
 756:Drivers/STM32H7xx_HAL_Driver/Src/stm32h7xx_ll_usb.c ****       USBx_INEP(epnum)->DIEPTSIZ |= (USB_OTG_DIEPTSIZ_PKTCNT & (1U << 19));
 757:Drivers/STM32H7xx_HAL_Driver/Src/stm32h7xx_ll_usb.c ****       USBx_INEP(epnum)->DIEPTSIZ &= ~(USB_OTG_DIEPTSIZ_XFRSIZ);
 758:Drivers/STM32H7xx_HAL_Driver/Src/stm32h7xx_ll_usb.c ****     }
 759:Drivers/STM32H7xx_HAL_Driver/Src/stm32h7xx_ll_usb.c ****     else
 760:Drivers/STM32H7xx_HAL_Driver/Src/stm32h7xx_ll_usb.c ****     {
 761:Drivers/STM32H7xx_HAL_Driver/Src/stm32h7xx_ll_usb.c ****       /* Program the transfer size and packet count
 762:Drivers/STM32H7xx_HAL_Driver/Src/stm32h7xx_ll_usb.c ****       * as follows: xfersize = N * maxpacket +
 763:Drivers/STM32H7xx_HAL_Driver/Src/stm32h7xx_ll_usb.c ****       * short_packet pktcnt = N + (short_packet
 764:Drivers/STM32H7xx_HAL_Driver/Src/stm32h7xx_ll_usb.c ****       * exist ? 1 : 0)
 765:Drivers/STM32H7xx_HAL_Driver/Src/stm32h7xx_ll_usb.c ****       */
 766:Drivers/STM32H7xx_HAL_Driver/Src/stm32h7xx_ll_usb.c ****       USBx_INEP(epnum)->DIEPTSIZ &= ~(USB_OTG_DIEPTSIZ_XFRSIZ);
 767:Drivers/STM32H7xx_HAL_Driver/Src/stm32h7xx_ll_usb.c ****       USBx_INEP(epnum)->DIEPTSIZ &= ~(USB_OTG_DIEPTSIZ_PKTCNT);
 768:Drivers/STM32H7xx_HAL_Driver/Src/stm32h7xx_ll_usb.c **** 
 769:Drivers/STM32H7xx_HAL_Driver/Src/stm32h7xx_ll_usb.c ****       if (epnum == 0U)
 770:Drivers/STM32H7xx_HAL_Driver/Src/stm32h7xx_ll_usb.c ****       {
 771:Drivers/STM32H7xx_HAL_Driver/Src/stm32h7xx_ll_usb.c ****         if (ep->xfer_len > ep->maxpacket)
 772:Drivers/STM32H7xx_HAL_Driver/Src/stm32h7xx_ll_usb.c ****         {
ARM GAS  C:\Users\ADMINI~1\AppData\Local\Temp\cceMOlfx.s 			page 15


 773:Drivers/STM32H7xx_HAL_Driver/Src/stm32h7xx_ll_usb.c ****           ep->xfer_len = ep->maxpacket;
 774:Drivers/STM32H7xx_HAL_Driver/Src/stm32h7xx_ll_usb.c ****         }
 775:Drivers/STM32H7xx_HAL_Driver/Src/stm32h7xx_ll_usb.c **** 
 776:Drivers/STM32H7xx_HAL_Driver/Src/stm32h7xx_ll_usb.c ****         USBx_INEP(epnum)->DIEPTSIZ |= (USB_OTG_DIEPTSIZ_PKTCNT & (1U << 19));
 777:Drivers/STM32H7xx_HAL_Driver/Src/stm32h7xx_ll_usb.c ****       }
 778:Drivers/STM32H7xx_HAL_Driver/Src/stm32h7xx_ll_usb.c ****       else
 779:Drivers/STM32H7xx_HAL_Driver/Src/stm32h7xx_ll_usb.c ****       {
 780:Drivers/STM32H7xx_HAL_Driver/Src/stm32h7xx_ll_usb.c ****         pktcnt = (uint16_t)((ep->xfer_len + ep->maxpacket - 1U) / ep->maxpacket);
 781:Drivers/STM32H7xx_HAL_Driver/Src/stm32h7xx_ll_usb.c ****         USBx_INEP(epnum)->DIEPTSIZ |= (USB_OTG_DIEPTSIZ_PKTCNT & ((uint32_t)pktcnt << 19));
 782:Drivers/STM32H7xx_HAL_Driver/Src/stm32h7xx_ll_usb.c **** 
 783:Drivers/STM32H7xx_HAL_Driver/Src/stm32h7xx_ll_usb.c ****         if (ep->type == EP_TYPE_ISOC)
 784:Drivers/STM32H7xx_HAL_Driver/Src/stm32h7xx_ll_usb.c ****         {
 785:Drivers/STM32H7xx_HAL_Driver/Src/stm32h7xx_ll_usb.c ****           USBx_INEP(epnum)->DIEPTSIZ &= ~(USB_OTG_DIEPTSIZ_MULCNT);
 786:Drivers/STM32H7xx_HAL_Driver/Src/stm32h7xx_ll_usb.c ****           USBx_INEP(epnum)->DIEPTSIZ |= (USB_OTG_DIEPTSIZ_MULCNT & ((uint32_t)pktcnt << 29));
 787:Drivers/STM32H7xx_HAL_Driver/Src/stm32h7xx_ll_usb.c ****         }
 788:Drivers/STM32H7xx_HAL_Driver/Src/stm32h7xx_ll_usb.c ****       }
 789:Drivers/STM32H7xx_HAL_Driver/Src/stm32h7xx_ll_usb.c **** 
 790:Drivers/STM32H7xx_HAL_Driver/Src/stm32h7xx_ll_usb.c ****       USBx_INEP(epnum)->DIEPTSIZ |= (USB_OTG_DIEPTSIZ_XFRSIZ & ep->xfer_len);
 791:Drivers/STM32H7xx_HAL_Driver/Src/stm32h7xx_ll_usb.c ****     }
 792:Drivers/STM32H7xx_HAL_Driver/Src/stm32h7xx_ll_usb.c **** 
 793:Drivers/STM32H7xx_HAL_Driver/Src/stm32h7xx_ll_usb.c ****     if (dma == 1U)
 794:Drivers/STM32H7xx_HAL_Driver/Src/stm32h7xx_ll_usb.c ****     {
 795:Drivers/STM32H7xx_HAL_Driver/Src/stm32h7xx_ll_usb.c ****       if ((uint32_t)ep->dma_addr != 0U)
 796:Drivers/STM32H7xx_HAL_Driver/Src/stm32h7xx_ll_usb.c ****       {
 797:Drivers/STM32H7xx_HAL_Driver/Src/stm32h7xx_ll_usb.c ****         USBx_INEP(epnum)->DIEPDMA = (uint32_t)(ep->dma_addr);
 798:Drivers/STM32H7xx_HAL_Driver/Src/stm32h7xx_ll_usb.c ****       }
 799:Drivers/STM32H7xx_HAL_Driver/Src/stm32h7xx_ll_usb.c **** 
 800:Drivers/STM32H7xx_HAL_Driver/Src/stm32h7xx_ll_usb.c ****       if (ep->type == EP_TYPE_ISOC)
 801:Drivers/STM32H7xx_HAL_Driver/Src/stm32h7xx_ll_usb.c ****       {
 802:Drivers/STM32H7xx_HAL_Driver/Src/stm32h7xx_ll_usb.c ****         if ((USBx_DEVICE->DSTS & (1U << 8)) == 0U)
 803:Drivers/STM32H7xx_HAL_Driver/Src/stm32h7xx_ll_usb.c ****         {
 804:Drivers/STM32H7xx_HAL_Driver/Src/stm32h7xx_ll_usb.c ****           USBx_INEP(epnum)->DIEPCTL |= USB_OTG_DIEPCTL_SODDFRM;
 805:Drivers/STM32H7xx_HAL_Driver/Src/stm32h7xx_ll_usb.c ****         }
 806:Drivers/STM32H7xx_HAL_Driver/Src/stm32h7xx_ll_usb.c ****         else
 807:Drivers/STM32H7xx_HAL_Driver/Src/stm32h7xx_ll_usb.c ****         {
 808:Drivers/STM32H7xx_HAL_Driver/Src/stm32h7xx_ll_usb.c ****           USBx_INEP(epnum)->DIEPCTL |= USB_OTG_DIEPCTL_SD0PID_SEVNFRM;
 809:Drivers/STM32H7xx_HAL_Driver/Src/stm32h7xx_ll_usb.c ****         }
 810:Drivers/STM32H7xx_HAL_Driver/Src/stm32h7xx_ll_usb.c ****       }
 811:Drivers/STM32H7xx_HAL_Driver/Src/stm32h7xx_ll_usb.c **** 
 812:Drivers/STM32H7xx_HAL_Driver/Src/stm32h7xx_ll_usb.c ****       /* EP enable, IN data in FIFO */
 813:Drivers/STM32H7xx_HAL_Driver/Src/stm32h7xx_ll_usb.c ****       USBx_INEP(epnum)->DIEPCTL |= (USB_OTG_DIEPCTL_CNAK | USB_OTG_DIEPCTL_EPENA);
 814:Drivers/STM32H7xx_HAL_Driver/Src/stm32h7xx_ll_usb.c ****     }
 815:Drivers/STM32H7xx_HAL_Driver/Src/stm32h7xx_ll_usb.c ****     else
 816:Drivers/STM32H7xx_HAL_Driver/Src/stm32h7xx_ll_usb.c ****     {
 817:Drivers/STM32H7xx_HAL_Driver/Src/stm32h7xx_ll_usb.c ****       /* EP enable, IN data in FIFO */
 818:Drivers/STM32H7xx_HAL_Driver/Src/stm32h7xx_ll_usb.c ****       USBx_INEP(epnum)->DIEPCTL |= (USB_OTG_DIEPCTL_CNAK | USB_OTG_DIEPCTL_EPENA);
 819:Drivers/STM32H7xx_HAL_Driver/Src/stm32h7xx_ll_usb.c **** 
 820:Drivers/STM32H7xx_HAL_Driver/Src/stm32h7xx_ll_usb.c ****       if (ep->type != EP_TYPE_ISOC)
 821:Drivers/STM32H7xx_HAL_Driver/Src/stm32h7xx_ll_usb.c ****       {
 822:Drivers/STM32H7xx_HAL_Driver/Src/stm32h7xx_ll_usb.c ****         /* Enable the Tx FIFO Empty Interrupt for this EP */
 823:Drivers/STM32H7xx_HAL_Driver/Src/stm32h7xx_ll_usb.c ****         if (ep->xfer_len > 0U)
 824:Drivers/STM32H7xx_HAL_Driver/Src/stm32h7xx_ll_usb.c ****         {
 825:Drivers/STM32H7xx_HAL_Driver/Src/stm32h7xx_ll_usb.c ****           USBx_DEVICE->DIEPEMPMSK |= 1UL << (ep->num & EP_ADDR_MSK);
 826:Drivers/STM32H7xx_HAL_Driver/Src/stm32h7xx_ll_usb.c ****         }
 827:Drivers/STM32H7xx_HAL_Driver/Src/stm32h7xx_ll_usb.c ****       }
 828:Drivers/STM32H7xx_HAL_Driver/Src/stm32h7xx_ll_usb.c ****       else
 829:Drivers/STM32H7xx_HAL_Driver/Src/stm32h7xx_ll_usb.c ****       {
ARM GAS  C:\Users\ADMINI~1\AppData\Local\Temp\cceMOlfx.s 			page 16


 830:Drivers/STM32H7xx_HAL_Driver/Src/stm32h7xx_ll_usb.c ****         if ((USBx_DEVICE->DSTS & (1U << 8)) == 0U)
 831:Drivers/STM32H7xx_HAL_Driver/Src/stm32h7xx_ll_usb.c ****         {
 832:Drivers/STM32H7xx_HAL_Driver/Src/stm32h7xx_ll_usb.c ****           USBx_INEP(epnum)->DIEPCTL |= USB_OTG_DIEPCTL_SODDFRM;
 833:Drivers/STM32H7xx_HAL_Driver/Src/stm32h7xx_ll_usb.c ****         }
 834:Drivers/STM32H7xx_HAL_Driver/Src/stm32h7xx_ll_usb.c ****         else
 835:Drivers/STM32H7xx_HAL_Driver/Src/stm32h7xx_ll_usb.c ****         {
 836:Drivers/STM32H7xx_HAL_Driver/Src/stm32h7xx_ll_usb.c ****           USBx_INEP(epnum)->DIEPCTL |= USB_OTG_DIEPCTL_SD0PID_SEVNFRM;
 837:Drivers/STM32H7xx_HAL_Driver/Src/stm32h7xx_ll_usb.c ****         }
 838:Drivers/STM32H7xx_HAL_Driver/Src/stm32h7xx_ll_usb.c **** 
 839:Drivers/STM32H7xx_HAL_Driver/Src/stm32h7xx_ll_usb.c ****         (void)USB_WritePacket(USBx, ep->xfer_buff, ep->num, (uint16_t)ep->xfer_len, dma);
 840:Drivers/STM32H7xx_HAL_Driver/Src/stm32h7xx_ll_usb.c ****       }
 841:Drivers/STM32H7xx_HAL_Driver/Src/stm32h7xx_ll_usb.c ****     }
 842:Drivers/STM32H7xx_HAL_Driver/Src/stm32h7xx_ll_usb.c ****   }
 843:Drivers/STM32H7xx_HAL_Driver/Src/stm32h7xx_ll_usb.c ****   else /* OUT endpoint */
 844:Drivers/STM32H7xx_HAL_Driver/Src/stm32h7xx_ll_usb.c ****   {
 845:Drivers/STM32H7xx_HAL_Driver/Src/stm32h7xx_ll_usb.c ****     /* Program the transfer size and packet count as follows:
 846:Drivers/STM32H7xx_HAL_Driver/Src/stm32h7xx_ll_usb.c ****     * pktcnt = N
 847:Drivers/STM32H7xx_HAL_Driver/Src/stm32h7xx_ll_usb.c ****     * xfersize = N * maxpacket
 848:Drivers/STM32H7xx_HAL_Driver/Src/stm32h7xx_ll_usb.c ****     */
 849:Drivers/STM32H7xx_HAL_Driver/Src/stm32h7xx_ll_usb.c ****     USBx_OUTEP(epnum)->DOEPTSIZ &= ~(USB_OTG_DOEPTSIZ_XFRSIZ);
 850:Drivers/STM32H7xx_HAL_Driver/Src/stm32h7xx_ll_usb.c ****     USBx_OUTEP(epnum)->DOEPTSIZ &= ~(USB_OTG_DOEPTSIZ_PKTCNT);
 851:Drivers/STM32H7xx_HAL_Driver/Src/stm32h7xx_ll_usb.c **** 
 852:Drivers/STM32H7xx_HAL_Driver/Src/stm32h7xx_ll_usb.c ****     if (epnum == 0U)
 853:Drivers/STM32H7xx_HAL_Driver/Src/stm32h7xx_ll_usb.c ****     {
 854:Drivers/STM32H7xx_HAL_Driver/Src/stm32h7xx_ll_usb.c ****       if (ep->xfer_len > 0U)
 855:Drivers/STM32H7xx_HAL_Driver/Src/stm32h7xx_ll_usb.c ****       {
 856:Drivers/STM32H7xx_HAL_Driver/Src/stm32h7xx_ll_usb.c ****         ep->xfer_len = ep->maxpacket;
 857:Drivers/STM32H7xx_HAL_Driver/Src/stm32h7xx_ll_usb.c ****       }
 858:Drivers/STM32H7xx_HAL_Driver/Src/stm32h7xx_ll_usb.c **** 
 859:Drivers/STM32H7xx_HAL_Driver/Src/stm32h7xx_ll_usb.c ****       /* Store transfer size, for EP0 this is equal to endpoint max packet size */
 860:Drivers/STM32H7xx_HAL_Driver/Src/stm32h7xx_ll_usb.c ****       ep->xfer_size = ep->maxpacket;
 861:Drivers/STM32H7xx_HAL_Driver/Src/stm32h7xx_ll_usb.c **** 
 862:Drivers/STM32H7xx_HAL_Driver/Src/stm32h7xx_ll_usb.c ****       USBx_OUTEP(epnum)->DOEPTSIZ |= (USB_OTG_DOEPTSIZ_XFRSIZ & ep->xfer_size);
 863:Drivers/STM32H7xx_HAL_Driver/Src/stm32h7xx_ll_usb.c ****       USBx_OUTEP(epnum)->DOEPTSIZ |= (USB_OTG_DOEPTSIZ_PKTCNT & (1U << 19));
 864:Drivers/STM32H7xx_HAL_Driver/Src/stm32h7xx_ll_usb.c ****     }
 865:Drivers/STM32H7xx_HAL_Driver/Src/stm32h7xx_ll_usb.c ****     else
 866:Drivers/STM32H7xx_HAL_Driver/Src/stm32h7xx_ll_usb.c ****     {
 867:Drivers/STM32H7xx_HAL_Driver/Src/stm32h7xx_ll_usb.c ****       if (ep->xfer_len == 0U)
 868:Drivers/STM32H7xx_HAL_Driver/Src/stm32h7xx_ll_usb.c ****       {
 869:Drivers/STM32H7xx_HAL_Driver/Src/stm32h7xx_ll_usb.c ****         USBx_OUTEP(epnum)->DOEPTSIZ |= (USB_OTG_DOEPTSIZ_XFRSIZ & ep->maxpacket);
 870:Drivers/STM32H7xx_HAL_Driver/Src/stm32h7xx_ll_usb.c ****         USBx_OUTEP(epnum)->DOEPTSIZ |= (USB_OTG_DOEPTSIZ_PKTCNT & (1U << 19));
 871:Drivers/STM32H7xx_HAL_Driver/Src/stm32h7xx_ll_usb.c ****       }
 872:Drivers/STM32H7xx_HAL_Driver/Src/stm32h7xx_ll_usb.c ****       else
 873:Drivers/STM32H7xx_HAL_Driver/Src/stm32h7xx_ll_usb.c ****       {
 874:Drivers/STM32H7xx_HAL_Driver/Src/stm32h7xx_ll_usb.c ****         pktcnt = (uint16_t)((ep->xfer_len + ep->maxpacket - 1U) / ep->maxpacket);
 875:Drivers/STM32H7xx_HAL_Driver/Src/stm32h7xx_ll_usb.c ****         ep->xfer_size = ep->maxpacket * pktcnt;
 876:Drivers/STM32H7xx_HAL_Driver/Src/stm32h7xx_ll_usb.c **** 
 877:Drivers/STM32H7xx_HAL_Driver/Src/stm32h7xx_ll_usb.c ****         USBx_OUTEP(epnum)->DOEPTSIZ |= USB_OTG_DOEPTSIZ_PKTCNT & ((uint32_t)pktcnt << 19);
 878:Drivers/STM32H7xx_HAL_Driver/Src/stm32h7xx_ll_usb.c ****         USBx_OUTEP(epnum)->DOEPTSIZ |= USB_OTG_DOEPTSIZ_XFRSIZ & ep->xfer_size;
 879:Drivers/STM32H7xx_HAL_Driver/Src/stm32h7xx_ll_usb.c ****       }
 880:Drivers/STM32H7xx_HAL_Driver/Src/stm32h7xx_ll_usb.c ****     }
 881:Drivers/STM32H7xx_HAL_Driver/Src/stm32h7xx_ll_usb.c **** 
 882:Drivers/STM32H7xx_HAL_Driver/Src/stm32h7xx_ll_usb.c ****     if (dma == 1U)
 883:Drivers/STM32H7xx_HAL_Driver/Src/stm32h7xx_ll_usb.c ****     {
 884:Drivers/STM32H7xx_HAL_Driver/Src/stm32h7xx_ll_usb.c ****       if ((uint32_t)ep->xfer_buff != 0U)
 885:Drivers/STM32H7xx_HAL_Driver/Src/stm32h7xx_ll_usb.c ****       {
 886:Drivers/STM32H7xx_HAL_Driver/Src/stm32h7xx_ll_usb.c ****         USBx_OUTEP(epnum)->DOEPDMA = (uint32_t)(ep->xfer_buff);
ARM GAS  C:\Users\ADMINI~1\AppData\Local\Temp\cceMOlfx.s 			page 17


 887:Drivers/STM32H7xx_HAL_Driver/Src/stm32h7xx_ll_usb.c ****       }
 888:Drivers/STM32H7xx_HAL_Driver/Src/stm32h7xx_ll_usb.c ****     }
 889:Drivers/STM32H7xx_HAL_Driver/Src/stm32h7xx_ll_usb.c **** 
 890:Drivers/STM32H7xx_HAL_Driver/Src/stm32h7xx_ll_usb.c ****     if (ep->type == EP_TYPE_ISOC)
 891:Drivers/STM32H7xx_HAL_Driver/Src/stm32h7xx_ll_usb.c ****     {
 892:Drivers/STM32H7xx_HAL_Driver/Src/stm32h7xx_ll_usb.c ****       if ((USBx_DEVICE->DSTS & (1U << 8)) == 0U)
 893:Drivers/STM32H7xx_HAL_Driver/Src/stm32h7xx_ll_usb.c ****       {
 894:Drivers/STM32H7xx_HAL_Driver/Src/stm32h7xx_ll_usb.c ****         USBx_OUTEP(epnum)->DOEPCTL |= USB_OTG_DOEPCTL_SODDFRM;
 895:Drivers/STM32H7xx_HAL_Driver/Src/stm32h7xx_ll_usb.c ****       }
 896:Drivers/STM32H7xx_HAL_Driver/Src/stm32h7xx_ll_usb.c ****       else
 897:Drivers/STM32H7xx_HAL_Driver/Src/stm32h7xx_ll_usb.c ****       {
 898:Drivers/STM32H7xx_HAL_Driver/Src/stm32h7xx_ll_usb.c ****         USBx_OUTEP(epnum)->DOEPCTL |= USB_OTG_DOEPCTL_SD0PID_SEVNFRM;
 899:Drivers/STM32H7xx_HAL_Driver/Src/stm32h7xx_ll_usb.c ****       }
 900:Drivers/STM32H7xx_HAL_Driver/Src/stm32h7xx_ll_usb.c ****     }
 901:Drivers/STM32H7xx_HAL_Driver/Src/stm32h7xx_ll_usb.c ****     /* EP enable */
 902:Drivers/STM32H7xx_HAL_Driver/Src/stm32h7xx_ll_usb.c ****     USBx_OUTEP(epnum)->DOEPCTL |= (USB_OTG_DOEPCTL_CNAK | USB_OTG_DOEPCTL_EPENA);
 903:Drivers/STM32H7xx_HAL_Driver/Src/stm32h7xx_ll_usb.c ****   }
 904:Drivers/STM32H7xx_HAL_Driver/Src/stm32h7xx_ll_usb.c **** 
 905:Drivers/STM32H7xx_HAL_Driver/Src/stm32h7xx_ll_usb.c ****   return HAL_OK;
 906:Drivers/STM32H7xx_HAL_Driver/Src/stm32h7xx_ll_usb.c **** }
 907:Drivers/STM32H7xx_HAL_Driver/Src/stm32h7xx_ll_usb.c **** 
 908:Drivers/STM32H7xx_HAL_Driver/Src/stm32h7xx_ll_usb.c **** 
 909:Drivers/STM32H7xx_HAL_Driver/Src/stm32h7xx_ll_usb.c **** /**
 910:Drivers/STM32H7xx_HAL_Driver/Src/stm32h7xx_ll_usb.c ****    * @brief  USB_EPStoptXfer  Stop transfer on an EP
 911:Drivers/STM32H7xx_HAL_Driver/Src/stm32h7xx_ll_usb.c ****    * @param  USBx  usb device instance
 912:Drivers/STM32H7xx_HAL_Driver/Src/stm32h7xx_ll_usb.c ****    * @param  ep pointer to endpoint structure
 913:Drivers/STM32H7xx_HAL_Driver/Src/stm32h7xx_ll_usb.c ****    * @retval HAL status
 914:Drivers/STM32H7xx_HAL_Driver/Src/stm32h7xx_ll_usb.c ****    */
 915:Drivers/STM32H7xx_HAL_Driver/Src/stm32h7xx_ll_usb.c **** HAL_StatusTypeDef USB_EPStopXfer(const USB_OTG_GlobalTypeDef *USBx, USB_OTG_EPTypeDef *ep)
 916:Drivers/STM32H7xx_HAL_Driver/Src/stm32h7xx_ll_usb.c **** {
 917:Drivers/STM32H7xx_HAL_Driver/Src/stm32h7xx_ll_usb.c ****   __IO uint32_t count = 0U;
 918:Drivers/STM32H7xx_HAL_Driver/Src/stm32h7xx_ll_usb.c ****   HAL_StatusTypeDef ret = HAL_OK;
 919:Drivers/STM32H7xx_HAL_Driver/Src/stm32h7xx_ll_usb.c ****   uint32_t USBx_BASE = (uint32_t)USBx;
 920:Drivers/STM32H7xx_HAL_Driver/Src/stm32h7xx_ll_usb.c **** 
 921:Drivers/STM32H7xx_HAL_Driver/Src/stm32h7xx_ll_usb.c ****   /* IN endpoint */
 922:Drivers/STM32H7xx_HAL_Driver/Src/stm32h7xx_ll_usb.c ****   if (ep->is_in == 1U)
 923:Drivers/STM32H7xx_HAL_Driver/Src/stm32h7xx_ll_usb.c ****   {
 924:Drivers/STM32H7xx_HAL_Driver/Src/stm32h7xx_ll_usb.c ****     /* EP enable, IN data in FIFO */
 925:Drivers/STM32H7xx_HAL_Driver/Src/stm32h7xx_ll_usb.c ****     if (((USBx_INEP(ep->num)->DIEPCTL) & USB_OTG_DIEPCTL_EPENA) == USB_OTG_DIEPCTL_EPENA)
 926:Drivers/STM32H7xx_HAL_Driver/Src/stm32h7xx_ll_usb.c ****     {
 927:Drivers/STM32H7xx_HAL_Driver/Src/stm32h7xx_ll_usb.c ****       USBx_INEP(ep->num)->DIEPCTL |= (USB_OTG_DIEPCTL_SNAK);
 928:Drivers/STM32H7xx_HAL_Driver/Src/stm32h7xx_ll_usb.c ****       USBx_INEP(ep->num)->DIEPCTL |= (USB_OTG_DIEPCTL_EPDIS);
 929:Drivers/STM32H7xx_HAL_Driver/Src/stm32h7xx_ll_usb.c **** 
 930:Drivers/STM32H7xx_HAL_Driver/Src/stm32h7xx_ll_usb.c ****       do
 931:Drivers/STM32H7xx_HAL_Driver/Src/stm32h7xx_ll_usb.c ****       {
 932:Drivers/STM32H7xx_HAL_Driver/Src/stm32h7xx_ll_usb.c ****         count++;
 933:Drivers/STM32H7xx_HAL_Driver/Src/stm32h7xx_ll_usb.c **** 
 934:Drivers/STM32H7xx_HAL_Driver/Src/stm32h7xx_ll_usb.c ****         if (count > 10000U)
 935:Drivers/STM32H7xx_HAL_Driver/Src/stm32h7xx_ll_usb.c ****         {
 936:Drivers/STM32H7xx_HAL_Driver/Src/stm32h7xx_ll_usb.c ****           ret = HAL_ERROR;
 937:Drivers/STM32H7xx_HAL_Driver/Src/stm32h7xx_ll_usb.c ****           break;
 938:Drivers/STM32H7xx_HAL_Driver/Src/stm32h7xx_ll_usb.c ****         }
 939:Drivers/STM32H7xx_HAL_Driver/Src/stm32h7xx_ll_usb.c ****       } while (((USBx_INEP(ep->num)->DIEPCTL) & USB_OTG_DIEPCTL_EPENA) ==  USB_OTG_DIEPCTL_EPENA);
 940:Drivers/STM32H7xx_HAL_Driver/Src/stm32h7xx_ll_usb.c ****     }
 941:Drivers/STM32H7xx_HAL_Driver/Src/stm32h7xx_ll_usb.c ****   }
 942:Drivers/STM32H7xx_HAL_Driver/Src/stm32h7xx_ll_usb.c ****   else /* OUT endpoint */
 943:Drivers/STM32H7xx_HAL_Driver/Src/stm32h7xx_ll_usb.c ****   {
ARM GAS  C:\Users\ADMINI~1\AppData\Local\Temp\cceMOlfx.s 			page 18


 944:Drivers/STM32H7xx_HAL_Driver/Src/stm32h7xx_ll_usb.c ****     if (((USBx_OUTEP(ep->num)->DOEPCTL) & USB_OTG_DOEPCTL_EPENA) == USB_OTG_DOEPCTL_EPENA)
 945:Drivers/STM32H7xx_HAL_Driver/Src/stm32h7xx_ll_usb.c ****     {
 946:Drivers/STM32H7xx_HAL_Driver/Src/stm32h7xx_ll_usb.c ****       USBx_OUTEP(ep->num)->DOEPCTL |= (USB_OTG_DOEPCTL_SNAK);
 947:Drivers/STM32H7xx_HAL_Driver/Src/stm32h7xx_ll_usb.c ****       USBx_OUTEP(ep->num)->DOEPCTL |= (USB_OTG_DOEPCTL_EPDIS);
 948:Drivers/STM32H7xx_HAL_Driver/Src/stm32h7xx_ll_usb.c **** 
 949:Drivers/STM32H7xx_HAL_Driver/Src/stm32h7xx_ll_usb.c ****       do
 950:Drivers/STM32H7xx_HAL_Driver/Src/stm32h7xx_ll_usb.c ****       {
 951:Drivers/STM32H7xx_HAL_Driver/Src/stm32h7xx_ll_usb.c ****         count++;
 952:Drivers/STM32H7xx_HAL_Driver/Src/stm32h7xx_ll_usb.c **** 
 953:Drivers/STM32H7xx_HAL_Driver/Src/stm32h7xx_ll_usb.c ****         if (count > 10000U)
 954:Drivers/STM32H7xx_HAL_Driver/Src/stm32h7xx_ll_usb.c ****         {
 955:Drivers/STM32H7xx_HAL_Driver/Src/stm32h7xx_ll_usb.c ****           ret = HAL_ERROR;
 956:Drivers/STM32H7xx_HAL_Driver/Src/stm32h7xx_ll_usb.c ****           break;
 957:Drivers/STM32H7xx_HAL_Driver/Src/stm32h7xx_ll_usb.c ****         }
 958:Drivers/STM32H7xx_HAL_Driver/Src/stm32h7xx_ll_usb.c ****       } while (((USBx_OUTEP(ep->num)->DOEPCTL) & USB_OTG_DOEPCTL_EPENA) ==  USB_OTG_DOEPCTL_EPENA);
 959:Drivers/STM32H7xx_HAL_Driver/Src/stm32h7xx_ll_usb.c ****     }
 960:Drivers/STM32H7xx_HAL_Driver/Src/stm32h7xx_ll_usb.c ****   }
 961:Drivers/STM32H7xx_HAL_Driver/Src/stm32h7xx_ll_usb.c **** 
 962:Drivers/STM32H7xx_HAL_Driver/Src/stm32h7xx_ll_usb.c ****   return ret;
 963:Drivers/STM32H7xx_HAL_Driver/Src/stm32h7xx_ll_usb.c **** }
 964:Drivers/STM32H7xx_HAL_Driver/Src/stm32h7xx_ll_usb.c **** 
 965:Drivers/STM32H7xx_HAL_Driver/Src/stm32h7xx_ll_usb.c **** 
 966:Drivers/STM32H7xx_HAL_Driver/Src/stm32h7xx_ll_usb.c **** /**
 967:Drivers/STM32H7xx_HAL_Driver/Src/stm32h7xx_ll_usb.c ****   * @brief  USB_WritePacket : Writes a packet into the Tx FIFO associated
 968:Drivers/STM32H7xx_HAL_Driver/Src/stm32h7xx_ll_usb.c ****   *         with the EP/channel
 969:Drivers/STM32H7xx_HAL_Driver/Src/stm32h7xx_ll_usb.c ****   * @param  USBx  Selected device
 970:Drivers/STM32H7xx_HAL_Driver/Src/stm32h7xx_ll_usb.c ****   * @param  src   pointer to source buffer
 971:Drivers/STM32H7xx_HAL_Driver/Src/stm32h7xx_ll_usb.c ****   * @param  ch_ep_num  endpoint or host channel number
 972:Drivers/STM32H7xx_HAL_Driver/Src/stm32h7xx_ll_usb.c ****   * @param  len  Number of bytes to write
 973:Drivers/STM32H7xx_HAL_Driver/Src/stm32h7xx_ll_usb.c ****   * @param  dma USB dma enabled or disabled
 974:Drivers/STM32H7xx_HAL_Driver/Src/stm32h7xx_ll_usb.c ****   *          This parameter can be one of these values:
 975:Drivers/STM32H7xx_HAL_Driver/Src/stm32h7xx_ll_usb.c ****   *           0 : DMA feature not used
 976:Drivers/STM32H7xx_HAL_Driver/Src/stm32h7xx_ll_usb.c ****   *           1 : DMA feature used
 977:Drivers/STM32H7xx_HAL_Driver/Src/stm32h7xx_ll_usb.c ****   * @retval HAL status
 978:Drivers/STM32H7xx_HAL_Driver/Src/stm32h7xx_ll_usb.c ****   */
 979:Drivers/STM32H7xx_HAL_Driver/Src/stm32h7xx_ll_usb.c **** HAL_StatusTypeDef USB_WritePacket(const USB_OTG_GlobalTypeDef *USBx, uint8_t *src,
 980:Drivers/STM32H7xx_HAL_Driver/Src/stm32h7xx_ll_usb.c ****                                   uint8_t ch_ep_num, uint16_t len, uint8_t dma)
 981:Drivers/STM32H7xx_HAL_Driver/Src/stm32h7xx_ll_usb.c **** {
 982:Drivers/STM32H7xx_HAL_Driver/Src/stm32h7xx_ll_usb.c ****   uint32_t USBx_BASE = (uint32_t)USBx;
 983:Drivers/STM32H7xx_HAL_Driver/Src/stm32h7xx_ll_usb.c ****   uint8_t *pSrc = src;
 984:Drivers/STM32H7xx_HAL_Driver/Src/stm32h7xx_ll_usb.c ****   uint32_t count32b;
 985:Drivers/STM32H7xx_HAL_Driver/Src/stm32h7xx_ll_usb.c ****   uint32_t i;
 986:Drivers/STM32H7xx_HAL_Driver/Src/stm32h7xx_ll_usb.c **** 
 987:Drivers/STM32H7xx_HAL_Driver/Src/stm32h7xx_ll_usb.c ****   if (dma == 0U)
 988:Drivers/STM32H7xx_HAL_Driver/Src/stm32h7xx_ll_usb.c ****   {
 989:Drivers/STM32H7xx_HAL_Driver/Src/stm32h7xx_ll_usb.c ****     count32b = ((uint32_t)len + 3U) / 4U;
 990:Drivers/STM32H7xx_HAL_Driver/Src/stm32h7xx_ll_usb.c ****     for (i = 0U; i < count32b; i++)
 991:Drivers/STM32H7xx_HAL_Driver/Src/stm32h7xx_ll_usb.c ****     {
 992:Drivers/STM32H7xx_HAL_Driver/Src/stm32h7xx_ll_usb.c ****       USBx_DFIFO((uint32_t)ch_ep_num) = __UNALIGNED_UINT32_READ(pSrc);
 993:Drivers/STM32H7xx_HAL_Driver/Src/stm32h7xx_ll_usb.c ****       pSrc++;
 994:Drivers/STM32H7xx_HAL_Driver/Src/stm32h7xx_ll_usb.c ****       pSrc++;
 995:Drivers/STM32H7xx_HAL_Driver/Src/stm32h7xx_ll_usb.c ****       pSrc++;
 996:Drivers/STM32H7xx_HAL_Driver/Src/stm32h7xx_ll_usb.c ****       pSrc++;
 997:Drivers/STM32H7xx_HAL_Driver/Src/stm32h7xx_ll_usb.c ****     }
 998:Drivers/STM32H7xx_HAL_Driver/Src/stm32h7xx_ll_usb.c ****   }
 999:Drivers/STM32H7xx_HAL_Driver/Src/stm32h7xx_ll_usb.c **** 
1000:Drivers/STM32H7xx_HAL_Driver/Src/stm32h7xx_ll_usb.c ****   return HAL_OK;
ARM GAS  C:\Users\ADMINI~1\AppData\Local\Temp\cceMOlfx.s 			page 19


1001:Drivers/STM32H7xx_HAL_Driver/Src/stm32h7xx_ll_usb.c **** }
1002:Drivers/STM32H7xx_HAL_Driver/Src/stm32h7xx_ll_usb.c **** 
1003:Drivers/STM32H7xx_HAL_Driver/Src/stm32h7xx_ll_usb.c **** /**
1004:Drivers/STM32H7xx_HAL_Driver/Src/stm32h7xx_ll_usb.c ****   * @brief  USB_ReadPacket : read a packet from the RX FIFO
1005:Drivers/STM32H7xx_HAL_Driver/Src/stm32h7xx_ll_usb.c ****   * @param  USBx  Selected device
1006:Drivers/STM32H7xx_HAL_Driver/Src/stm32h7xx_ll_usb.c ****   * @param  dest  source pointer
1007:Drivers/STM32H7xx_HAL_Driver/Src/stm32h7xx_ll_usb.c ****   * @param  len  Number of bytes to read
1008:Drivers/STM32H7xx_HAL_Driver/Src/stm32h7xx_ll_usb.c ****   * @retval pointer to destination buffer
1009:Drivers/STM32H7xx_HAL_Driver/Src/stm32h7xx_ll_usb.c ****   */
1010:Drivers/STM32H7xx_HAL_Driver/Src/stm32h7xx_ll_usb.c **** void *USB_ReadPacket(const USB_OTG_GlobalTypeDef *USBx, uint8_t *dest, uint16_t len)
1011:Drivers/STM32H7xx_HAL_Driver/Src/stm32h7xx_ll_usb.c **** {
1012:Drivers/STM32H7xx_HAL_Driver/Src/stm32h7xx_ll_usb.c ****   uint32_t USBx_BASE = (uint32_t)USBx;
1013:Drivers/STM32H7xx_HAL_Driver/Src/stm32h7xx_ll_usb.c ****   uint8_t *pDest = dest;
1014:Drivers/STM32H7xx_HAL_Driver/Src/stm32h7xx_ll_usb.c ****   uint32_t pData;
1015:Drivers/STM32H7xx_HAL_Driver/Src/stm32h7xx_ll_usb.c ****   uint32_t i;
1016:Drivers/STM32H7xx_HAL_Driver/Src/stm32h7xx_ll_usb.c ****   uint32_t count32b = (uint32_t)len >> 2U;
1017:Drivers/STM32H7xx_HAL_Driver/Src/stm32h7xx_ll_usb.c ****   uint16_t remaining_bytes = len % 4U;
1018:Drivers/STM32H7xx_HAL_Driver/Src/stm32h7xx_ll_usb.c **** 
1019:Drivers/STM32H7xx_HAL_Driver/Src/stm32h7xx_ll_usb.c ****   for (i = 0U; i < count32b; i++)
1020:Drivers/STM32H7xx_HAL_Driver/Src/stm32h7xx_ll_usb.c ****   {
1021:Drivers/STM32H7xx_HAL_Driver/Src/stm32h7xx_ll_usb.c ****     __UNALIGNED_UINT32_WRITE(pDest, USBx_DFIFO(0U));
1022:Drivers/STM32H7xx_HAL_Driver/Src/stm32h7xx_ll_usb.c ****     pDest++;
1023:Drivers/STM32H7xx_HAL_Driver/Src/stm32h7xx_ll_usb.c ****     pDest++;
1024:Drivers/STM32H7xx_HAL_Driver/Src/stm32h7xx_ll_usb.c ****     pDest++;
1025:Drivers/STM32H7xx_HAL_Driver/Src/stm32h7xx_ll_usb.c ****     pDest++;
1026:Drivers/STM32H7xx_HAL_Driver/Src/stm32h7xx_ll_usb.c ****   }
1027:Drivers/STM32H7xx_HAL_Driver/Src/stm32h7xx_ll_usb.c **** 
1028:Drivers/STM32H7xx_HAL_Driver/Src/stm32h7xx_ll_usb.c ****   /* When Number of data is not word aligned, read the remaining byte */
1029:Drivers/STM32H7xx_HAL_Driver/Src/stm32h7xx_ll_usb.c ****   if (remaining_bytes != 0U)
1030:Drivers/STM32H7xx_HAL_Driver/Src/stm32h7xx_ll_usb.c ****   {
1031:Drivers/STM32H7xx_HAL_Driver/Src/stm32h7xx_ll_usb.c ****     i = 0U;
1032:Drivers/STM32H7xx_HAL_Driver/Src/stm32h7xx_ll_usb.c ****     __UNALIGNED_UINT32_WRITE(&pData, USBx_DFIFO(0U));
1033:Drivers/STM32H7xx_HAL_Driver/Src/stm32h7xx_ll_usb.c **** 
1034:Drivers/STM32H7xx_HAL_Driver/Src/stm32h7xx_ll_usb.c ****     do
1035:Drivers/STM32H7xx_HAL_Driver/Src/stm32h7xx_ll_usb.c ****     {
1036:Drivers/STM32H7xx_HAL_Driver/Src/stm32h7xx_ll_usb.c ****       *(uint8_t *)pDest = (uint8_t)(pData >> (8U * (uint8_t)(i)));
1037:Drivers/STM32H7xx_HAL_Driver/Src/stm32h7xx_ll_usb.c ****       i++;
1038:Drivers/STM32H7xx_HAL_Driver/Src/stm32h7xx_ll_usb.c ****       pDest++;
1039:Drivers/STM32H7xx_HAL_Driver/Src/stm32h7xx_ll_usb.c ****       remaining_bytes--;
1040:Drivers/STM32H7xx_HAL_Driver/Src/stm32h7xx_ll_usb.c ****     } while (remaining_bytes != 0U);
1041:Drivers/STM32H7xx_HAL_Driver/Src/stm32h7xx_ll_usb.c ****   }
1042:Drivers/STM32H7xx_HAL_Driver/Src/stm32h7xx_ll_usb.c **** 
1043:Drivers/STM32H7xx_HAL_Driver/Src/stm32h7xx_ll_usb.c ****   return ((void *)pDest);
1044:Drivers/STM32H7xx_HAL_Driver/Src/stm32h7xx_ll_usb.c **** }
1045:Drivers/STM32H7xx_HAL_Driver/Src/stm32h7xx_ll_usb.c **** 
1046:Drivers/STM32H7xx_HAL_Driver/Src/stm32h7xx_ll_usb.c **** /**
1047:Drivers/STM32H7xx_HAL_Driver/Src/stm32h7xx_ll_usb.c ****   * @brief  USB_EPSetStall : set a stall condition over an EP
1048:Drivers/STM32H7xx_HAL_Driver/Src/stm32h7xx_ll_usb.c ****   * @param  USBx  Selected device
1049:Drivers/STM32H7xx_HAL_Driver/Src/stm32h7xx_ll_usb.c ****   * @param  ep pointer to endpoint structure
1050:Drivers/STM32H7xx_HAL_Driver/Src/stm32h7xx_ll_usb.c ****   * @retval HAL status
1051:Drivers/STM32H7xx_HAL_Driver/Src/stm32h7xx_ll_usb.c ****   */
1052:Drivers/STM32H7xx_HAL_Driver/Src/stm32h7xx_ll_usb.c **** HAL_StatusTypeDef USB_EPSetStall(const USB_OTG_GlobalTypeDef *USBx, const USB_OTG_EPTypeDef *ep)
1053:Drivers/STM32H7xx_HAL_Driver/Src/stm32h7xx_ll_usb.c **** {
1054:Drivers/STM32H7xx_HAL_Driver/Src/stm32h7xx_ll_usb.c ****   uint32_t USBx_BASE = (uint32_t)USBx;
1055:Drivers/STM32H7xx_HAL_Driver/Src/stm32h7xx_ll_usb.c ****   uint32_t epnum = (uint32_t)ep->num;
1056:Drivers/STM32H7xx_HAL_Driver/Src/stm32h7xx_ll_usb.c **** 
1057:Drivers/STM32H7xx_HAL_Driver/Src/stm32h7xx_ll_usb.c ****   if (ep->is_in == 1U)
ARM GAS  C:\Users\ADMINI~1\AppData\Local\Temp\cceMOlfx.s 			page 20


1058:Drivers/STM32H7xx_HAL_Driver/Src/stm32h7xx_ll_usb.c ****   {
1059:Drivers/STM32H7xx_HAL_Driver/Src/stm32h7xx_ll_usb.c ****     if (((USBx_INEP(epnum)->DIEPCTL & USB_OTG_DIEPCTL_EPENA) == 0U) && (epnum != 0U))
1060:Drivers/STM32H7xx_HAL_Driver/Src/stm32h7xx_ll_usb.c ****     {
1061:Drivers/STM32H7xx_HAL_Driver/Src/stm32h7xx_ll_usb.c ****       USBx_INEP(epnum)->DIEPCTL &= ~(USB_OTG_DIEPCTL_EPDIS);
1062:Drivers/STM32H7xx_HAL_Driver/Src/stm32h7xx_ll_usb.c ****     }
1063:Drivers/STM32H7xx_HAL_Driver/Src/stm32h7xx_ll_usb.c ****     USBx_INEP(epnum)->DIEPCTL |= USB_OTG_DIEPCTL_STALL;
1064:Drivers/STM32H7xx_HAL_Driver/Src/stm32h7xx_ll_usb.c ****   }
1065:Drivers/STM32H7xx_HAL_Driver/Src/stm32h7xx_ll_usb.c ****   else
1066:Drivers/STM32H7xx_HAL_Driver/Src/stm32h7xx_ll_usb.c ****   {
1067:Drivers/STM32H7xx_HAL_Driver/Src/stm32h7xx_ll_usb.c ****     if (((USBx_OUTEP(epnum)->DOEPCTL & USB_OTG_DOEPCTL_EPENA) == 0U) && (epnum != 0U))
1068:Drivers/STM32H7xx_HAL_Driver/Src/stm32h7xx_ll_usb.c ****     {
1069:Drivers/STM32H7xx_HAL_Driver/Src/stm32h7xx_ll_usb.c ****       USBx_OUTEP(epnum)->DOEPCTL &= ~(USB_OTG_DOEPCTL_EPDIS);
1070:Drivers/STM32H7xx_HAL_Driver/Src/stm32h7xx_ll_usb.c ****     }
1071:Drivers/STM32H7xx_HAL_Driver/Src/stm32h7xx_ll_usb.c ****     USBx_OUTEP(epnum)->DOEPCTL |= USB_OTG_DOEPCTL_STALL;
1072:Drivers/STM32H7xx_HAL_Driver/Src/stm32h7xx_ll_usb.c ****   }
1073:Drivers/STM32H7xx_HAL_Driver/Src/stm32h7xx_ll_usb.c **** 
1074:Drivers/STM32H7xx_HAL_Driver/Src/stm32h7xx_ll_usb.c ****   return HAL_OK;
1075:Drivers/STM32H7xx_HAL_Driver/Src/stm32h7xx_ll_usb.c **** }
1076:Drivers/STM32H7xx_HAL_Driver/Src/stm32h7xx_ll_usb.c **** 
1077:Drivers/STM32H7xx_HAL_Driver/Src/stm32h7xx_ll_usb.c **** /**
1078:Drivers/STM32H7xx_HAL_Driver/Src/stm32h7xx_ll_usb.c ****   * @brief  USB_EPClearStall : Clear a stall condition over an EP
1079:Drivers/STM32H7xx_HAL_Driver/Src/stm32h7xx_ll_usb.c ****   * @param  USBx  Selected device
1080:Drivers/STM32H7xx_HAL_Driver/Src/stm32h7xx_ll_usb.c ****   * @param  ep pointer to endpoint structure
1081:Drivers/STM32H7xx_HAL_Driver/Src/stm32h7xx_ll_usb.c ****   * @retval HAL status
1082:Drivers/STM32H7xx_HAL_Driver/Src/stm32h7xx_ll_usb.c ****   */
1083:Drivers/STM32H7xx_HAL_Driver/Src/stm32h7xx_ll_usb.c **** HAL_StatusTypeDef USB_EPClearStall(const USB_OTG_GlobalTypeDef *USBx, const USB_OTG_EPTypeDef *ep)
1084:Drivers/STM32H7xx_HAL_Driver/Src/stm32h7xx_ll_usb.c **** {
1085:Drivers/STM32H7xx_HAL_Driver/Src/stm32h7xx_ll_usb.c ****   uint32_t USBx_BASE = (uint32_t)USBx;
1086:Drivers/STM32H7xx_HAL_Driver/Src/stm32h7xx_ll_usb.c ****   uint32_t epnum = (uint32_t)ep->num;
1087:Drivers/STM32H7xx_HAL_Driver/Src/stm32h7xx_ll_usb.c **** 
1088:Drivers/STM32H7xx_HAL_Driver/Src/stm32h7xx_ll_usb.c ****   if (ep->is_in == 1U)
1089:Drivers/STM32H7xx_HAL_Driver/Src/stm32h7xx_ll_usb.c ****   {
1090:Drivers/STM32H7xx_HAL_Driver/Src/stm32h7xx_ll_usb.c ****     USBx_INEP(epnum)->DIEPCTL &= ~USB_OTG_DIEPCTL_STALL;
1091:Drivers/STM32H7xx_HAL_Driver/Src/stm32h7xx_ll_usb.c ****     if ((ep->type == EP_TYPE_INTR) || (ep->type == EP_TYPE_BULK))
1092:Drivers/STM32H7xx_HAL_Driver/Src/stm32h7xx_ll_usb.c ****     {
1093:Drivers/STM32H7xx_HAL_Driver/Src/stm32h7xx_ll_usb.c ****       USBx_INEP(epnum)->DIEPCTL |= USB_OTG_DIEPCTL_SD0PID_SEVNFRM; /* DATA0 */
1094:Drivers/STM32H7xx_HAL_Driver/Src/stm32h7xx_ll_usb.c ****     }
1095:Drivers/STM32H7xx_HAL_Driver/Src/stm32h7xx_ll_usb.c ****   }
1096:Drivers/STM32H7xx_HAL_Driver/Src/stm32h7xx_ll_usb.c ****   else
1097:Drivers/STM32H7xx_HAL_Driver/Src/stm32h7xx_ll_usb.c ****   {
1098:Drivers/STM32H7xx_HAL_Driver/Src/stm32h7xx_ll_usb.c ****     USBx_OUTEP(epnum)->DOEPCTL &= ~USB_OTG_DOEPCTL_STALL;
1099:Drivers/STM32H7xx_HAL_Driver/Src/stm32h7xx_ll_usb.c ****     if ((ep->type == EP_TYPE_INTR) || (ep->type == EP_TYPE_BULK))
1100:Drivers/STM32H7xx_HAL_Driver/Src/stm32h7xx_ll_usb.c ****     {
1101:Drivers/STM32H7xx_HAL_Driver/Src/stm32h7xx_ll_usb.c ****       USBx_OUTEP(epnum)->DOEPCTL |= USB_OTG_DOEPCTL_SD0PID_SEVNFRM; /* DATA0 */
1102:Drivers/STM32H7xx_HAL_Driver/Src/stm32h7xx_ll_usb.c ****     }
1103:Drivers/STM32H7xx_HAL_Driver/Src/stm32h7xx_ll_usb.c ****   }
1104:Drivers/STM32H7xx_HAL_Driver/Src/stm32h7xx_ll_usb.c ****   return HAL_OK;
1105:Drivers/STM32H7xx_HAL_Driver/Src/stm32h7xx_ll_usb.c **** }
1106:Drivers/STM32H7xx_HAL_Driver/Src/stm32h7xx_ll_usb.c **** 
1107:Drivers/STM32H7xx_HAL_Driver/Src/stm32h7xx_ll_usb.c **** /**
1108:Drivers/STM32H7xx_HAL_Driver/Src/stm32h7xx_ll_usb.c ****   * @brief  USB_StopDevice : Stop the usb device mode
1109:Drivers/STM32H7xx_HAL_Driver/Src/stm32h7xx_ll_usb.c ****   * @param  USBx  Selected device
1110:Drivers/STM32H7xx_HAL_Driver/Src/stm32h7xx_ll_usb.c ****   * @retval HAL status
1111:Drivers/STM32H7xx_HAL_Driver/Src/stm32h7xx_ll_usb.c ****   */
1112:Drivers/STM32H7xx_HAL_Driver/Src/stm32h7xx_ll_usb.c **** HAL_StatusTypeDef USB_StopDevice(USB_OTG_GlobalTypeDef *USBx)
1113:Drivers/STM32H7xx_HAL_Driver/Src/stm32h7xx_ll_usb.c **** {
1114:Drivers/STM32H7xx_HAL_Driver/Src/stm32h7xx_ll_usb.c ****   HAL_StatusTypeDef ret;
ARM GAS  C:\Users\ADMINI~1\AppData\Local\Temp\cceMOlfx.s 			page 21


1115:Drivers/STM32H7xx_HAL_Driver/Src/stm32h7xx_ll_usb.c ****   uint32_t USBx_BASE = (uint32_t)USBx;
1116:Drivers/STM32H7xx_HAL_Driver/Src/stm32h7xx_ll_usb.c ****   uint32_t i;
1117:Drivers/STM32H7xx_HAL_Driver/Src/stm32h7xx_ll_usb.c **** 
1118:Drivers/STM32H7xx_HAL_Driver/Src/stm32h7xx_ll_usb.c ****   /* Clear Pending interrupt */
1119:Drivers/STM32H7xx_HAL_Driver/Src/stm32h7xx_ll_usb.c ****   for (i = 0U; i < 15U; i++)
1120:Drivers/STM32H7xx_HAL_Driver/Src/stm32h7xx_ll_usb.c ****   {
1121:Drivers/STM32H7xx_HAL_Driver/Src/stm32h7xx_ll_usb.c ****     USBx_INEP(i)->DIEPINT = 0xFB7FU;
1122:Drivers/STM32H7xx_HAL_Driver/Src/stm32h7xx_ll_usb.c ****     USBx_OUTEP(i)->DOEPINT = 0xFB7FU;
1123:Drivers/STM32H7xx_HAL_Driver/Src/stm32h7xx_ll_usb.c ****   }
1124:Drivers/STM32H7xx_HAL_Driver/Src/stm32h7xx_ll_usb.c **** 
1125:Drivers/STM32H7xx_HAL_Driver/Src/stm32h7xx_ll_usb.c ****   /* Clear interrupt masks */
1126:Drivers/STM32H7xx_HAL_Driver/Src/stm32h7xx_ll_usb.c ****   USBx_DEVICE->DIEPMSK  = 0U;
1127:Drivers/STM32H7xx_HAL_Driver/Src/stm32h7xx_ll_usb.c ****   USBx_DEVICE->DOEPMSK  = 0U;
1128:Drivers/STM32H7xx_HAL_Driver/Src/stm32h7xx_ll_usb.c ****   USBx_DEVICE->DAINTMSK = 0U;
1129:Drivers/STM32H7xx_HAL_Driver/Src/stm32h7xx_ll_usb.c **** 
1130:Drivers/STM32H7xx_HAL_Driver/Src/stm32h7xx_ll_usb.c ****   /* Flush the FIFO */
1131:Drivers/STM32H7xx_HAL_Driver/Src/stm32h7xx_ll_usb.c ****   ret = USB_FlushRxFifo(USBx);
1132:Drivers/STM32H7xx_HAL_Driver/Src/stm32h7xx_ll_usb.c ****   if (ret != HAL_OK)
1133:Drivers/STM32H7xx_HAL_Driver/Src/stm32h7xx_ll_usb.c ****   {
1134:Drivers/STM32H7xx_HAL_Driver/Src/stm32h7xx_ll_usb.c ****     return ret;
1135:Drivers/STM32H7xx_HAL_Driver/Src/stm32h7xx_ll_usb.c ****   }
1136:Drivers/STM32H7xx_HAL_Driver/Src/stm32h7xx_ll_usb.c **** 
1137:Drivers/STM32H7xx_HAL_Driver/Src/stm32h7xx_ll_usb.c ****   ret = USB_FlushTxFifo(USBx,  0x10U);
1138:Drivers/STM32H7xx_HAL_Driver/Src/stm32h7xx_ll_usb.c ****   if (ret != HAL_OK)
1139:Drivers/STM32H7xx_HAL_Driver/Src/stm32h7xx_ll_usb.c ****   {
1140:Drivers/STM32H7xx_HAL_Driver/Src/stm32h7xx_ll_usb.c ****     return ret;
1141:Drivers/STM32H7xx_HAL_Driver/Src/stm32h7xx_ll_usb.c ****   }
1142:Drivers/STM32H7xx_HAL_Driver/Src/stm32h7xx_ll_usb.c **** 
1143:Drivers/STM32H7xx_HAL_Driver/Src/stm32h7xx_ll_usb.c ****   return ret;
1144:Drivers/STM32H7xx_HAL_Driver/Src/stm32h7xx_ll_usb.c **** }
1145:Drivers/STM32H7xx_HAL_Driver/Src/stm32h7xx_ll_usb.c **** 
1146:Drivers/STM32H7xx_HAL_Driver/Src/stm32h7xx_ll_usb.c **** /**
1147:Drivers/STM32H7xx_HAL_Driver/Src/stm32h7xx_ll_usb.c ****   * @brief  USB_SetDevAddress : Stop the usb device mode
1148:Drivers/STM32H7xx_HAL_Driver/Src/stm32h7xx_ll_usb.c ****   * @param  USBx  Selected device
1149:Drivers/STM32H7xx_HAL_Driver/Src/stm32h7xx_ll_usb.c ****   * @param  address  new device address to be assigned
1150:Drivers/STM32H7xx_HAL_Driver/Src/stm32h7xx_ll_usb.c ****   *          This parameter can be a value from 0 to 255
1151:Drivers/STM32H7xx_HAL_Driver/Src/stm32h7xx_ll_usb.c ****   * @retval HAL status
1152:Drivers/STM32H7xx_HAL_Driver/Src/stm32h7xx_ll_usb.c ****   */
1153:Drivers/STM32H7xx_HAL_Driver/Src/stm32h7xx_ll_usb.c **** HAL_StatusTypeDef USB_SetDevAddress(const USB_OTG_GlobalTypeDef *USBx, uint8_t address)
1154:Drivers/STM32H7xx_HAL_Driver/Src/stm32h7xx_ll_usb.c **** {
1155:Drivers/STM32H7xx_HAL_Driver/Src/stm32h7xx_ll_usb.c ****   uint32_t USBx_BASE = (uint32_t)USBx;
1156:Drivers/STM32H7xx_HAL_Driver/Src/stm32h7xx_ll_usb.c **** 
1157:Drivers/STM32H7xx_HAL_Driver/Src/stm32h7xx_ll_usb.c ****   USBx_DEVICE->DCFG &= ~(USB_OTG_DCFG_DAD);
1158:Drivers/STM32H7xx_HAL_Driver/Src/stm32h7xx_ll_usb.c ****   USBx_DEVICE->DCFG |= ((uint32_t)address << 4) & USB_OTG_DCFG_DAD;
1159:Drivers/STM32H7xx_HAL_Driver/Src/stm32h7xx_ll_usb.c **** 
1160:Drivers/STM32H7xx_HAL_Driver/Src/stm32h7xx_ll_usb.c ****   return HAL_OK;
1161:Drivers/STM32H7xx_HAL_Driver/Src/stm32h7xx_ll_usb.c **** }
1162:Drivers/STM32H7xx_HAL_Driver/Src/stm32h7xx_ll_usb.c **** 
1163:Drivers/STM32H7xx_HAL_Driver/Src/stm32h7xx_ll_usb.c **** /**
1164:Drivers/STM32H7xx_HAL_Driver/Src/stm32h7xx_ll_usb.c ****   * @brief  USB_DevConnect : Connect the USB device by enabling Rpu
1165:Drivers/STM32H7xx_HAL_Driver/Src/stm32h7xx_ll_usb.c ****   * @param  USBx  Selected device
1166:Drivers/STM32H7xx_HAL_Driver/Src/stm32h7xx_ll_usb.c ****   * @retval HAL status
1167:Drivers/STM32H7xx_HAL_Driver/Src/stm32h7xx_ll_usb.c ****   */
1168:Drivers/STM32H7xx_HAL_Driver/Src/stm32h7xx_ll_usb.c **** HAL_StatusTypeDef USB_DevConnect(const USB_OTG_GlobalTypeDef *USBx)
1169:Drivers/STM32H7xx_HAL_Driver/Src/stm32h7xx_ll_usb.c **** {
1170:Drivers/STM32H7xx_HAL_Driver/Src/stm32h7xx_ll_usb.c ****   uint32_t USBx_BASE = (uint32_t)USBx;
1171:Drivers/STM32H7xx_HAL_Driver/Src/stm32h7xx_ll_usb.c **** 
ARM GAS  C:\Users\ADMINI~1\AppData\Local\Temp\cceMOlfx.s 			page 22


1172:Drivers/STM32H7xx_HAL_Driver/Src/stm32h7xx_ll_usb.c ****   /* In case phy is stopped, ensure to ungate and restore the phy CLK */
1173:Drivers/STM32H7xx_HAL_Driver/Src/stm32h7xx_ll_usb.c ****   USBx_PCGCCTL &= ~(USB_OTG_PCGCCTL_STOPCLK | USB_OTG_PCGCCTL_GATECLK);
1174:Drivers/STM32H7xx_HAL_Driver/Src/stm32h7xx_ll_usb.c **** 
1175:Drivers/STM32H7xx_HAL_Driver/Src/stm32h7xx_ll_usb.c ****   USBx_DEVICE->DCTL &= ~USB_OTG_DCTL_SDIS;
1176:Drivers/STM32H7xx_HAL_Driver/Src/stm32h7xx_ll_usb.c **** 
1177:Drivers/STM32H7xx_HAL_Driver/Src/stm32h7xx_ll_usb.c ****   return HAL_OK;
1178:Drivers/STM32H7xx_HAL_Driver/Src/stm32h7xx_ll_usb.c **** }
1179:Drivers/STM32H7xx_HAL_Driver/Src/stm32h7xx_ll_usb.c **** 
1180:Drivers/STM32H7xx_HAL_Driver/Src/stm32h7xx_ll_usb.c **** /**
1181:Drivers/STM32H7xx_HAL_Driver/Src/stm32h7xx_ll_usb.c ****   * @brief  USB_DevDisconnect : Disconnect the USB device by disabling Rpu
1182:Drivers/STM32H7xx_HAL_Driver/Src/stm32h7xx_ll_usb.c ****   * @param  USBx  Selected device
1183:Drivers/STM32H7xx_HAL_Driver/Src/stm32h7xx_ll_usb.c ****   * @retval HAL status
1184:Drivers/STM32H7xx_HAL_Driver/Src/stm32h7xx_ll_usb.c ****   */
1185:Drivers/STM32H7xx_HAL_Driver/Src/stm32h7xx_ll_usb.c **** HAL_StatusTypeDef USB_DevDisconnect(const USB_OTG_GlobalTypeDef *USBx)
1186:Drivers/STM32H7xx_HAL_Driver/Src/stm32h7xx_ll_usb.c **** {
1187:Drivers/STM32H7xx_HAL_Driver/Src/stm32h7xx_ll_usb.c ****   uint32_t USBx_BASE = (uint32_t)USBx;
1188:Drivers/STM32H7xx_HAL_Driver/Src/stm32h7xx_ll_usb.c **** 
1189:Drivers/STM32H7xx_HAL_Driver/Src/stm32h7xx_ll_usb.c ****   /* In case phy is stopped, ensure to ungate and restore the phy CLK */
1190:Drivers/STM32H7xx_HAL_Driver/Src/stm32h7xx_ll_usb.c ****   USBx_PCGCCTL &= ~(USB_OTG_PCGCCTL_STOPCLK | USB_OTG_PCGCCTL_GATECLK);
1191:Drivers/STM32H7xx_HAL_Driver/Src/stm32h7xx_ll_usb.c **** 
1192:Drivers/STM32H7xx_HAL_Driver/Src/stm32h7xx_ll_usb.c ****   USBx_DEVICE->DCTL |= USB_OTG_DCTL_SDIS;
1193:Drivers/STM32H7xx_HAL_Driver/Src/stm32h7xx_ll_usb.c **** 
1194:Drivers/STM32H7xx_HAL_Driver/Src/stm32h7xx_ll_usb.c ****   return HAL_OK;
1195:Drivers/STM32H7xx_HAL_Driver/Src/stm32h7xx_ll_usb.c **** }
1196:Drivers/STM32H7xx_HAL_Driver/Src/stm32h7xx_ll_usb.c **** 
1197:Drivers/STM32H7xx_HAL_Driver/Src/stm32h7xx_ll_usb.c **** /**
1198:Drivers/STM32H7xx_HAL_Driver/Src/stm32h7xx_ll_usb.c ****   * @brief  USB_ReadInterrupts: return the global USB interrupt status
1199:Drivers/STM32H7xx_HAL_Driver/Src/stm32h7xx_ll_usb.c ****   * @param  USBx  Selected device
1200:Drivers/STM32H7xx_HAL_Driver/Src/stm32h7xx_ll_usb.c ****   * @retval USB Global Interrupt status
1201:Drivers/STM32H7xx_HAL_Driver/Src/stm32h7xx_ll_usb.c ****   */
1202:Drivers/STM32H7xx_HAL_Driver/Src/stm32h7xx_ll_usb.c **** uint32_t USB_ReadInterrupts(USB_OTG_GlobalTypeDef const *USBx)
1203:Drivers/STM32H7xx_HAL_Driver/Src/stm32h7xx_ll_usb.c **** {
1204:Drivers/STM32H7xx_HAL_Driver/Src/stm32h7xx_ll_usb.c ****   uint32_t tmpreg;
1205:Drivers/STM32H7xx_HAL_Driver/Src/stm32h7xx_ll_usb.c **** 
1206:Drivers/STM32H7xx_HAL_Driver/Src/stm32h7xx_ll_usb.c ****   tmpreg = USBx->GINTSTS;
1207:Drivers/STM32H7xx_HAL_Driver/Src/stm32h7xx_ll_usb.c ****   tmpreg &= USBx->GINTMSK;
1208:Drivers/STM32H7xx_HAL_Driver/Src/stm32h7xx_ll_usb.c **** 
1209:Drivers/STM32H7xx_HAL_Driver/Src/stm32h7xx_ll_usb.c ****   return tmpreg;
1210:Drivers/STM32H7xx_HAL_Driver/Src/stm32h7xx_ll_usb.c **** }
1211:Drivers/STM32H7xx_HAL_Driver/Src/stm32h7xx_ll_usb.c **** 
1212:Drivers/STM32H7xx_HAL_Driver/Src/stm32h7xx_ll_usb.c **** /**
1213:Drivers/STM32H7xx_HAL_Driver/Src/stm32h7xx_ll_usb.c ****   * @brief  USB_ReadChInterrupts: return USB channel interrupt status
1214:Drivers/STM32H7xx_HAL_Driver/Src/stm32h7xx_ll_usb.c ****   * @param  USBx  Selected device
1215:Drivers/STM32H7xx_HAL_Driver/Src/stm32h7xx_ll_usb.c ****   * @param  chnum Channel number
1216:Drivers/STM32H7xx_HAL_Driver/Src/stm32h7xx_ll_usb.c ****   * @retval USB Channel Interrupt status
1217:Drivers/STM32H7xx_HAL_Driver/Src/stm32h7xx_ll_usb.c ****   */
1218:Drivers/STM32H7xx_HAL_Driver/Src/stm32h7xx_ll_usb.c **** uint32_t USB_ReadChInterrupts(const USB_OTG_GlobalTypeDef *USBx, uint8_t chnum)
1219:Drivers/STM32H7xx_HAL_Driver/Src/stm32h7xx_ll_usb.c **** {
1220:Drivers/STM32H7xx_HAL_Driver/Src/stm32h7xx_ll_usb.c ****   uint32_t USBx_BASE = (uint32_t)USBx;
1221:Drivers/STM32H7xx_HAL_Driver/Src/stm32h7xx_ll_usb.c ****   uint32_t tmpreg;
1222:Drivers/STM32H7xx_HAL_Driver/Src/stm32h7xx_ll_usb.c **** 
1223:Drivers/STM32H7xx_HAL_Driver/Src/stm32h7xx_ll_usb.c ****   tmpreg = USBx_HC(chnum)->HCINT;
1224:Drivers/STM32H7xx_HAL_Driver/Src/stm32h7xx_ll_usb.c ****   tmpreg &= USBx_HC(chnum)->HCINTMSK;
1225:Drivers/STM32H7xx_HAL_Driver/Src/stm32h7xx_ll_usb.c **** 
1226:Drivers/STM32H7xx_HAL_Driver/Src/stm32h7xx_ll_usb.c ****   return tmpreg;
1227:Drivers/STM32H7xx_HAL_Driver/Src/stm32h7xx_ll_usb.c **** }
1228:Drivers/STM32H7xx_HAL_Driver/Src/stm32h7xx_ll_usb.c **** 
ARM GAS  C:\Users\ADMINI~1\AppData\Local\Temp\cceMOlfx.s 			page 23


1229:Drivers/STM32H7xx_HAL_Driver/Src/stm32h7xx_ll_usb.c **** /**
1230:Drivers/STM32H7xx_HAL_Driver/Src/stm32h7xx_ll_usb.c ****   * @brief  USB_ReadDevAllOutEpInterrupt: return the USB device OUT endpoints interrupt status
1231:Drivers/STM32H7xx_HAL_Driver/Src/stm32h7xx_ll_usb.c ****   * @param  USBx  Selected device
1232:Drivers/STM32H7xx_HAL_Driver/Src/stm32h7xx_ll_usb.c ****   * @retval USB Device OUT EP interrupt status
1233:Drivers/STM32H7xx_HAL_Driver/Src/stm32h7xx_ll_usb.c ****   */
1234:Drivers/STM32H7xx_HAL_Driver/Src/stm32h7xx_ll_usb.c **** uint32_t USB_ReadDevAllOutEpInterrupt(const USB_OTG_GlobalTypeDef *USBx)
1235:Drivers/STM32H7xx_HAL_Driver/Src/stm32h7xx_ll_usb.c **** {
1236:Drivers/STM32H7xx_HAL_Driver/Src/stm32h7xx_ll_usb.c ****   uint32_t USBx_BASE = (uint32_t)USBx;
1237:Drivers/STM32H7xx_HAL_Driver/Src/stm32h7xx_ll_usb.c ****   uint32_t tmpreg;
1238:Drivers/STM32H7xx_HAL_Driver/Src/stm32h7xx_ll_usb.c **** 
1239:Drivers/STM32H7xx_HAL_Driver/Src/stm32h7xx_ll_usb.c ****   tmpreg  = USBx_DEVICE->DAINT;
1240:Drivers/STM32H7xx_HAL_Driver/Src/stm32h7xx_ll_usb.c ****   tmpreg &= USBx_DEVICE->DAINTMSK;
1241:Drivers/STM32H7xx_HAL_Driver/Src/stm32h7xx_ll_usb.c **** 
1242:Drivers/STM32H7xx_HAL_Driver/Src/stm32h7xx_ll_usb.c ****   return ((tmpreg & 0xffff0000U) >> 16);
1243:Drivers/STM32H7xx_HAL_Driver/Src/stm32h7xx_ll_usb.c **** }
1244:Drivers/STM32H7xx_HAL_Driver/Src/stm32h7xx_ll_usb.c **** 
1245:Drivers/STM32H7xx_HAL_Driver/Src/stm32h7xx_ll_usb.c **** /**
1246:Drivers/STM32H7xx_HAL_Driver/Src/stm32h7xx_ll_usb.c ****   * @brief  USB_ReadDevAllInEpInterrupt: return the USB device IN endpoints interrupt status
1247:Drivers/STM32H7xx_HAL_Driver/Src/stm32h7xx_ll_usb.c ****   * @param  USBx  Selected device
1248:Drivers/STM32H7xx_HAL_Driver/Src/stm32h7xx_ll_usb.c ****   * @retval USB Device IN EP interrupt status
1249:Drivers/STM32H7xx_HAL_Driver/Src/stm32h7xx_ll_usb.c ****   */
1250:Drivers/STM32H7xx_HAL_Driver/Src/stm32h7xx_ll_usb.c **** uint32_t USB_ReadDevAllInEpInterrupt(const USB_OTG_GlobalTypeDef *USBx)
1251:Drivers/STM32H7xx_HAL_Driver/Src/stm32h7xx_ll_usb.c **** {
1252:Drivers/STM32H7xx_HAL_Driver/Src/stm32h7xx_ll_usb.c ****   uint32_t USBx_BASE = (uint32_t)USBx;
1253:Drivers/STM32H7xx_HAL_Driver/Src/stm32h7xx_ll_usb.c ****   uint32_t tmpreg;
1254:Drivers/STM32H7xx_HAL_Driver/Src/stm32h7xx_ll_usb.c **** 
1255:Drivers/STM32H7xx_HAL_Driver/Src/stm32h7xx_ll_usb.c ****   tmpreg  = USBx_DEVICE->DAINT;
1256:Drivers/STM32H7xx_HAL_Driver/Src/stm32h7xx_ll_usb.c ****   tmpreg &= USBx_DEVICE->DAINTMSK;
1257:Drivers/STM32H7xx_HAL_Driver/Src/stm32h7xx_ll_usb.c **** 
1258:Drivers/STM32H7xx_HAL_Driver/Src/stm32h7xx_ll_usb.c ****   return ((tmpreg & 0xFFFFU));
1259:Drivers/STM32H7xx_HAL_Driver/Src/stm32h7xx_ll_usb.c **** }
1260:Drivers/STM32H7xx_HAL_Driver/Src/stm32h7xx_ll_usb.c **** 
1261:Drivers/STM32H7xx_HAL_Driver/Src/stm32h7xx_ll_usb.c **** /**
1262:Drivers/STM32H7xx_HAL_Driver/Src/stm32h7xx_ll_usb.c ****   * @brief  Returns Device OUT EP Interrupt register
1263:Drivers/STM32H7xx_HAL_Driver/Src/stm32h7xx_ll_usb.c ****   * @param  USBx  Selected device
1264:Drivers/STM32H7xx_HAL_Driver/Src/stm32h7xx_ll_usb.c ****   * @param  epnum  endpoint number
1265:Drivers/STM32H7xx_HAL_Driver/Src/stm32h7xx_ll_usb.c ****   *          This parameter can be a value from 0 to 15
1266:Drivers/STM32H7xx_HAL_Driver/Src/stm32h7xx_ll_usb.c ****   * @retval Device OUT EP Interrupt register
1267:Drivers/STM32H7xx_HAL_Driver/Src/stm32h7xx_ll_usb.c ****   */
1268:Drivers/STM32H7xx_HAL_Driver/Src/stm32h7xx_ll_usb.c **** uint32_t USB_ReadDevOutEPInterrupt(const USB_OTG_GlobalTypeDef *USBx, uint8_t epnum)
1269:Drivers/STM32H7xx_HAL_Driver/Src/stm32h7xx_ll_usb.c **** {
1270:Drivers/STM32H7xx_HAL_Driver/Src/stm32h7xx_ll_usb.c ****   uint32_t USBx_BASE = (uint32_t)USBx;
1271:Drivers/STM32H7xx_HAL_Driver/Src/stm32h7xx_ll_usb.c ****   uint32_t tmpreg;
1272:Drivers/STM32H7xx_HAL_Driver/Src/stm32h7xx_ll_usb.c **** 
1273:Drivers/STM32H7xx_HAL_Driver/Src/stm32h7xx_ll_usb.c ****   tmpreg  = USBx_OUTEP((uint32_t)epnum)->DOEPINT;
1274:Drivers/STM32H7xx_HAL_Driver/Src/stm32h7xx_ll_usb.c ****   tmpreg &= USBx_DEVICE->DOEPMSK;
1275:Drivers/STM32H7xx_HAL_Driver/Src/stm32h7xx_ll_usb.c **** 
1276:Drivers/STM32H7xx_HAL_Driver/Src/stm32h7xx_ll_usb.c ****   return tmpreg;
1277:Drivers/STM32H7xx_HAL_Driver/Src/stm32h7xx_ll_usb.c **** }
1278:Drivers/STM32H7xx_HAL_Driver/Src/stm32h7xx_ll_usb.c **** 
1279:Drivers/STM32H7xx_HAL_Driver/Src/stm32h7xx_ll_usb.c **** /**
1280:Drivers/STM32H7xx_HAL_Driver/Src/stm32h7xx_ll_usb.c ****   * @brief  Returns Device IN EP Interrupt register
1281:Drivers/STM32H7xx_HAL_Driver/Src/stm32h7xx_ll_usb.c ****   * @param  USBx  Selected device
1282:Drivers/STM32H7xx_HAL_Driver/Src/stm32h7xx_ll_usb.c ****   * @param  epnum  endpoint number
1283:Drivers/STM32H7xx_HAL_Driver/Src/stm32h7xx_ll_usb.c ****   *          This parameter can be a value from 0 to 15
1284:Drivers/STM32H7xx_HAL_Driver/Src/stm32h7xx_ll_usb.c ****   * @retval Device IN EP Interrupt register
1285:Drivers/STM32H7xx_HAL_Driver/Src/stm32h7xx_ll_usb.c ****   */
ARM GAS  C:\Users\ADMINI~1\AppData\Local\Temp\cceMOlfx.s 			page 24


1286:Drivers/STM32H7xx_HAL_Driver/Src/stm32h7xx_ll_usb.c **** uint32_t USB_ReadDevInEPInterrupt(const USB_OTG_GlobalTypeDef *USBx, uint8_t epnum)
1287:Drivers/STM32H7xx_HAL_Driver/Src/stm32h7xx_ll_usb.c **** {
1288:Drivers/STM32H7xx_HAL_Driver/Src/stm32h7xx_ll_usb.c ****   uint32_t USBx_BASE = (uint32_t)USBx;
1289:Drivers/STM32H7xx_HAL_Driver/Src/stm32h7xx_ll_usb.c ****   uint32_t tmpreg;
1290:Drivers/STM32H7xx_HAL_Driver/Src/stm32h7xx_ll_usb.c ****   uint32_t msk;
1291:Drivers/STM32H7xx_HAL_Driver/Src/stm32h7xx_ll_usb.c ****   uint32_t emp;
1292:Drivers/STM32H7xx_HAL_Driver/Src/stm32h7xx_ll_usb.c **** 
1293:Drivers/STM32H7xx_HAL_Driver/Src/stm32h7xx_ll_usb.c ****   msk = USBx_DEVICE->DIEPMSK;
1294:Drivers/STM32H7xx_HAL_Driver/Src/stm32h7xx_ll_usb.c ****   emp = USBx_DEVICE->DIEPEMPMSK;
1295:Drivers/STM32H7xx_HAL_Driver/Src/stm32h7xx_ll_usb.c ****   msk |= ((emp >> (epnum & EP_ADDR_MSK)) & 0x1U) << 7;
1296:Drivers/STM32H7xx_HAL_Driver/Src/stm32h7xx_ll_usb.c ****   tmpreg = USBx_INEP((uint32_t)epnum)->DIEPINT & msk;
1297:Drivers/STM32H7xx_HAL_Driver/Src/stm32h7xx_ll_usb.c **** 
1298:Drivers/STM32H7xx_HAL_Driver/Src/stm32h7xx_ll_usb.c ****   return tmpreg;
1299:Drivers/STM32H7xx_HAL_Driver/Src/stm32h7xx_ll_usb.c **** }
1300:Drivers/STM32H7xx_HAL_Driver/Src/stm32h7xx_ll_usb.c **** 
1301:Drivers/STM32H7xx_HAL_Driver/Src/stm32h7xx_ll_usb.c **** /**
1302:Drivers/STM32H7xx_HAL_Driver/Src/stm32h7xx_ll_usb.c ****   * @brief  USB_ClearInterrupts: clear a USB interrupt
1303:Drivers/STM32H7xx_HAL_Driver/Src/stm32h7xx_ll_usb.c ****   * @param  USBx  Selected device
1304:Drivers/STM32H7xx_HAL_Driver/Src/stm32h7xx_ll_usb.c ****   * @param  interrupt  flag
1305:Drivers/STM32H7xx_HAL_Driver/Src/stm32h7xx_ll_usb.c ****   * @retval None
1306:Drivers/STM32H7xx_HAL_Driver/Src/stm32h7xx_ll_usb.c ****   */
1307:Drivers/STM32H7xx_HAL_Driver/Src/stm32h7xx_ll_usb.c **** void  USB_ClearInterrupts(USB_OTG_GlobalTypeDef *USBx, uint32_t interrupt)
1308:Drivers/STM32H7xx_HAL_Driver/Src/stm32h7xx_ll_usb.c **** {
1309:Drivers/STM32H7xx_HAL_Driver/Src/stm32h7xx_ll_usb.c ****   USBx->GINTSTS &= interrupt;
1310:Drivers/STM32H7xx_HAL_Driver/Src/stm32h7xx_ll_usb.c **** }
1311:Drivers/STM32H7xx_HAL_Driver/Src/stm32h7xx_ll_usb.c **** 
1312:Drivers/STM32H7xx_HAL_Driver/Src/stm32h7xx_ll_usb.c **** /**
1313:Drivers/STM32H7xx_HAL_Driver/Src/stm32h7xx_ll_usb.c ****   * @brief  Returns USB core mode
1314:Drivers/STM32H7xx_HAL_Driver/Src/stm32h7xx_ll_usb.c ****   * @param  USBx  Selected device
1315:Drivers/STM32H7xx_HAL_Driver/Src/stm32h7xx_ll_usb.c ****   * @retval return core mode : Host or Device
1316:Drivers/STM32H7xx_HAL_Driver/Src/stm32h7xx_ll_usb.c ****   *          This parameter can be one of these values:
1317:Drivers/STM32H7xx_HAL_Driver/Src/stm32h7xx_ll_usb.c ****   *           1 : Host
1318:Drivers/STM32H7xx_HAL_Driver/Src/stm32h7xx_ll_usb.c ****   *           0 : Device
1319:Drivers/STM32H7xx_HAL_Driver/Src/stm32h7xx_ll_usb.c ****   */
1320:Drivers/STM32H7xx_HAL_Driver/Src/stm32h7xx_ll_usb.c **** uint32_t USB_GetMode(const USB_OTG_GlobalTypeDef *USBx)
1321:Drivers/STM32H7xx_HAL_Driver/Src/stm32h7xx_ll_usb.c **** {
1322:Drivers/STM32H7xx_HAL_Driver/Src/stm32h7xx_ll_usb.c ****   return ((USBx->GINTSTS) & 0x1U);
1323:Drivers/STM32H7xx_HAL_Driver/Src/stm32h7xx_ll_usb.c **** }
1324:Drivers/STM32H7xx_HAL_Driver/Src/stm32h7xx_ll_usb.c **** 
1325:Drivers/STM32H7xx_HAL_Driver/Src/stm32h7xx_ll_usb.c **** /**
1326:Drivers/STM32H7xx_HAL_Driver/Src/stm32h7xx_ll_usb.c ****   * @brief  Activate EP0 for Setup transactions
1327:Drivers/STM32H7xx_HAL_Driver/Src/stm32h7xx_ll_usb.c ****   * @param  USBx  Selected device
1328:Drivers/STM32H7xx_HAL_Driver/Src/stm32h7xx_ll_usb.c ****   * @retval HAL status
1329:Drivers/STM32H7xx_HAL_Driver/Src/stm32h7xx_ll_usb.c ****   */
1330:Drivers/STM32H7xx_HAL_Driver/Src/stm32h7xx_ll_usb.c **** HAL_StatusTypeDef USB_ActivateSetup(const USB_OTG_GlobalTypeDef *USBx)
1331:Drivers/STM32H7xx_HAL_Driver/Src/stm32h7xx_ll_usb.c **** {
1332:Drivers/STM32H7xx_HAL_Driver/Src/stm32h7xx_ll_usb.c ****   uint32_t USBx_BASE = (uint32_t)USBx;
1333:Drivers/STM32H7xx_HAL_Driver/Src/stm32h7xx_ll_usb.c **** 
1334:Drivers/STM32H7xx_HAL_Driver/Src/stm32h7xx_ll_usb.c ****   /* Set the MPS of the IN EP0 to 64 bytes */
1335:Drivers/STM32H7xx_HAL_Driver/Src/stm32h7xx_ll_usb.c ****   USBx_INEP(0U)->DIEPCTL &= ~USB_OTG_DIEPCTL_MPSIZ;
1336:Drivers/STM32H7xx_HAL_Driver/Src/stm32h7xx_ll_usb.c **** 
1337:Drivers/STM32H7xx_HAL_Driver/Src/stm32h7xx_ll_usb.c ****   USBx_DEVICE->DCTL |= USB_OTG_DCTL_CGINAK;
1338:Drivers/STM32H7xx_HAL_Driver/Src/stm32h7xx_ll_usb.c **** 
1339:Drivers/STM32H7xx_HAL_Driver/Src/stm32h7xx_ll_usb.c ****   return HAL_OK;
1340:Drivers/STM32H7xx_HAL_Driver/Src/stm32h7xx_ll_usb.c **** }
1341:Drivers/STM32H7xx_HAL_Driver/Src/stm32h7xx_ll_usb.c **** 
1342:Drivers/STM32H7xx_HAL_Driver/Src/stm32h7xx_ll_usb.c **** /**
ARM GAS  C:\Users\ADMINI~1\AppData\Local\Temp\cceMOlfx.s 			page 25


1343:Drivers/STM32H7xx_HAL_Driver/Src/stm32h7xx_ll_usb.c ****   * @brief  Prepare the EP0 to start the first control setup
1344:Drivers/STM32H7xx_HAL_Driver/Src/stm32h7xx_ll_usb.c ****   * @param  USBx  Selected device
1345:Drivers/STM32H7xx_HAL_Driver/Src/stm32h7xx_ll_usb.c ****   * @param  dma USB dma enabled or disabled
1346:Drivers/STM32H7xx_HAL_Driver/Src/stm32h7xx_ll_usb.c ****   *          This parameter can be one of these values:
1347:Drivers/STM32H7xx_HAL_Driver/Src/stm32h7xx_ll_usb.c ****   *           0 : DMA feature not used
1348:Drivers/STM32H7xx_HAL_Driver/Src/stm32h7xx_ll_usb.c ****   *           1 : DMA feature used
1349:Drivers/STM32H7xx_HAL_Driver/Src/stm32h7xx_ll_usb.c ****   * @param  psetup  pointer to setup packet
1350:Drivers/STM32H7xx_HAL_Driver/Src/stm32h7xx_ll_usb.c ****   * @retval HAL status
1351:Drivers/STM32H7xx_HAL_Driver/Src/stm32h7xx_ll_usb.c ****   */
1352:Drivers/STM32H7xx_HAL_Driver/Src/stm32h7xx_ll_usb.c **** HAL_StatusTypeDef USB_EP0_OutStart(const USB_OTG_GlobalTypeDef *USBx, uint8_t dma, const uint8_t *p
1353:Drivers/STM32H7xx_HAL_Driver/Src/stm32h7xx_ll_usb.c **** {
1354:Drivers/STM32H7xx_HAL_Driver/Src/stm32h7xx_ll_usb.c ****   uint32_t USBx_BASE = (uint32_t)USBx;
1355:Drivers/STM32H7xx_HAL_Driver/Src/stm32h7xx_ll_usb.c ****   uint32_t gSNPSiD = *(__IO const uint32_t *)(&USBx->CID + 0x1U);
1356:Drivers/STM32H7xx_HAL_Driver/Src/stm32h7xx_ll_usb.c **** 
1357:Drivers/STM32H7xx_HAL_Driver/Src/stm32h7xx_ll_usb.c ****   if (gSNPSiD > USB_OTG_CORE_ID_300A)
1358:Drivers/STM32H7xx_HAL_Driver/Src/stm32h7xx_ll_usb.c ****   {
1359:Drivers/STM32H7xx_HAL_Driver/Src/stm32h7xx_ll_usb.c ****     if ((USBx_OUTEP(0U)->DOEPCTL & USB_OTG_DOEPCTL_EPENA) == USB_OTG_DOEPCTL_EPENA)
1360:Drivers/STM32H7xx_HAL_Driver/Src/stm32h7xx_ll_usb.c ****     {
1361:Drivers/STM32H7xx_HAL_Driver/Src/stm32h7xx_ll_usb.c ****       return HAL_OK;
1362:Drivers/STM32H7xx_HAL_Driver/Src/stm32h7xx_ll_usb.c ****     }
1363:Drivers/STM32H7xx_HAL_Driver/Src/stm32h7xx_ll_usb.c ****   }
1364:Drivers/STM32H7xx_HAL_Driver/Src/stm32h7xx_ll_usb.c **** 
1365:Drivers/STM32H7xx_HAL_Driver/Src/stm32h7xx_ll_usb.c ****   USBx_OUTEP(0U)->DOEPTSIZ = 0U;
1366:Drivers/STM32H7xx_HAL_Driver/Src/stm32h7xx_ll_usb.c ****   USBx_OUTEP(0U)->DOEPTSIZ |= (USB_OTG_DOEPTSIZ_PKTCNT & (1U << 19));
1367:Drivers/STM32H7xx_HAL_Driver/Src/stm32h7xx_ll_usb.c ****   USBx_OUTEP(0U)->DOEPTSIZ |= (3U * 8U);
1368:Drivers/STM32H7xx_HAL_Driver/Src/stm32h7xx_ll_usb.c ****   USBx_OUTEP(0U)->DOEPTSIZ |=  USB_OTG_DOEPTSIZ_STUPCNT;
1369:Drivers/STM32H7xx_HAL_Driver/Src/stm32h7xx_ll_usb.c **** 
1370:Drivers/STM32H7xx_HAL_Driver/Src/stm32h7xx_ll_usb.c ****   if (dma == 1U)
1371:Drivers/STM32H7xx_HAL_Driver/Src/stm32h7xx_ll_usb.c ****   {
1372:Drivers/STM32H7xx_HAL_Driver/Src/stm32h7xx_ll_usb.c ****     USBx_OUTEP(0U)->DOEPDMA = (uint32_t)psetup;
1373:Drivers/STM32H7xx_HAL_Driver/Src/stm32h7xx_ll_usb.c ****     /* EP enable */
1374:Drivers/STM32H7xx_HAL_Driver/Src/stm32h7xx_ll_usb.c ****     USBx_OUTEP(0U)->DOEPCTL |= USB_OTG_DOEPCTL_EPENA | USB_OTG_DOEPCTL_USBAEP;
1375:Drivers/STM32H7xx_HAL_Driver/Src/stm32h7xx_ll_usb.c ****   }
1376:Drivers/STM32H7xx_HAL_Driver/Src/stm32h7xx_ll_usb.c **** 
1377:Drivers/STM32H7xx_HAL_Driver/Src/stm32h7xx_ll_usb.c ****   return HAL_OK;
1378:Drivers/STM32H7xx_HAL_Driver/Src/stm32h7xx_ll_usb.c **** }
1379:Drivers/STM32H7xx_HAL_Driver/Src/stm32h7xx_ll_usb.c **** 
1380:Drivers/STM32H7xx_HAL_Driver/Src/stm32h7xx_ll_usb.c **** /**
1381:Drivers/STM32H7xx_HAL_Driver/Src/stm32h7xx_ll_usb.c ****   * @brief  Reset the USB Core (needed after USB clock settings change)
1382:Drivers/STM32H7xx_HAL_Driver/Src/stm32h7xx_ll_usb.c ****   * @param  USBx  Selected device
1383:Drivers/STM32H7xx_HAL_Driver/Src/stm32h7xx_ll_usb.c ****   * @retval HAL status
1384:Drivers/STM32H7xx_HAL_Driver/Src/stm32h7xx_ll_usb.c ****   */
1385:Drivers/STM32H7xx_HAL_Driver/Src/stm32h7xx_ll_usb.c **** static HAL_StatusTypeDef USB_CoreReset(USB_OTG_GlobalTypeDef *USBx)
1386:Drivers/STM32H7xx_HAL_Driver/Src/stm32h7xx_ll_usb.c **** {
  28              		.loc 1 1386 1 view -0
  29              		.cfi_startproc
  30              		@ args = 0, pretend = 0, frame = 8
  31              		@ frame_needed = 0, uses_anonymous_args = 0
  32              		@ link register save eliminated.
  33              		.loc 1 1386 1 is_stmt 0 view .LVU1
  34 0000 82B0     		sub	sp, sp, #8
  35              	.LCFI0:
  36              		.cfi_def_cfa_offset 8
1387:Drivers/STM32H7xx_HAL_Driver/Src/stm32h7xx_ll_usb.c ****   __IO uint32_t count = 0U;
  37              		.loc 1 1387 3 is_stmt 1 view .LVU2
  38              		.loc 1 1387 17 is_stmt 0 view .LVU3
  39 0002 0023     		movs	r3, #0
ARM GAS  C:\Users\ADMINI~1\AppData\Local\Temp\cceMOlfx.s 			page 26


  40 0004 0193     		str	r3, [sp, #4]
  41              	.L3:
1388:Drivers/STM32H7xx_HAL_Driver/Src/stm32h7xx_ll_usb.c **** 
1389:Drivers/STM32H7xx_HAL_Driver/Src/stm32h7xx_ll_usb.c ****   /* Wait for AHB master IDLE state. */
1390:Drivers/STM32H7xx_HAL_Driver/Src/stm32h7xx_ll_usb.c ****   do
  42              		.loc 1 1390 3 is_stmt 1 view .LVU4
1391:Drivers/STM32H7xx_HAL_Driver/Src/stm32h7xx_ll_usb.c ****   {
1392:Drivers/STM32H7xx_HAL_Driver/Src/stm32h7xx_ll_usb.c ****     count++;
  43              		.loc 1 1392 5 view .LVU5
  44              		.loc 1 1392 10 is_stmt 0 view .LVU6
  45 0006 019B     		ldr	r3, [sp, #4]
  46 0008 0133     		adds	r3, r3, #1
  47 000a 0193     		str	r3, [sp, #4]
1393:Drivers/STM32H7xx_HAL_Driver/Src/stm32h7xx_ll_usb.c **** 
1394:Drivers/STM32H7xx_HAL_Driver/Src/stm32h7xx_ll_usb.c ****     if (count > HAL_USB_TIMEOUT)
  48              		.loc 1 1394 5 is_stmt 1 view .LVU7
  49              		.loc 1 1394 15 is_stmt 0 view .LVU8
  50 000c 019B     		ldr	r3, [sp, #4]
  51              		.loc 1 1394 8 view .LVU9
  52 000e B3F1706F 		cmp	r3, #251658240
  53 0012 15D8     		bhi	.L5
1395:Drivers/STM32H7xx_HAL_Driver/Src/stm32h7xx_ll_usb.c ****     {
1396:Drivers/STM32H7xx_HAL_Driver/Src/stm32h7xx_ll_usb.c ****       return HAL_TIMEOUT;
1397:Drivers/STM32H7xx_HAL_Driver/Src/stm32h7xx_ll_usb.c ****     }
1398:Drivers/STM32H7xx_HAL_Driver/Src/stm32h7xx_ll_usb.c ****   } while ((USBx->GRSTCTL & USB_OTG_GRSTCTL_AHBIDL) == 0U);
  54              		.loc 1 1398 53 is_stmt 1 view .LVU10
  55              		.loc 1 1398 17 is_stmt 0 view .LVU11
  56 0014 0369     		ldr	r3, [r0, #16]
  57              		.loc 1 1398 53 view .LVU12
  58 0016 002B     		cmp	r3, #0
  59 0018 F5DA     		bge	.L3
1399:Drivers/STM32H7xx_HAL_Driver/Src/stm32h7xx_ll_usb.c **** 
1400:Drivers/STM32H7xx_HAL_Driver/Src/stm32h7xx_ll_usb.c ****   /* Core Soft Reset */
1401:Drivers/STM32H7xx_HAL_Driver/Src/stm32h7xx_ll_usb.c ****   count = 0U;
  60              		.loc 1 1401 3 is_stmt 1 view .LVU13
  61              		.loc 1 1401 9 is_stmt 0 view .LVU14
  62 001a 0023     		movs	r3, #0
  63 001c 0193     		str	r3, [sp, #4]
1402:Drivers/STM32H7xx_HAL_Driver/Src/stm32h7xx_ll_usb.c ****   USBx->GRSTCTL |= USB_OTG_GRSTCTL_CSRST;
  64              		.loc 1 1402 3 is_stmt 1 view .LVU15
  65              		.loc 1 1402 7 is_stmt 0 view .LVU16
  66 001e 0369     		ldr	r3, [r0, #16]
  67              		.loc 1 1402 17 view .LVU17
  68 0020 43F00103 		orr	r3, r3, #1
  69 0024 0361     		str	r3, [r0, #16]
  70              	.L4:
1403:Drivers/STM32H7xx_HAL_Driver/Src/stm32h7xx_ll_usb.c **** 
1404:Drivers/STM32H7xx_HAL_Driver/Src/stm32h7xx_ll_usb.c ****   do
  71              		.loc 1 1404 3 is_stmt 1 view .LVU18
1405:Drivers/STM32H7xx_HAL_Driver/Src/stm32h7xx_ll_usb.c ****   {
1406:Drivers/STM32H7xx_HAL_Driver/Src/stm32h7xx_ll_usb.c ****     count++;
  72              		.loc 1 1406 5 view .LVU19
  73              		.loc 1 1406 10 is_stmt 0 view .LVU20
  74 0026 019B     		ldr	r3, [sp, #4]
  75 0028 0133     		adds	r3, r3, #1
  76 002a 0193     		str	r3, [sp, #4]
1407:Drivers/STM32H7xx_HAL_Driver/Src/stm32h7xx_ll_usb.c **** 
ARM GAS  C:\Users\ADMINI~1\AppData\Local\Temp\cceMOlfx.s 			page 27


1408:Drivers/STM32H7xx_HAL_Driver/Src/stm32h7xx_ll_usb.c ****     if (count > HAL_USB_TIMEOUT)
  77              		.loc 1 1408 5 is_stmt 1 view .LVU21
  78              		.loc 1 1408 15 is_stmt 0 view .LVU22
  79 002c 019B     		ldr	r3, [sp, #4]
  80              		.loc 1 1408 8 view .LVU23
  81 002e B3F1706F 		cmp	r3, #251658240
  82 0032 08D8     		bhi	.L6
1409:Drivers/STM32H7xx_HAL_Driver/Src/stm32h7xx_ll_usb.c ****     {
1410:Drivers/STM32H7xx_HAL_Driver/Src/stm32h7xx_ll_usb.c ****       return HAL_TIMEOUT;
1411:Drivers/STM32H7xx_HAL_Driver/Src/stm32h7xx_ll_usb.c ****     }
1412:Drivers/STM32H7xx_HAL_Driver/Src/stm32h7xx_ll_usb.c ****   } while ((USBx->GRSTCTL & USB_OTG_GRSTCTL_CSRST) == USB_OTG_GRSTCTL_CSRST);
  83              		.loc 1 1412 52 is_stmt 1 view .LVU24
  84              		.loc 1 1412 17 is_stmt 0 view .LVU25
  85 0034 0369     		ldr	r3, [r0, #16]
  86              		.loc 1 1412 52 view .LVU26
  87 0036 13F0010F 		tst	r3, #1
  88 003a F4D1     		bne	.L4
1413:Drivers/STM32H7xx_HAL_Driver/Src/stm32h7xx_ll_usb.c **** 
1414:Drivers/STM32H7xx_HAL_Driver/Src/stm32h7xx_ll_usb.c ****   return HAL_OK;
  89              		.loc 1 1414 10 view .LVU27
  90 003c 0020     		movs	r0, #0
  91              	.LVL1:
  92              		.loc 1 1414 10 view .LVU28
  93 003e 00E0     		b	.L2
  94              	.LVL2:
  95              	.L5:
1396:Drivers/STM32H7xx_HAL_Driver/Src/stm32h7xx_ll_usb.c ****     }
  96              		.loc 1 1396 14 view .LVU29
  97 0040 0320     		movs	r0, #3
  98              	.LVL3:
  99              	.L2:
1415:Drivers/STM32H7xx_HAL_Driver/Src/stm32h7xx_ll_usb.c **** }
 100              		.loc 1 1415 1 view .LVU30
 101 0042 02B0     		add	sp, sp, #8
 102              	.LCFI1:
 103              		.cfi_remember_state
 104              		.cfi_def_cfa_offset 0
 105              		@ sp needed
 106 0044 7047     		bx	lr
 107              	.LVL4:
 108              	.L6:
 109              	.LCFI2:
 110              		.cfi_restore_state
1410:Drivers/STM32H7xx_HAL_Driver/Src/stm32h7xx_ll_usb.c ****     }
 111              		.loc 1 1410 14 view .LVU31
 112 0046 0320     		movs	r0, #3
 113              	.LVL5:
1410:Drivers/STM32H7xx_HAL_Driver/Src/stm32h7xx_ll_usb.c ****     }
 114              		.loc 1 1410 14 view .LVU32
 115 0048 FBE7     		b	.L2
 116              		.cfi_endproc
 117              	.LFE384:
 119              		.section	.text.USB_CoreInit,"ax",%progbits
 120              		.align	1
 121              		.global	USB_CoreInit
 122              		.syntax unified
 123              		.thumb
ARM GAS  C:\Users\ADMINI~1\AppData\Local\Temp\cceMOlfx.s 			page 28


 124              		.thumb_func
 126              	USB_CoreInit:
 127              	.LVL6:
 128              	.LFB350:
  84:Drivers/STM32H7xx_HAL_Driver/Src/stm32h7xx_ll_usb.c ****   HAL_StatusTypeDef ret;
 129              		.loc 1 84 1 is_stmt 1 view -0
 130              		.cfi_startproc
 131              		@ args = 20, pretend = 16, frame = 0
 132              		@ frame_needed = 0, uses_anonymous_args = 0
  84:Drivers/STM32H7xx_HAL_Driver/Src/stm32h7xx_ll_usb.c ****   HAL_StatusTypeDef ret;
 133              		.loc 1 84 1 is_stmt 0 view .LVU34
 134 0000 84B0     		sub	sp, sp, #16
 135              	.LCFI3:
 136              		.cfi_def_cfa_offset 16
 137 0002 10B5     		push	{r4, lr}
 138              	.LCFI4:
 139              		.cfi_def_cfa_offset 24
 140              		.cfi_offset 4, -24
 141              		.cfi_offset 14, -20
 142 0004 0446     		mov	r4, r0
 143 0006 03A8     		add	r0, sp, #12
 144              	.LVL7:
  84:Drivers/STM32H7xx_HAL_Driver/Src/stm32h7xx_ll_usb.c ****   HAL_StatusTypeDef ret;
 145              		.loc 1 84 1 view .LVU35
 146 0008 80E80E00 		stm	r0, {r1, r2, r3}
  85:Drivers/STM32H7xx_HAL_Driver/Src/stm32h7xx_ll_usb.c ****   if (cfg.phy_itface == USB_OTG_ULPI_PHY)
 147              		.loc 1 85 3 is_stmt 1 view .LVU36
  86:Drivers/STM32H7xx_HAL_Driver/Src/stm32h7xx_ll_usb.c ****   {
 148              		.loc 1 86 3 view .LVU37
  86:Drivers/STM32H7xx_HAL_Driver/Src/stm32h7xx_ll_usb.c ****   {
 149              		.loc 1 86 10 is_stmt 0 view .LVU38
 150 000c 9DF81130 		ldrb	r3, [sp, #17]	@ zero_extendqisi2
  86:Drivers/STM32H7xx_HAL_Driver/Src/stm32h7xx_ll_usb.c ****   {
 151              		.loc 1 86 6 view .LVU39
 152 0010 012B     		cmp	r3, #1
 153 0012 1FD1     		bne	.L9
  88:Drivers/STM32H7xx_HAL_Driver/Src/stm32h7xx_ll_usb.c **** 
 154              		.loc 1 88 5 is_stmt 1 view .LVU40
  88:Drivers/STM32H7xx_HAL_Driver/Src/stm32h7xx_ll_usb.c **** 
 155              		.loc 1 88 9 is_stmt 0 view .LVU41
 156 0014 A36B     		ldr	r3, [r4, #56]
  88:Drivers/STM32H7xx_HAL_Driver/Src/stm32h7xx_ll_usb.c **** 
 157              		.loc 1 88 17 view .LVU42
 158 0016 23F48033 		bic	r3, r3, #65536
 159 001a A363     		str	r3, [r4, #56]
  91:Drivers/STM32H7xx_HAL_Driver/Src/stm32h7xx_ll_usb.c **** 
 160              		.loc 1 91 5 is_stmt 1 view .LVU43
  91:Drivers/STM32H7xx_HAL_Driver/Src/stm32h7xx_ll_usb.c **** 
 161              		.loc 1 91 9 is_stmt 0 view .LVU44
 162 001c E268     		ldr	r2, [r4, #12]
  91:Drivers/STM32H7xx_HAL_Driver/Src/stm32h7xx_ll_usb.c **** 
 163              		.loc 1 91 19 view .LVU45
 164 001e 1F4B     		ldr	r3, .L17
 165 0020 1340     		ands	r3, r3, r2
 166 0022 E360     		str	r3, [r4, #12]
  94:Drivers/STM32H7xx_HAL_Driver/Src/stm32h7xx_ll_usb.c ****     if (cfg.use_external_vbus == 1U)
 167              		.loc 1 94 5 is_stmt 1 view .LVU46
ARM GAS  C:\Users\ADMINI~1\AppData\Local\Temp\cceMOlfx.s 			page 29


  94:Drivers/STM32H7xx_HAL_Driver/Src/stm32h7xx_ll_usb.c ****     if (cfg.use_external_vbus == 1U)
 168              		.loc 1 94 9 is_stmt 0 view .LVU47
 169 0024 E368     		ldr	r3, [r4, #12]
  94:Drivers/STM32H7xx_HAL_Driver/Src/stm32h7xx_ll_usb.c ****     if (cfg.use_external_vbus == 1U)
 170              		.loc 1 94 19 view .LVU48
 171 0026 23F44013 		bic	r3, r3, #3145728
 172 002a E360     		str	r3, [r4, #12]
  95:Drivers/STM32H7xx_HAL_Driver/Src/stm32h7xx_ll_usb.c ****     {
 173              		.loc 1 95 5 is_stmt 1 view .LVU49
  95:Drivers/STM32H7xx_HAL_Driver/Src/stm32h7xx_ll_usb.c ****     {
 174              		.loc 1 95 12 is_stmt 0 view .LVU50
 175 002c 9DF81830 		ldrb	r3, [sp, #24]	@ zero_extendqisi2
  95:Drivers/STM32H7xx_HAL_Driver/Src/stm32h7xx_ll_usb.c ****     {
 176              		.loc 1 95 8 view .LVU51
 177 0030 012B     		cmp	r3, #1
 178 0032 0AD0     		beq	.L15
 179              	.L10:
 101:Drivers/STM32H7xx_HAL_Driver/Src/stm32h7xx_ll_usb.c ****   }
 180              		.loc 1 101 5 is_stmt 1 view .LVU52
 101:Drivers/STM32H7xx_HAL_Driver/Src/stm32h7xx_ll_usb.c ****   }
 181              		.loc 1 101 11 is_stmt 0 view .LVU53
 182 0034 2046     		mov	r0, r4
 183 0036 FFF7FEFF 		bl	USB_CoreReset
 184              	.LVL8:
 185              	.L11:
 123:Drivers/STM32H7xx_HAL_Driver/Src/stm32h7xx_ll_usb.c ****   {
 186              		.loc 1 123 3 is_stmt 1 view .LVU54
 123:Drivers/STM32H7xx_HAL_Driver/Src/stm32h7xx_ll_usb.c ****   {
 187              		.loc 1 123 10 is_stmt 0 view .LVU55
 188 003a 9DF80E30 		ldrb	r3, [sp, #14]	@ zero_extendqisi2
 123:Drivers/STM32H7xx_HAL_Driver/Src/stm32h7xx_ll_usb.c ****   {
 189              		.loc 1 123 6 view .LVU56
 190 003e 012B     		cmp	r3, #1
 191 0040 1CD0     		beq	.L16
 192              	.L13:
 133:Drivers/STM32H7xx_HAL_Driver/Src/stm32h7xx_ll_usb.c **** }
 193              		.loc 1 133 3 is_stmt 1 view .LVU57
 134:Drivers/STM32H7xx_HAL_Driver/Src/stm32h7xx_ll_usb.c **** 
 194              		.loc 1 134 1 is_stmt 0 view .LVU58
 195 0042 BDE81040 		pop	{r4, lr}
 196              	.LCFI5:
 197              		.cfi_remember_state
 198              		.cfi_restore 14
 199              		.cfi_restore 4
 200              		.cfi_def_cfa_offset 16
 201              	.LVL9:
 134:Drivers/STM32H7xx_HAL_Driver/Src/stm32h7xx_ll_usb.c **** 
 202              		.loc 1 134 1 view .LVU59
 203 0046 04B0     		add	sp, sp, #16
 204              	.LCFI6:
 205              		.cfi_def_cfa_offset 0
 206 0048 7047     		bx	lr
 207              	.LVL10:
 208              	.L15:
 209              	.LCFI7:
 210              		.cfi_restore_state
  97:Drivers/STM32H7xx_HAL_Driver/Src/stm32h7xx_ll_usb.c ****     }
ARM GAS  C:\Users\ADMINI~1\AppData\Local\Temp\cceMOlfx.s 			page 30


 211              		.loc 1 97 7 is_stmt 1 view .LVU60
  97:Drivers/STM32H7xx_HAL_Driver/Src/stm32h7xx_ll_usb.c ****     }
 212              		.loc 1 97 11 is_stmt 0 view .LVU61
 213 004a E368     		ldr	r3, [r4, #12]
  97:Drivers/STM32H7xx_HAL_Driver/Src/stm32h7xx_ll_usb.c ****     }
 214              		.loc 1 97 21 view .LVU62
 215 004c 43F48013 		orr	r3, r3, #1048576
 216 0050 E360     		str	r3, [r4, #12]
 217 0052 EFE7     		b	.L10
 218              	.L9:
 106:Drivers/STM32H7xx_HAL_Driver/Src/stm32h7xx_ll_usb.c **** 
 219              		.loc 1 106 5 is_stmt 1 view .LVU63
 106:Drivers/STM32H7xx_HAL_Driver/Src/stm32h7xx_ll_usb.c **** 
 220              		.loc 1 106 9 is_stmt 0 view .LVU64
 221 0054 E368     		ldr	r3, [r4, #12]
 106:Drivers/STM32H7xx_HAL_Driver/Src/stm32h7xx_ll_usb.c **** 
 222              		.loc 1 106 19 view .LVU65
 223 0056 43F04003 		orr	r3, r3, #64
 224 005a E360     		str	r3, [r4, #12]
 109:Drivers/STM32H7xx_HAL_Driver/Src/stm32h7xx_ll_usb.c **** 
 225              		.loc 1 109 5 is_stmt 1 view .LVU66
 109:Drivers/STM32H7xx_HAL_Driver/Src/stm32h7xx_ll_usb.c **** 
 226              		.loc 1 109 11 is_stmt 0 view .LVU67
 227 005c 2046     		mov	r0, r4
 228 005e FFF7FEFF 		bl	USB_CoreReset
 229              	.LVL11:
 111:Drivers/STM32H7xx_HAL_Driver/Src/stm32h7xx_ll_usb.c ****     {
 230              		.loc 1 111 5 is_stmt 1 view .LVU68
 111:Drivers/STM32H7xx_HAL_Driver/Src/stm32h7xx_ll_usb.c ****     {
 231              		.loc 1 111 12 is_stmt 0 view .LVU69
 232 0062 9DF81530 		ldrb	r3, [sp, #21]	@ zero_extendqisi2
 111:Drivers/STM32H7xx_HAL_Driver/Src/stm32h7xx_ll_usb.c ****     {
 233              		.loc 1 111 8 view .LVU70
 234 0066 23B9     		cbnz	r3, .L12
 114:Drivers/STM32H7xx_HAL_Driver/Src/stm32h7xx_ll_usb.c ****     }
 235              		.loc 1 114 7 is_stmt 1 view .LVU71
 114:Drivers/STM32H7xx_HAL_Driver/Src/stm32h7xx_ll_usb.c ****     }
 236              		.loc 1 114 11 is_stmt 0 view .LVU72
 237 0068 A36B     		ldr	r3, [r4, #56]
 114:Drivers/STM32H7xx_HAL_Driver/Src/stm32h7xx_ll_usb.c ****     }
 238              		.loc 1 114 19 view .LVU73
 239 006a 43F48033 		orr	r3, r3, #65536
 240 006e A363     		str	r3, [r4, #56]
 241 0070 E3E7     		b	.L11
 242              	.L12:
 119:Drivers/STM32H7xx_HAL_Driver/Src/stm32h7xx_ll_usb.c ****     }
 243              		.loc 1 119 7 is_stmt 1 view .LVU74
 119:Drivers/STM32H7xx_HAL_Driver/Src/stm32h7xx_ll_usb.c ****     }
 244              		.loc 1 119 11 is_stmt 0 view .LVU75
 245 0072 A36B     		ldr	r3, [r4, #56]
 119:Drivers/STM32H7xx_HAL_Driver/Src/stm32h7xx_ll_usb.c ****     }
 246              		.loc 1 119 19 view .LVU76
 247 0074 23F48033 		bic	r3, r3, #65536
 248 0078 A363     		str	r3, [r4, #56]
 249 007a DEE7     		b	.L11
 250              	.L16:
 126:Drivers/STM32H7xx_HAL_Driver/Src/stm32h7xx_ll_usb.c ****     USBx->GDFIFOCFG |= 0x3EEU << 16;
ARM GAS  C:\Users\ADMINI~1\AppData\Local\Temp\cceMOlfx.s 			page 31


 251              		.loc 1 126 5 is_stmt 1 view .LVU77
 126:Drivers/STM32H7xx_HAL_Driver/Src/stm32h7xx_ll_usb.c ****     USBx->GDFIFOCFG |= 0x3EEU << 16;
 252              		.loc 1 126 9 is_stmt 0 view .LVU78
 253 007c E36D     		ldr	r3, [r4, #92]
 126:Drivers/STM32H7xx_HAL_Driver/Src/stm32h7xx_ll_usb.c ****     USBx->GDFIFOCFG |= 0x3EEU << 16;
 254              		.loc 1 126 21 view .LVU79
 255 007e 9BB2     		uxth	r3, r3
 256 0080 E365     		str	r3, [r4, #92]
 127:Drivers/STM32H7xx_HAL_Driver/Src/stm32h7xx_ll_usb.c **** 
 257              		.loc 1 127 5 is_stmt 1 view .LVU80
 127:Drivers/STM32H7xx_HAL_Driver/Src/stm32h7xx_ll_usb.c **** 
 258              		.loc 1 127 9 is_stmt 0 view .LVU81
 259 0082 E26D     		ldr	r2, [r4, #92]
 127:Drivers/STM32H7xx_HAL_Driver/Src/stm32h7xx_ll_usb.c **** 
 260              		.loc 1 127 21 view .LVU82
 261 0084 064B     		ldr	r3, .L17+4
 262 0086 1343     		orrs	r3, r3, r2
 263 0088 E365     		str	r3, [r4, #92]
 129:Drivers/STM32H7xx_HAL_Driver/Src/stm32h7xx_ll_usb.c ****     USBx->GAHBCFG |= USB_OTG_GAHBCFG_DMAEN;
 264              		.loc 1 129 5 is_stmt 1 view .LVU83
 129:Drivers/STM32H7xx_HAL_Driver/Src/stm32h7xx_ll_usb.c ****     USBx->GAHBCFG |= USB_OTG_GAHBCFG_DMAEN;
 265              		.loc 1 129 9 is_stmt 0 view .LVU84
 266 008a A368     		ldr	r3, [r4, #8]
 129:Drivers/STM32H7xx_HAL_Driver/Src/stm32h7xx_ll_usb.c ****     USBx->GAHBCFG |= USB_OTG_GAHBCFG_DMAEN;
 267              		.loc 1 129 19 view .LVU85
 268 008c 43F00603 		orr	r3, r3, #6
 269 0090 A360     		str	r3, [r4, #8]
 130:Drivers/STM32H7xx_HAL_Driver/Src/stm32h7xx_ll_usb.c ****   }
 270              		.loc 1 130 5 is_stmt 1 view .LVU86
 130:Drivers/STM32H7xx_HAL_Driver/Src/stm32h7xx_ll_usb.c ****   }
 271              		.loc 1 130 9 is_stmt 0 view .LVU87
 272 0092 A368     		ldr	r3, [r4, #8]
 130:Drivers/STM32H7xx_HAL_Driver/Src/stm32h7xx_ll_usb.c ****   }
 273              		.loc 1 130 19 view .LVU88
 274 0094 43F02003 		orr	r3, r3, #32
 275 0098 A360     		str	r3, [r4, #8]
 276 009a D2E7     		b	.L13
 277              	.L18:
 278              		.align	2
 279              	.L17:
 280 009c BFFFBDFF 		.word	-4325441
 281 00a0 0000EE03 		.word	65929216
 282              		.cfi_endproc
 283              	.LFE350:
 285              		.section	.text.USB_SetTurnaroundTime,"ax",%progbits
 286              		.align	1
 287              		.global	USB_SetTurnaroundTime
 288              		.syntax unified
 289              		.thumb
 290              		.thumb_func
 292              	USB_SetTurnaroundTime:
 293              	.LVL12:
 294              	.LFB351:
 145:Drivers/STM32H7xx_HAL_Driver/Src/stm32h7xx_ll_usb.c ****   uint32_t UsbTrd;
 295              		.loc 1 145 1 is_stmt 1 view -0
 296              		.cfi_startproc
 297              		@ args = 0, pretend = 0, frame = 0
ARM GAS  C:\Users\ADMINI~1\AppData\Local\Temp\cceMOlfx.s 			page 32


 298              		@ frame_needed = 0, uses_anonymous_args = 0
 299              		@ link register save eliminated.
 146:Drivers/STM32H7xx_HAL_Driver/Src/stm32h7xx_ll_usb.c **** 
 300              		.loc 1 146 3 view .LVU90
 152:Drivers/STM32H7xx_HAL_Driver/Src/stm32h7xx_ll_usb.c ****   {
 301              		.loc 1 152 3 view .LVU91
 152:Drivers/STM32H7xx_HAL_Driver/Src/stm32h7xx_ll_usb.c ****   {
 302              		.loc 1 152 6 is_stmt 0 view .LVU92
 303 0000 022A     		cmp	r2, #2
 304 0002 0AD0     		beq	.L31
 207:Drivers/STM32H7xx_HAL_Driver/Src/stm32h7xx_ll_usb.c ****   }
 305              		.loc 1 207 12 view .LVU93
 306 0004 0922     		movs	r2, #9
 307              	.LVL13:
 308              	.L20:
 214:Drivers/STM32H7xx_HAL_Driver/Src/stm32h7xx_ll_usb.c ****   USBx->GUSBCFG |= (uint32_t)((UsbTrd << 10) & USB_OTG_GUSBCFG_TRDT);
 309              		.loc 1 214 3 is_stmt 1 view .LVU94
 214:Drivers/STM32H7xx_HAL_Driver/Src/stm32h7xx_ll_usb.c ****   USBx->GUSBCFG |= (uint32_t)((UsbTrd << 10) & USB_OTG_GUSBCFG_TRDT);
 310              		.loc 1 214 7 is_stmt 0 view .LVU95
 311 0006 C368     		ldr	r3, [r0, #12]
 214:Drivers/STM32H7xx_HAL_Driver/Src/stm32h7xx_ll_usb.c ****   USBx->GUSBCFG |= (uint32_t)((UsbTrd << 10) & USB_OTG_GUSBCFG_TRDT);
 312              		.loc 1 214 17 view .LVU96
 313 0008 23F47053 		bic	r3, r3, #15360
 314 000c C360     		str	r3, [r0, #12]
 215:Drivers/STM32H7xx_HAL_Driver/Src/stm32h7xx_ll_usb.c **** 
 315              		.loc 1 215 3 is_stmt 1 view .LVU97
 215:Drivers/STM32H7xx_HAL_Driver/Src/stm32h7xx_ll_usb.c **** 
 316              		.loc 1 215 7 is_stmt 0 view .LVU98
 317 000e C368     		ldr	r3, [r0, #12]
 215:Drivers/STM32H7xx_HAL_Driver/Src/stm32h7xx_ll_usb.c **** 
 318              		.loc 1 215 17 view .LVU99
 319 0010 43EA8223 		orr	r3, r3, r2, lsl #10
 320 0014 C360     		str	r3, [r0, #12]
 217:Drivers/STM32H7xx_HAL_Driver/Src/stm32h7xx_ll_usb.c **** }
 321              		.loc 1 217 3 is_stmt 1 view .LVU100
 218:Drivers/STM32H7xx_HAL_Driver/Src/stm32h7xx_ll_usb.c **** 
 322              		.loc 1 218 1 is_stmt 0 view .LVU101
 323 0016 0020     		movs	r0, #0
 324              	.LVL14:
 218:Drivers/STM32H7xx_HAL_Driver/Src/stm32h7xx_ll_usb.c **** 
 325              		.loc 1 218 1 view .LVU102
 326 0018 7047     		bx	lr
 327              	.LVL15:
 328              	.L31:
 154:Drivers/STM32H7xx_HAL_Driver/Src/stm32h7xx_ll_usb.c ****     {
 329              		.loc 1 154 5 is_stmt 1 view .LVU103
 154:Drivers/STM32H7xx_HAL_Driver/Src/stm32h7xx_ll_usb.c ****     {
 330              		.loc 1 154 29 is_stmt 0 view .LVU104
 331 001a 204B     		ldr	r3, .L32
 332 001c 0B44     		add	r3, r3, r1
 154:Drivers/STM32H7xx_HAL_Driver/Src/stm32h7xx_ll_usb.c ****     {
 333              		.loc 1 154 8 view .LVU105
 334 001e 204A     		ldr	r2, .L32+4
 335              	.LVL16:
 154:Drivers/STM32H7xx_HAL_Driver/Src/stm32h7xx_ll_usb.c ****     {
 336              		.loc 1 154 8 view .LVU106
 337 0020 9342     		cmp	r3, r2
ARM GAS  C:\Users\ADMINI~1\AppData\Local\Temp\cceMOlfx.s 			page 33


 338 0022 29D9     		bls	.L22
 159:Drivers/STM32H7xx_HAL_Driver/Src/stm32h7xx_ll_usb.c ****     {
 339              		.loc 1 159 10 is_stmt 1 view .LVU107
 159:Drivers/STM32H7xx_HAL_Driver/Src/stm32h7xx_ll_usb.c ****     {
 340              		.loc 1 159 34 is_stmt 0 view .LVU108
 341 0024 1F4B     		ldr	r3, .L32+8
 342 0026 0B44     		add	r3, r3, r1
 159:Drivers/STM32H7xx_HAL_Driver/Src/stm32h7xx_ll_usb.c ****     {
 343              		.loc 1 159 13 view .LVU109
 344 0028 1F4A     		ldr	r2, .L32+12
 345 002a 9342     		cmp	r3, r2
 346 002c 26D9     		bls	.L23
 164:Drivers/STM32H7xx_HAL_Driver/Src/stm32h7xx_ll_usb.c ****     {
 347              		.loc 1 164 10 is_stmt 1 view .LVU110
 164:Drivers/STM32H7xx_HAL_Driver/Src/stm32h7xx_ll_usb.c ****     {
 348              		.loc 1 164 34 is_stmt 0 view .LVU111
 349 002e 1F4B     		ldr	r3, .L32+16
 350 0030 0B44     		add	r3, r3, r1
 164:Drivers/STM32H7xx_HAL_Driver/Src/stm32h7xx_ll_usb.c ****     {
 351              		.loc 1 164 13 view .LVU112
 352 0032 1F4A     		ldr	r2, .L32+20
 353 0034 9342     		cmp	r3, r2
 354 0036 23D9     		bls	.L24
 169:Drivers/STM32H7xx_HAL_Driver/Src/stm32h7xx_ll_usb.c ****     {
 355              		.loc 1 169 10 is_stmt 1 view .LVU113
 169:Drivers/STM32H7xx_HAL_Driver/Src/stm32h7xx_ll_usb.c ****     {
 356              		.loc 1 169 34 is_stmt 0 view .LVU114
 357 0038 1E4B     		ldr	r3, .L32+24
 358 003a 0B44     		add	r3, r3, r1
 169:Drivers/STM32H7xx_HAL_Driver/Src/stm32h7xx_ll_usb.c ****     {
 359              		.loc 1 169 13 view .LVU115
 360 003c 1E4A     		ldr	r2, .L32+28
 361 003e 9342     		cmp	r3, r2
 362 0040 20D3     		bcc	.L25
 174:Drivers/STM32H7xx_HAL_Driver/Src/stm32h7xx_ll_usb.c ****     {
 363              		.loc 1 174 10 is_stmt 1 view .LVU116
 174:Drivers/STM32H7xx_HAL_Driver/Src/stm32h7xx_ll_usb.c ****     {
 364              		.loc 1 174 34 is_stmt 0 view .LVU117
 365 0042 1E4B     		ldr	r3, .L32+32
 366 0044 0B44     		add	r3, r3, r1
 174:Drivers/STM32H7xx_HAL_Driver/Src/stm32h7xx_ll_usb.c ****     {
 367              		.loc 1 174 13 view .LVU118
 368 0046 1E4A     		ldr	r2, .L32+36
 369 0048 9342     		cmp	r3, r2
 370 004a 1DD9     		bls	.L26
 179:Drivers/STM32H7xx_HAL_Driver/Src/stm32h7xx_ll_usb.c ****     {
 371              		.loc 1 179 10 is_stmt 1 view .LVU119
 179:Drivers/STM32H7xx_HAL_Driver/Src/stm32h7xx_ll_usb.c ****     {
 372              		.loc 1 179 34 is_stmt 0 view .LVU120
 373 004c 1D4B     		ldr	r3, .L32+40
 374 004e 0B44     		add	r3, r3, r1
 179:Drivers/STM32H7xx_HAL_Driver/Src/stm32h7xx_ll_usb.c ****     {
 375              		.loc 1 179 13 view .LVU121
 376 0050 1D4A     		ldr	r2, .L32+44
 377 0052 9342     		cmp	r3, r2
 378 0054 1AD3     		bcc	.L27
 184:Drivers/STM32H7xx_HAL_Driver/Src/stm32h7xx_ll_usb.c ****     {
ARM GAS  C:\Users\ADMINI~1\AppData\Local\Temp\cceMOlfx.s 			page 34


 379              		.loc 1 184 10 is_stmt 1 view .LVU122
 184:Drivers/STM32H7xx_HAL_Driver/Src/stm32h7xx_ll_usb.c ****     {
 380              		.loc 1 184 34 is_stmt 0 view .LVU123
 381 0056 1D4B     		ldr	r3, .L32+48
 382 0058 0B44     		add	r3, r3, r1
 184:Drivers/STM32H7xx_HAL_Driver/Src/stm32h7xx_ll_usb.c ****     {
 383              		.loc 1 184 13 view .LVU124
 384 005a 1D4A     		ldr	r2, .L32+52
 385 005c 9342     		cmp	r3, r2
 386 005e 17D3     		bcc	.L28
 189:Drivers/STM32H7xx_HAL_Driver/Src/stm32h7xx_ll_usb.c ****     {
 387              		.loc 1 189 10 is_stmt 1 view .LVU125
 189:Drivers/STM32H7xx_HAL_Driver/Src/stm32h7xx_ll_usb.c ****     {
 388              		.loc 1 189 34 is_stmt 0 view .LVU126
 389 0060 1C4B     		ldr	r3, .L32+56
 390 0062 0B44     		add	r3, r3, r1
 189:Drivers/STM32H7xx_HAL_Driver/Src/stm32h7xx_ll_usb.c ****     {
 391              		.loc 1 189 13 view .LVU127
 392 0064 1C4A     		ldr	r2, .L32+60
 393 0066 9342     		cmp	r3, r2
 394 0068 14D3     		bcc	.L29
 194:Drivers/STM32H7xx_HAL_Driver/Src/stm32h7xx_ll_usb.c ****     {
 395              		.loc 1 194 10 is_stmt 1 view .LVU128
 194:Drivers/STM32H7xx_HAL_Driver/Src/stm32h7xx_ll_usb.c ****     {
 396              		.loc 1 194 34 is_stmt 0 view .LVU129
 397 006a 1C4B     		ldr	r3, .L32+64
 398 006c 0B44     		add	r3, r3, r1
 194:Drivers/STM32H7xx_HAL_Driver/Src/stm32h7xx_ll_usb.c ****     {
 399              		.loc 1 194 13 view .LVU130
 400 006e 1C4A     		ldr	r2, .L32+68
 401 0070 9342     		cmp	r3, r2
 402 0072 11D2     		bcs	.L30
 197:Drivers/STM32H7xx_HAL_Driver/Src/stm32h7xx_ll_usb.c ****     }
 403              		.loc 1 197 14 view .LVU131
 404 0074 0722     		movs	r2, #7
 405 0076 C6E7     		b	.L20
 406              	.L22:
 157:Drivers/STM32H7xx_HAL_Driver/Src/stm32h7xx_ll_usb.c ****     }
 407              		.loc 1 157 14 view .LVU132
 408 0078 0F22     		movs	r2, #15
 409 007a C4E7     		b	.L20
 410              	.L23:
 162:Drivers/STM32H7xx_HAL_Driver/Src/stm32h7xx_ll_usb.c ****     }
 411              		.loc 1 162 14 view .LVU133
 412 007c 0E22     		movs	r2, #14
 413 007e C2E7     		b	.L20
 414              	.L24:
 167:Drivers/STM32H7xx_HAL_Driver/Src/stm32h7xx_ll_usb.c ****     }
 415              		.loc 1 167 14 view .LVU134
 416 0080 0D22     		movs	r2, #13
 417 0082 C0E7     		b	.L20
 418              	.L25:
 172:Drivers/STM32H7xx_HAL_Driver/Src/stm32h7xx_ll_usb.c ****     }
 419              		.loc 1 172 14 view .LVU135
 420 0084 0C22     		movs	r2, #12
 421 0086 BEE7     		b	.L20
 422              	.L26:
ARM GAS  C:\Users\ADMINI~1\AppData\Local\Temp\cceMOlfx.s 			page 35


 177:Drivers/STM32H7xx_HAL_Driver/Src/stm32h7xx_ll_usb.c ****     }
 423              		.loc 1 177 14 view .LVU136
 424 0088 0B22     		movs	r2, #11
 425 008a BCE7     		b	.L20
 426              	.L27:
 182:Drivers/STM32H7xx_HAL_Driver/Src/stm32h7xx_ll_usb.c ****     }
 427              		.loc 1 182 14 view .LVU137
 428 008c 0A22     		movs	r2, #10
 429 008e BAE7     		b	.L20
 430              	.L28:
 187:Drivers/STM32H7xx_HAL_Driver/Src/stm32h7xx_ll_usb.c ****     }
 431              		.loc 1 187 14 view .LVU138
 432 0090 0922     		movs	r2, #9
 433 0092 B8E7     		b	.L20
 434              	.L29:
 192:Drivers/STM32H7xx_HAL_Driver/Src/stm32h7xx_ll_usb.c ****     }
 435              		.loc 1 192 14 view .LVU139
 436 0094 0822     		movs	r2, #8
 437 0096 B6E7     		b	.L20
 438              	.L30:
 202:Drivers/STM32H7xx_HAL_Driver/Src/stm32h7xx_ll_usb.c ****     }
 439              		.loc 1 202 14 view .LVU140
 440 0098 0622     		movs	r2, #6
 441 009a B4E7     		b	.L20
 442              	.L33:
 443              		.align	2
 444              	.L32:
 445 009c 405327FF 		.word	-14200000
 446 00a0 FF340C00 		.word	799999
 447 00a4 401E1BFF 		.word	-15000000
 448 00a8 3F420F00 		.word	999999
 449 00ac 00DC0BFF 		.word	-16000000
 450 00b0 7F4F1200 		.word	1199999
 451 00b4 808CF9FE 		.word	-17200000
 452 00b8 20D61300 		.word	1300000
 453 00bc 60B6E5FE 		.word	-18500000
 454 00c0 5FE31600 		.word	1499999
 455 00c4 00D3CEFE 		.word	-20000000
 456 00c8 40771B00 		.word	1800000
 457 00cc C05BB3FE 		.word	-21800000
 458 00d0 C0912100 		.word	2200000
 459 00d4 00CA91FE 		.word	-24000000
 460 00d8 20753800 		.word	3700000
 461 00dc E05459FE 		.word	-27700000
 462 00e0 E09C4100 		.word	4300000
 463              		.cfi_endproc
 464              	.LFE351:
 466              		.section	.text.USB_EnableGlobalInt,"ax",%progbits
 467              		.align	1
 468              		.global	USB_EnableGlobalInt
 469              		.syntax unified
 470              		.thumb
 471              		.thumb_func
 473              	USB_EnableGlobalInt:
 474              	.LVL17:
 475              	.LFB352:
 227:Drivers/STM32H7xx_HAL_Driver/Src/stm32h7xx_ll_usb.c ****   USBx->GAHBCFG |= USB_OTG_GAHBCFG_GINT;
ARM GAS  C:\Users\ADMINI~1\AppData\Local\Temp\cceMOlfx.s 			page 36


 476              		.loc 1 227 1 is_stmt 1 view -0
 477              		.cfi_startproc
 478              		@ args = 0, pretend = 0, frame = 0
 479              		@ frame_needed = 0, uses_anonymous_args = 0
 480              		@ link register save eliminated.
 228:Drivers/STM32H7xx_HAL_Driver/Src/stm32h7xx_ll_usb.c ****   return HAL_OK;
 481              		.loc 1 228 3 view .LVU142
 228:Drivers/STM32H7xx_HAL_Driver/Src/stm32h7xx_ll_usb.c ****   return HAL_OK;
 482              		.loc 1 228 7 is_stmt 0 view .LVU143
 483 0000 8368     		ldr	r3, [r0, #8]
 228:Drivers/STM32H7xx_HAL_Driver/Src/stm32h7xx_ll_usb.c ****   return HAL_OK;
 484              		.loc 1 228 17 view .LVU144
 485 0002 43F00103 		orr	r3, r3, #1
 486 0006 8360     		str	r3, [r0, #8]
 229:Drivers/STM32H7xx_HAL_Driver/Src/stm32h7xx_ll_usb.c **** }
 487              		.loc 1 229 3 is_stmt 1 view .LVU145
 230:Drivers/STM32H7xx_HAL_Driver/Src/stm32h7xx_ll_usb.c **** 
 488              		.loc 1 230 1 is_stmt 0 view .LVU146
 489 0008 0020     		movs	r0, #0
 490              	.LVL18:
 230:Drivers/STM32H7xx_HAL_Driver/Src/stm32h7xx_ll_usb.c **** 
 491              		.loc 1 230 1 view .LVU147
 492 000a 7047     		bx	lr
 493              		.cfi_endproc
 494              	.LFE352:
 496              		.section	.text.USB_DisableGlobalInt,"ax",%progbits
 497              		.align	1
 498              		.global	USB_DisableGlobalInt
 499              		.syntax unified
 500              		.thumb
 501              		.thumb_func
 503              	USB_DisableGlobalInt:
 504              	.LVL19:
 505              	.LFB353:
 239:Drivers/STM32H7xx_HAL_Driver/Src/stm32h7xx_ll_usb.c ****   USBx->GAHBCFG &= ~USB_OTG_GAHBCFG_GINT;
 506              		.loc 1 239 1 is_stmt 1 view -0
 507              		.cfi_startproc
 508              		@ args = 0, pretend = 0, frame = 0
 509              		@ frame_needed = 0, uses_anonymous_args = 0
 510              		@ link register save eliminated.
 240:Drivers/STM32H7xx_HAL_Driver/Src/stm32h7xx_ll_usb.c ****   return HAL_OK;
 511              		.loc 1 240 3 view .LVU149
 240:Drivers/STM32H7xx_HAL_Driver/Src/stm32h7xx_ll_usb.c ****   return HAL_OK;
 512              		.loc 1 240 7 is_stmt 0 view .LVU150
 513 0000 8368     		ldr	r3, [r0, #8]
 240:Drivers/STM32H7xx_HAL_Driver/Src/stm32h7xx_ll_usb.c ****   return HAL_OK;
 514              		.loc 1 240 17 view .LVU151
 515 0002 23F00103 		bic	r3, r3, #1
 516 0006 8360     		str	r3, [r0, #8]
 241:Drivers/STM32H7xx_HAL_Driver/Src/stm32h7xx_ll_usb.c **** }
 517              		.loc 1 241 3 is_stmt 1 view .LVU152
 242:Drivers/STM32H7xx_HAL_Driver/Src/stm32h7xx_ll_usb.c **** 
 518              		.loc 1 242 1 is_stmt 0 view .LVU153
 519 0008 0020     		movs	r0, #0
 520              	.LVL20:
 242:Drivers/STM32H7xx_HAL_Driver/Src/stm32h7xx_ll_usb.c **** 
 521              		.loc 1 242 1 view .LVU154
ARM GAS  C:\Users\ADMINI~1\AppData\Local\Temp\cceMOlfx.s 			page 37


 522 000a 7047     		bx	lr
 523              		.cfi_endproc
 524              	.LFE353:
 526              		.section	.text.USB_FlushTxFifo,"ax",%progbits
 527              		.align	1
 528              		.global	USB_FlushTxFifo
 529              		.syntax unified
 530              		.thumb
 531              		.thumb_func
 533              	USB_FlushTxFifo:
 534              	.LVL21:
 535              	.LFB356:
 453:Drivers/STM32H7xx_HAL_Driver/Src/stm32h7xx_ll_usb.c ****   __IO uint32_t count = 0U;
 536              		.loc 1 453 1 is_stmt 1 view -0
 537              		.cfi_startproc
 538              		@ args = 0, pretend = 0, frame = 8
 539              		@ frame_needed = 0, uses_anonymous_args = 0
 540              		@ link register save eliminated.
 453:Drivers/STM32H7xx_HAL_Driver/Src/stm32h7xx_ll_usb.c ****   __IO uint32_t count = 0U;
 541              		.loc 1 453 1 is_stmt 0 view .LVU156
 542 0000 82B0     		sub	sp, sp, #8
 543              	.LCFI8:
 544              		.cfi_def_cfa_offset 8
 454:Drivers/STM32H7xx_HAL_Driver/Src/stm32h7xx_ll_usb.c **** 
 545              		.loc 1 454 3 is_stmt 1 view .LVU157
 454:Drivers/STM32H7xx_HAL_Driver/Src/stm32h7xx_ll_usb.c **** 
 546              		.loc 1 454 17 is_stmt 0 view .LVU158
 547 0002 0023     		movs	r3, #0
 548 0004 0193     		str	r3, [sp, #4]
 549              	.L38:
 457:Drivers/STM32H7xx_HAL_Driver/Src/stm32h7xx_ll_usb.c ****   {
 550              		.loc 1 457 3 is_stmt 1 view .LVU159
 459:Drivers/STM32H7xx_HAL_Driver/Src/stm32h7xx_ll_usb.c **** 
 551              		.loc 1 459 5 view .LVU160
 459:Drivers/STM32H7xx_HAL_Driver/Src/stm32h7xx_ll_usb.c **** 
 552              		.loc 1 459 10 is_stmt 0 view .LVU161
 553 0006 019B     		ldr	r3, [sp, #4]
 554 0008 0133     		adds	r3, r3, #1
 555 000a 0193     		str	r3, [sp, #4]
 461:Drivers/STM32H7xx_HAL_Driver/Src/stm32h7xx_ll_usb.c ****     {
 556              		.loc 1 461 5 is_stmt 1 view .LVU162
 461:Drivers/STM32H7xx_HAL_Driver/Src/stm32h7xx_ll_usb.c ****     {
 557              		.loc 1 461 15 is_stmt 0 view .LVU163
 558 000c 019B     		ldr	r3, [sp, #4]
 461:Drivers/STM32H7xx_HAL_Driver/Src/stm32h7xx_ll_usb.c ****     {
 559              		.loc 1 461 8 view .LVU164
 560 000e B3F1706F 		cmp	r3, #251658240
 561 0012 15D8     		bhi	.L40
 465:Drivers/STM32H7xx_HAL_Driver/Src/stm32h7xx_ll_usb.c **** 
 562              		.loc 1 465 53 is_stmt 1 view .LVU165
 465:Drivers/STM32H7xx_HAL_Driver/Src/stm32h7xx_ll_usb.c **** 
 563              		.loc 1 465 17 is_stmt 0 view .LVU166
 564 0014 0369     		ldr	r3, [r0, #16]
 465:Drivers/STM32H7xx_HAL_Driver/Src/stm32h7xx_ll_usb.c **** 
 565              		.loc 1 465 53 view .LVU167
 566 0016 002B     		cmp	r3, #0
 567 0018 F5DA     		bge	.L38
ARM GAS  C:\Users\ADMINI~1\AppData\Local\Temp\cceMOlfx.s 			page 38


 468:Drivers/STM32H7xx_HAL_Driver/Src/stm32h7xx_ll_usb.c ****   USBx->GRSTCTL = (USB_OTG_GRSTCTL_TXFFLSH | (num << 6));
 568              		.loc 1 468 3 is_stmt 1 view .LVU168
 468:Drivers/STM32H7xx_HAL_Driver/Src/stm32h7xx_ll_usb.c ****   USBx->GRSTCTL = (USB_OTG_GRSTCTL_TXFFLSH | (num << 6));
 569              		.loc 1 468 9 is_stmt 0 view .LVU169
 570 001a 0023     		movs	r3, #0
 571 001c 0193     		str	r3, [sp, #4]
 469:Drivers/STM32H7xx_HAL_Driver/Src/stm32h7xx_ll_usb.c **** 
 572              		.loc 1 469 3 is_stmt 1 view .LVU170
 469:Drivers/STM32H7xx_HAL_Driver/Src/stm32h7xx_ll_usb.c **** 
 573              		.loc 1 469 51 is_stmt 0 view .LVU171
 574 001e 8901     		lsls	r1, r1, #6
 575              	.LVL22:
 469:Drivers/STM32H7xx_HAL_Driver/Src/stm32h7xx_ll_usb.c **** 
 576              		.loc 1 469 44 view .LVU172
 577 0020 41F02001 		orr	r1, r1, #32
 469:Drivers/STM32H7xx_HAL_Driver/Src/stm32h7xx_ll_usb.c **** 
 578              		.loc 1 469 17 view .LVU173
 579 0024 0161     		str	r1, [r0, #16]
 580              	.L39:
 471:Drivers/STM32H7xx_HAL_Driver/Src/stm32h7xx_ll_usb.c ****   {
 581              		.loc 1 471 3 is_stmt 1 view .LVU174
 473:Drivers/STM32H7xx_HAL_Driver/Src/stm32h7xx_ll_usb.c **** 
 582              		.loc 1 473 5 view .LVU175
 473:Drivers/STM32H7xx_HAL_Driver/Src/stm32h7xx_ll_usb.c **** 
 583              		.loc 1 473 10 is_stmt 0 view .LVU176
 584 0026 019B     		ldr	r3, [sp, #4]
 585 0028 0133     		adds	r3, r3, #1
 586 002a 0193     		str	r3, [sp, #4]
 475:Drivers/STM32H7xx_HAL_Driver/Src/stm32h7xx_ll_usb.c ****     {
 587              		.loc 1 475 5 is_stmt 1 view .LVU177
 475:Drivers/STM32H7xx_HAL_Driver/Src/stm32h7xx_ll_usb.c ****     {
 588              		.loc 1 475 15 is_stmt 0 view .LVU178
 589 002c 019B     		ldr	r3, [sp, #4]
 475:Drivers/STM32H7xx_HAL_Driver/Src/stm32h7xx_ll_usb.c ****     {
 590              		.loc 1 475 8 view .LVU179
 591 002e B3F1706F 		cmp	r3, #251658240
 592 0032 08D8     		bhi	.L41
 479:Drivers/STM32H7xx_HAL_Driver/Src/stm32h7xx_ll_usb.c **** 
 593              		.loc 1 479 54 is_stmt 1 view .LVU180
 479:Drivers/STM32H7xx_HAL_Driver/Src/stm32h7xx_ll_usb.c **** 
 594              		.loc 1 479 17 is_stmt 0 view .LVU181
 595 0034 0369     		ldr	r3, [r0, #16]
 479:Drivers/STM32H7xx_HAL_Driver/Src/stm32h7xx_ll_usb.c **** 
 596              		.loc 1 479 54 view .LVU182
 597 0036 13F0200F 		tst	r3, #32
 598 003a F4D1     		bne	.L39
 481:Drivers/STM32H7xx_HAL_Driver/Src/stm32h7xx_ll_usb.c **** }
 599              		.loc 1 481 10 view .LVU183
 600 003c 0020     		movs	r0, #0
 601              	.LVL23:
 481:Drivers/STM32H7xx_HAL_Driver/Src/stm32h7xx_ll_usb.c **** }
 602              		.loc 1 481 10 view .LVU184
 603 003e 00E0     		b	.L37
 604              	.LVL24:
 605              	.L40:
 463:Drivers/STM32H7xx_HAL_Driver/Src/stm32h7xx_ll_usb.c ****     }
 606              		.loc 1 463 14 view .LVU185
ARM GAS  C:\Users\ADMINI~1\AppData\Local\Temp\cceMOlfx.s 			page 39


 607 0040 0320     		movs	r0, #3
 608              	.LVL25:
 609              	.L37:
 482:Drivers/STM32H7xx_HAL_Driver/Src/stm32h7xx_ll_usb.c **** 
 610              		.loc 1 482 1 view .LVU186
 611 0042 02B0     		add	sp, sp, #8
 612              	.LCFI9:
 613              		.cfi_remember_state
 614              		.cfi_def_cfa_offset 0
 615              		@ sp needed
 616 0044 7047     		bx	lr
 617              	.LVL26:
 618              	.L41:
 619              	.LCFI10:
 620              		.cfi_restore_state
 477:Drivers/STM32H7xx_HAL_Driver/Src/stm32h7xx_ll_usb.c ****     }
 621              		.loc 1 477 14 view .LVU187
 622 0046 0320     		movs	r0, #3
 623              	.LVL27:
 477:Drivers/STM32H7xx_HAL_Driver/Src/stm32h7xx_ll_usb.c ****     }
 624              		.loc 1 477 14 view .LVU188
 625 0048 FBE7     		b	.L37
 626              		.cfi_endproc
 627              	.LFE356:
 629              		.section	.text.USB_FlushRxFifo,"ax",%progbits
 630              		.align	1
 631              		.global	USB_FlushRxFifo
 632              		.syntax unified
 633              		.thumb
 634              		.thumb_func
 636              	USB_FlushRxFifo:
 637              	.LVL28:
 638              	.LFB357:
 490:Drivers/STM32H7xx_HAL_Driver/Src/stm32h7xx_ll_usb.c ****   __IO uint32_t count = 0U;
 639              		.loc 1 490 1 is_stmt 1 view -0
 640              		.cfi_startproc
 641              		@ args = 0, pretend = 0, frame = 8
 642              		@ frame_needed = 0, uses_anonymous_args = 0
 643              		@ link register save eliminated.
 490:Drivers/STM32H7xx_HAL_Driver/Src/stm32h7xx_ll_usb.c ****   __IO uint32_t count = 0U;
 644              		.loc 1 490 1 is_stmt 0 view .LVU190
 645 0000 82B0     		sub	sp, sp, #8
 646              	.LCFI11:
 647              		.cfi_def_cfa_offset 8
 491:Drivers/STM32H7xx_HAL_Driver/Src/stm32h7xx_ll_usb.c **** 
 648              		.loc 1 491 3 is_stmt 1 view .LVU191
 491:Drivers/STM32H7xx_HAL_Driver/Src/stm32h7xx_ll_usb.c **** 
 649              		.loc 1 491 17 is_stmt 0 view .LVU192
 650 0002 0023     		movs	r3, #0
 651 0004 0193     		str	r3, [sp, #4]
 652              	.L45:
 494:Drivers/STM32H7xx_HAL_Driver/Src/stm32h7xx_ll_usb.c ****   {
 653              		.loc 1 494 3 is_stmt 1 view .LVU193
 496:Drivers/STM32H7xx_HAL_Driver/Src/stm32h7xx_ll_usb.c **** 
 654              		.loc 1 496 5 view .LVU194
 496:Drivers/STM32H7xx_HAL_Driver/Src/stm32h7xx_ll_usb.c **** 
 655              		.loc 1 496 10 is_stmt 0 view .LVU195
ARM GAS  C:\Users\ADMINI~1\AppData\Local\Temp\cceMOlfx.s 			page 40


 656 0006 019B     		ldr	r3, [sp, #4]
 657 0008 0133     		adds	r3, r3, #1
 658 000a 0193     		str	r3, [sp, #4]
 498:Drivers/STM32H7xx_HAL_Driver/Src/stm32h7xx_ll_usb.c ****     {
 659              		.loc 1 498 5 is_stmt 1 view .LVU196
 498:Drivers/STM32H7xx_HAL_Driver/Src/stm32h7xx_ll_usb.c ****     {
 660              		.loc 1 498 15 is_stmt 0 view .LVU197
 661 000c 019B     		ldr	r3, [sp, #4]
 498:Drivers/STM32H7xx_HAL_Driver/Src/stm32h7xx_ll_usb.c ****     {
 662              		.loc 1 498 8 view .LVU198
 663 000e B3F1706F 		cmp	r3, #251658240
 664 0012 13D8     		bhi	.L47
 502:Drivers/STM32H7xx_HAL_Driver/Src/stm32h7xx_ll_usb.c **** 
 665              		.loc 1 502 53 is_stmt 1 view .LVU199
 502:Drivers/STM32H7xx_HAL_Driver/Src/stm32h7xx_ll_usb.c **** 
 666              		.loc 1 502 17 is_stmt 0 view .LVU200
 667 0014 0369     		ldr	r3, [r0, #16]
 502:Drivers/STM32H7xx_HAL_Driver/Src/stm32h7xx_ll_usb.c **** 
 668              		.loc 1 502 53 view .LVU201
 669 0016 002B     		cmp	r3, #0
 670 0018 F5DA     		bge	.L45
 505:Drivers/STM32H7xx_HAL_Driver/Src/stm32h7xx_ll_usb.c ****   USBx->GRSTCTL = USB_OTG_GRSTCTL_RXFFLSH;
 671              		.loc 1 505 3 is_stmt 1 view .LVU202
 505:Drivers/STM32H7xx_HAL_Driver/Src/stm32h7xx_ll_usb.c ****   USBx->GRSTCTL = USB_OTG_GRSTCTL_RXFFLSH;
 672              		.loc 1 505 9 is_stmt 0 view .LVU203
 673 001a 0023     		movs	r3, #0
 674 001c 0193     		str	r3, [sp, #4]
 506:Drivers/STM32H7xx_HAL_Driver/Src/stm32h7xx_ll_usb.c **** 
 675              		.loc 1 506 3 is_stmt 1 view .LVU204
 506:Drivers/STM32H7xx_HAL_Driver/Src/stm32h7xx_ll_usb.c **** 
 676              		.loc 1 506 17 is_stmt 0 view .LVU205
 677 001e 1023     		movs	r3, #16
 678 0020 0361     		str	r3, [r0, #16]
 679              	.L46:
 508:Drivers/STM32H7xx_HAL_Driver/Src/stm32h7xx_ll_usb.c ****   {
 680              		.loc 1 508 3 is_stmt 1 view .LVU206
 510:Drivers/STM32H7xx_HAL_Driver/Src/stm32h7xx_ll_usb.c **** 
 681              		.loc 1 510 5 view .LVU207
 510:Drivers/STM32H7xx_HAL_Driver/Src/stm32h7xx_ll_usb.c **** 
 682              		.loc 1 510 10 is_stmt 0 view .LVU208
 683 0022 019B     		ldr	r3, [sp, #4]
 684 0024 0133     		adds	r3, r3, #1
 685 0026 0193     		str	r3, [sp, #4]
 512:Drivers/STM32H7xx_HAL_Driver/Src/stm32h7xx_ll_usb.c ****     {
 686              		.loc 1 512 5 is_stmt 1 view .LVU209
 512:Drivers/STM32H7xx_HAL_Driver/Src/stm32h7xx_ll_usb.c ****     {
 687              		.loc 1 512 15 is_stmt 0 view .LVU210
 688 0028 019B     		ldr	r3, [sp, #4]
 512:Drivers/STM32H7xx_HAL_Driver/Src/stm32h7xx_ll_usb.c ****     {
 689              		.loc 1 512 8 view .LVU211
 690 002a B3F1706F 		cmp	r3, #251658240
 691 002e 08D8     		bhi	.L48
 516:Drivers/STM32H7xx_HAL_Driver/Src/stm32h7xx_ll_usb.c **** 
 692              		.loc 1 516 54 is_stmt 1 view .LVU212
 516:Drivers/STM32H7xx_HAL_Driver/Src/stm32h7xx_ll_usb.c **** 
 693              		.loc 1 516 17 is_stmt 0 view .LVU213
 694 0030 0369     		ldr	r3, [r0, #16]
ARM GAS  C:\Users\ADMINI~1\AppData\Local\Temp\cceMOlfx.s 			page 41


 516:Drivers/STM32H7xx_HAL_Driver/Src/stm32h7xx_ll_usb.c **** 
 695              		.loc 1 516 54 view .LVU214
 696 0032 13F0100F 		tst	r3, #16
 697 0036 F4D1     		bne	.L46
 518:Drivers/STM32H7xx_HAL_Driver/Src/stm32h7xx_ll_usb.c **** }
 698              		.loc 1 518 10 view .LVU215
 699 0038 0020     		movs	r0, #0
 700              	.LVL29:
 518:Drivers/STM32H7xx_HAL_Driver/Src/stm32h7xx_ll_usb.c **** }
 701              		.loc 1 518 10 view .LVU216
 702 003a 00E0     		b	.L44
 703              	.LVL30:
 704              	.L47:
 500:Drivers/STM32H7xx_HAL_Driver/Src/stm32h7xx_ll_usb.c ****     }
 705              		.loc 1 500 14 view .LVU217
 706 003c 0320     		movs	r0, #3
 707              	.LVL31:
 708              	.L44:
 519:Drivers/STM32H7xx_HAL_Driver/Src/stm32h7xx_ll_usb.c **** 
 709              		.loc 1 519 1 view .LVU218
 710 003e 02B0     		add	sp, sp, #8
 711              	.LCFI12:
 712              		.cfi_remember_state
 713              		.cfi_def_cfa_offset 0
 714              		@ sp needed
 715 0040 7047     		bx	lr
 716              	.LVL32:
 717              	.L48:
 718              	.LCFI13:
 719              		.cfi_restore_state
 514:Drivers/STM32H7xx_HAL_Driver/Src/stm32h7xx_ll_usb.c ****     }
 720              		.loc 1 514 14 view .LVU219
 721 0042 0320     		movs	r0, #3
 722              	.LVL33:
 514:Drivers/STM32H7xx_HAL_Driver/Src/stm32h7xx_ll_usb.c ****     }
 723              		.loc 1 514 14 view .LVU220
 724 0044 FBE7     		b	.L44
 725              		.cfi_endproc
 726              	.LFE357:
 728              		.section	.text.USB_SetDevSpeed,"ax",%progbits
 729              		.align	1
 730              		.global	USB_SetDevSpeed
 731              		.syntax unified
 732              		.thumb
 733              		.thumb_func
 735              	USB_SetDevSpeed:
 736              	.LVL34:
 737              	.LFB358:
 533:Drivers/STM32H7xx_HAL_Driver/Src/stm32h7xx_ll_usb.c ****   uint32_t USBx_BASE = (uint32_t)USBx;
 738              		.loc 1 533 1 is_stmt 1 view -0
 739              		.cfi_startproc
 740              		@ args = 0, pretend = 0, frame = 0
 741              		@ frame_needed = 0, uses_anonymous_args = 0
 742              		@ link register save eliminated.
 534:Drivers/STM32H7xx_HAL_Driver/Src/stm32h7xx_ll_usb.c **** 
 743              		.loc 1 534 3 view .LVU222
 536:Drivers/STM32H7xx_HAL_Driver/Src/stm32h7xx_ll_usb.c ****   return HAL_OK;
ARM GAS  C:\Users\ADMINI~1\AppData\Local\Temp\cceMOlfx.s 			page 42


 744              		.loc 1 536 3 view .LVU223
 536:Drivers/STM32H7xx_HAL_Driver/Src/stm32h7xx_ll_usb.c ****   return HAL_OK;
 745              		.loc 1 536 14 is_stmt 0 view .LVU224
 746 0000 D0F80038 		ldr	r3, [r0, #2048]
 536:Drivers/STM32H7xx_HAL_Driver/Src/stm32h7xx_ll_usb.c ****   return HAL_OK;
 747              		.loc 1 536 21 view .LVU225
 748 0004 1943     		orrs	r1, r1, r3
 749              	.LVL35:
 536:Drivers/STM32H7xx_HAL_Driver/Src/stm32h7xx_ll_usb.c ****   return HAL_OK;
 750              		.loc 1 536 21 view .LVU226
 751 0006 C0F80018 		str	r1, [r0, #2048]
 537:Drivers/STM32H7xx_HAL_Driver/Src/stm32h7xx_ll_usb.c **** }
 752              		.loc 1 537 3 is_stmt 1 view .LVU227
 538:Drivers/STM32H7xx_HAL_Driver/Src/stm32h7xx_ll_usb.c **** 
 753              		.loc 1 538 1 is_stmt 0 view .LVU228
 754 000a 0020     		movs	r0, #0
 755              	.LVL36:
 538:Drivers/STM32H7xx_HAL_Driver/Src/stm32h7xx_ll_usb.c **** 
 756              		.loc 1 538 1 view .LVU229
 757 000c 7047     		bx	lr
 758              		.cfi_endproc
 759              	.LFE358:
 761              		.section	.text.USB_DevInit,"ax",%progbits
 762              		.align	1
 763              		.global	USB_DevInit
 764              		.syntax unified
 765              		.thumb
 766              		.thumb_func
 768              	USB_DevInit:
 769              	.LVL37:
 770              	.LFB355:
 301:Drivers/STM32H7xx_HAL_Driver/Src/stm32h7xx_ll_usb.c ****   HAL_StatusTypeDef ret = HAL_OK;
 771              		.loc 1 301 1 is_stmt 1 view -0
 772              		.cfi_startproc
 773              		@ args = 20, pretend = 16, frame = 0
 774              		@ frame_needed = 0, uses_anonymous_args = 0
 301:Drivers/STM32H7xx_HAL_Driver/Src/stm32h7xx_ll_usb.c ****   HAL_StatusTypeDef ret = HAL_OK;
 775              		.loc 1 301 1 is_stmt 0 view .LVU231
 776 0000 84B0     		sub	sp, sp, #16
 777              	.LCFI14:
 778              		.cfi_def_cfa_offset 16
 779 0002 70B5     		push	{r4, r5, r6, lr}
 780              	.LCFI15:
 781              		.cfi_def_cfa_offset 32
 782              		.cfi_offset 4, -32
 783              		.cfi_offset 5, -28
 784              		.cfi_offset 6, -24
 785              		.cfi_offset 14, -20
 786 0004 0446     		mov	r4, r0
 787 0006 05A8     		add	r0, sp, #20
 788              	.LVL38:
 301:Drivers/STM32H7xx_HAL_Driver/Src/stm32h7xx_ll_usb.c ****   HAL_StatusTypeDef ret = HAL_OK;
 789              		.loc 1 301 1 view .LVU232
 790 0008 80E80E00 		stm	r0, {r1, r2, r3}
 302:Drivers/STM32H7xx_HAL_Driver/Src/stm32h7xx_ll_usb.c ****   uint32_t USBx_BASE = (uint32_t)USBx;
 791              		.loc 1 302 3 is_stmt 1 view .LVU233
 792              	.LVL39:
ARM GAS  C:\Users\ADMINI~1\AppData\Local\Temp\cceMOlfx.s 			page 43


 303:Drivers/STM32H7xx_HAL_Driver/Src/stm32h7xx_ll_usb.c ****   uint32_t i;
 793              		.loc 1 303 3 view .LVU234
 304:Drivers/STM32H7xx_HAL_Driver/Src/stm32h7xx_ll_usb.c **** 
 794              		.loc 1 304 3 view .LVU235
 306:Drivers/STM32H7xx_HAL_Driver/Src/stm32h7xx_ll_usb.c ****   {
 795              		.loc 1 306 3 view .LVU236
 306:Drivers/STM32H7xx_HAL_Driver/Src/stm32h7xx_ll_usb.c ****   {
 796              		.loc 1 306 10 is_stmt 0 view .LVU237
 797 000c 0023     		movs	r3, #0
 306:Drivers/STM32H7xx_HAL_Driver/Src/stm32h7xx_ll_usb.c ****   {
 798              		.loc 1 306 3 view .LVU238
 799 000e 06E0     		b	.L52
 800              	.LVL40:
 801              	.L53:
 308:Drivers/STM32H7xx_HAL_Driver/Src/stm32h7xx_ll_usb.c ****   }
 802              		.loc 1 308 5 is_stmt 1 view .LVU239
 308:Drivers/STM32H7xx_HAL_Driver/Src/stm32h7xx_ll_usb.c ****   }
 803              		.loc 1 308 22 is_stmt 0 view .LVU240
 804 0010 03F14002 		add	r2, r3, #64
 805 0014 04EB8202 		add	r2, r4, r2, lsl #2
 806 0018 0021     		movs	r1, #0
 807 001a 5160     		str	r1, [r2, #4]
 306:Drivers/STM32H7xx_HAL_Driver/Src/stm32h7xx_ll_usb.c ****   {
 808              		.loc 1 306 26 is_stmt 1 discriminator 3 view .LVU241
 809 001c 0133     		adds	r3, r3, #1
 810              	.LVL41:
 811              	.L52:
 306:Drivers/STM32H7xx_HAL_Driver/Src/stm32h7xx_ll_usb.c ****   {
 812              		.loc 1 306 18 discriminator 1 view .LVU242
 813 001e 0E2B     		cmp	r3, #14
 814 0020 F6D9     		bls	.L53
 312:Drivers/STM32H7xx_HAL_Driver/Src/stm32h7xx_ll_usb.c ****   {
 815              		.loc 1 312 3 view .LVU243
 312:Drivers/STM32H7xx_HAL_Driver/Src/stm32h7xx_ll_usb.c ****   {
 816              		.loc 1 312 10 is_stmt 0 view .LVU244
 817 0022 9DF81E50 		ldrb	r5, [sp, #30]	@ zero_extendqisi2
 312:Drivers/STM32H7xx_HAL_Driver/Src/stm32h7xx_ll_usb.c ****   {
 818              		.loc 1 312 6 view .LVU245
 819 0026 05BB     		cbnz	r5, .L54
 314:Drivers/STM32H7xx_HAL_Driver/Src/stm32h7xx_ll_usb.c **** 
 820              		.loc 1 314 5 is_stmt 1 view .LVU246
 314:Drivers/STM32H7xx_HAL_Driver/Src/stm32h7xx_ll_usb.c **** 
 821              		.loc 1 314 16 is_stmt 0 view .LVU247
 822 0028 D4F80438 		ldr	r3, [r4, #2052]
 823              	.LVL42:
 314:Drivers/STM32H7xx_HAL_Driver/Src/stm32h7xx_ll_usb.c **** 
 824              		.loc 1 314 23 view .LVU248
 825 002c 43F00203 		orr	r3, r3, #2
 826 0030 C4F80438 		str	r3, [r4, #2052]
 317:Drivers/STM32H7xx_HAL_Driver/Src/stm32h7xx_ll_usb.c **** 
 827              		.loc 1 317 5 is_stmt 1 view .LVU249
 317:Drivers/STM32H7xx_HAL_Driver/Src/stm32h7xx_ll_usb.c **** 
 828              		.loc 1 317 9 is_stmt 0 view .LVU250
 829 0034 A36B     		ldr	r3, [r4, #56]
 317:Drivers/STM32H7xx_HAL_Driver/Src/stm32h7xx_ll_usb.c **** 
 830              		.loc 1 317 17 view .LVU251
 831 0036 23F40013 		bic	r3, r3, #2097152
ARM GAS  C:\Users\ADMINI~1\AppData\Local\Temp\cceMOlfx.s 			page 44


 832 003a A363     		str	r3, [r4, #56]
 320:Drivers/STM32H7xx_HAL_Driver/Src/stm32h7xx_ll_usb.c ****     USBx->GOTGCTL |= USB_OTG_GOTGCTL_BVALOVAL;
 833              		.loc 1 320 5 is_stmt 1 view .LVU252
 320:Drivers/STM32H7xx_HAL_Driver/Src/stm32h7xx_ll_usb.c ****     USBx->GOTGCTL |= USB_OTG_GOTGCTL_BVALOVAL;
 834              		.loc 1 320 9 is_stmt 0 view .LVU253
 835 003c 2368     		ldr	r3, [r4]
 320:Drivers/STM32H7xx_HAL_Driver/Src/stm32h7xx_ll_usb.c ****     USBx->GOTGCTL |= USB_OTG_GOTGCTL_BVALOVAL;
 836              		.loc 1 320 19 view .LVU254
 837 003e 43F04003 		orr	r3, r3, #64
 838 0042 2360     		str	r3, [r4]
 321:Drivers/STM32H7xx_HAL_Driver/Src/stm32h7xx_ll_usb.c ****   }
 839              		.loc 1 321 5 is_stmt 1 view .LVU255
 321:Drivers/STM32H7xx_HAL_Driver/Src/stm32h7xx_ll_usb.c ****   }
 840              		.loc 1 321 9 is_stmt 0 view .LVU256
 841 0044 2368     		ldr	r3, [r4]
 321:Drivers/STM32H7xx_HAL_Driver/Src/stm32h7xx_ll_usb.c ****   }
 842              		.loc 1 321 19 view .LVU257
 843 0046 43F08003 		orr	r3, r3, #128
 844 004a 2360     		str	r3, [r4]
 845              	.L55:
 330:Drivers/STM32H7xx_HAL_Driver/Src/stm32h7xx_ll_usb.c **** 
 846              		.loc 1 330 3 is_stmt 1 view .LVU258
 330:Drivers/STM32H7xx_HAL_Driver/Src/stm32h7xx_ll_usb.c **** 
 847              		.loc 1 330 16 is_stmt 0 view .LVU259
 848 004c 0023     		movs	r3, #0
 849 004e C4F8003E 		str	r3, [r4, #3584]
 332:Drivers/STM32H7xx_HAL_Driver/Src/stm32h7xx_ll_usb.c ****   {
 850              		.loc 1 332 3 is_stmt 1 view .LVU260
 332:Drivers/STM32H7xx_HAL_Driver/Src/stm32h7xx_ll_usb.c ****   {
 851              		.loc 1 332 10 is_stmt 0 view .LVU261
 852 0052 9DF81930 		ldrb	r3, [sp, #25]	@ zero_extendqisi2
 332:Drivers/STM32H7xx_HAL_Driver/Src/stm32h7xx_ll_usb.c ****   {
 853              		.loc 1 332 6 view .LVU262
 854 0056 012B     		cmp	r3, #1
 855 0058 11D1     		bne	.L56
 334:Drivers/STM32H7xx_HAL_Driver/Src/stm32h7xx_ll_usb.c ****     {
 856              		.loc 1 334 5 is_stmt 1 view .LVU263
 334:Drivers/STM32H7xx_HAL_Driver/Src/stm32h7xx_ll_usb.c ****     {
 857              		.loc 1 334 12 is_stmt 0 view .LVU264
 858 005a 9DF81730 		ldrb	r3, [sp, #23]	@ zero_extendqisi2
 334:Drivers/STM32H7xx_HAL_Driver/Src/stm32h7xx_ll_usb.c ****     {
 859              		.loc 1 334 8 view .LVU265
 860 005e 4BB9     		cbnz	r3, .L57
 337:Drivers/STM32H7xx_HAL_Driver/Src/stm32h7xx_ll_usb.c ****     }
 861              		.loc 1 337 7 is_stmt 1 view .LVU266
 337:Drivers/STM32H7xx_HAL_Driver/Src/stm32h7xx_ll_usb.c ****     }
 862              		.loc 1 337 13 is_stmt 0 view .LVU267
 863 0060 1946     		mov	r1, r3
 864 0062 2046     		mov	r0, r4
 865 0064 FFF7FEFF 		bl	USB_SetDevSpeed
 866              	.LVL43:
 867 0068 0DE0     		b	.L58
 868              	.LVL44:
 869              	.L54:
 326:Drivers/STM32H7xx_HAL_Driver/Src/stm32h7xx_ll_usb.c ****   }
 870              		.loc 1 326 5 is_stmt 1 view .LVU268
 326:Drivers/STM32H7xx_HAL_Driver/Src/stm32h7xx_ll_usb.c ****   }
ARM GAS  C:\Users\ADMINI~1\AppData\Local\Temp\cceMOlfx.s 			page 45


 871              		.loc 1 326 9 is_stmt 0 view .LVU269
 872 006a A36B     		ldr	r3, [r4, #56]
 873              	.LVL45:
 326:Drivers/STM32H7xx_HAL_Driver/Src/stm32h7xx_ll_usb.c ****   }
 874              		.loc 1 326 17 view .LVU270
 875 006c 43F40013 		orr	r3, r3, #2097152
 876 0070 A363     		str	r3, [r4, #56]
 877 0072 EBE7     		b	.L55
 878              	.L57:
 342:Drivers/STM32H7xx_HAL_Driver/Src/stm32h7xx_ll_usb.c ****     }
 879              		.loc 1 342 7 is_stmt 1 view .LVU271
 342:Drivers/STM32H7xx_HAL_Driver/Src/stm32h7xx_ll_usb.c ****     }
 880              		.loc 1 342 13 is_stmt 0 view .LVU272
 881 0074 0121     		movs	r1, #1
 882 0076 2046     		mov	r0, r4
 883 0078 FFF7FEFF 		bl	USB_SetDevSpeed
 884              	.LVL46:
 885 007c 03E0     		b	.L58
 886              	.L56:
 348:Drivers/STM32H7xx_HAL_Driver/Src/stm32h7xx_ll_usb.c ****   }
 887              		.loc 1 348 5 is_stmt 1 view .LVU273
 348:Drivers/STM32H7xx_HAL_Driver/Src/stm32h7xx_ll_usb.c ****   }
 888              		.loc 1 348 11 is_stmt 0 view .LVU274
 889 007e 0321     		movs	r1, #3
 890 0080 2046     		mov	r0, r4
 891 0082 FFF7FEFF 		bl	USB_SetDevSpeed
 892              	.LVL47:
 893              	.L58:
 352:Drivers/STM32H7xx_HAL_Driver/Src/stm32h7xx_ll_usb.c ****   {
 894              		.loc 1 352 3 is_stmt 1 view .LVU275
 352:Drivers/STM32H7xx_HAL_Driver/Src/stm32h7xx_ll_usb.c ****   {
 895              		.loc 1 352 7 is_stmt 0 view .LVU276
 896 0086 1021     		movs	r1, #16
 897 0088 2046     		mov	r0, r4
 898 008a FFF7FEFF 		bl	USB_FlushTxFifo
 899              	.LVL48:
 352:Drivers/STM32H7xx_HAL_Driver/Src/stm32h7xx_ll_usb.c ****   {
 900              		.loc 1 352 6 discriminator 1 view .LVU277
 901 008e 0646     		mov	r6, r0
 902 0090 08B1     		cbz	r0, .L59
 354:Drivers/STM32H7xx_HAL_Driver/Src/stm32h7xx_ll_usb.c ****   }
 903              		.loc 1 354 9 view .LVU278
 904 0092 0123     		movs	r3, #1
 905 0094 1E46     		mov	r6, r3
 906              	.L59:
 907              	.LVL49:
 357:Drivers/STM32H7xx_HAL_Driver/Src/stm32h7xx_ll_usb.c ****   {
 908              		.loc 1 357 3 is_stmt 1 view .LVU279
 357:Drivers/STM32H7xx_HAL_Driver/Src/stm32h7xx_ll_usb.c ****   {
 909              		.loc 1 357 7 is_stmt 0 view .LVU280
 910 0096 2046     		mov	r0, r4
 911 0098 FFF7FEFF 		bl	USB_FlushRxFifo
 912              	.LVL50:
 357:Drivers/STM32H7xx_HAL_Driver/Src/stm32h7xx_ll_usb.c ****   {
 913              		.loc 1 357 6 discriminator 1 view .LVU281
 914 009c 08B1     		cbz	r0, .L60
 359:Drivers/STM32H7xx_HAL_Driver/Src/stm32h7xx_ll_usb.c ****   }
ARM GAS  C:\Users\ADMINI~1\AppData\Local\Temp\cceMOlfx.s 			page 46


 915              		.loc 1 359 9 view .LVU282
 916 009e 0123     		movs	r3, #1
 917 00a0 1E46     		mov	r6, r3
 918              	.LVL51:
 919              	.L60:
 363:Drivers/STM32H7xx_HAL_Driver/Src/stm32h7xx_ll_usb.c ****   USBx_DEVICE->DOEPMSK = 0U;
 920              		.loc 1 363 3 is_stmt 1 view .LVU283
 921 00a2 04F5006C 		add	ip, r4, #2048
 363:Drivers/STM32H7xx_HAL_Driver/Src/stm32h7xx_ll_usb.c ****   USBx_DEVICE->DOEPMSK = 0U;
 922              		.loc 1 363 24 is_stmt 0 view .LVU284
 923 00a6 0023     		movs	r3, #0
 924 00a8 CCF81030 		str	r3, [ip, #16]
 364:Drivers/STM32H7xx_HAL_Driver/Src/stm32h7xx_ll_usb.c ****   USBx_DEVICE->DAINTMSK = 0U;
 925              		.loc 1 364 3 is_stmt 1 view .LVU285
 364:Drivers/STM32H7xx_HAL_Driver/Src/stm32h7xx_ll_usb.c ****   USBx_DEVICE->DAINTMSK = 0U;
 926              		.loc 1 364 24 is_stmt 0 view .LVU286
 927 00ac CCF81430 		str	r3, [ip, #20]
 365:Drivers/STM32H7xx_HAL_Driver/Src/stm32h7xx_ll_usb.c **** 
 928              		.loc 1 365 3 is_stmt 1 view .LVU287
 365:Drivers/STM32H7xx_HAL_Driver/Src/stm32h7xx_ll_usb.c **** 
 929              		.loc 1 365 25 is_stmt 0 view .LVU288
 930 00b0 CCF81C30 		str	r3, [ip, #28]
 367:Drivers/STM32H7xx_HAL_Driver/Src/stm32h7xx_ll_usb.c ****   {
 931              		.loc 1 367 3 is_stmt 1 view .LVU289
 932              	.LVL52:
 367:Drivers/STM32H7xx_HAL_Driver/Src/stm32h7xx_ll_usb.c ****   {
 933              		.loc 1 367 3 is_stmt 0 view .LVU290
 934 00b4 0DE0     		b	.L61
 935              	.LVL53:
 936              	.L63:
 377:Drivers/STM32H7xx_HAL_Driver/Src/stm32h7xx_ll_usb.c ****       }
 937              		.loc 1 377 9 is_stmt 1 view .LVU291
 377:Drivers/STM32H7xx_HAL_Driver/Src/stm32h7xx_ll_usb.c ****       }
 938              		.loc 1 377 31 is_stmt 0 view .LVU292
 939 00b6 4FF09040 		mov	r0, #1207959552
 940 00ba C2F80009 		str	r0, [r2, #2304]
 941 00be 02E0     		b	.L64
 942              	.L62:
 382:Drivers/STM32H7xx_HAL_Driver/Src/stm32h7xx_ll_usb.c ****     }
 943              		.loc 1 382 7 is_stmt 1 view .LVU293
 382:Drivers/STM32H7xx_HAL_Driver/Src/stm32h7xx_ll_usb.c ****     }
 944              		.loc 1 382 29 is_stmt 0 view .LVU294
 945 00c0 0020     		movs	r0, #0
 946 00c2 C2F80009 		str	r0, [r2, #2304]
 947              	.L64:
 385:Drivers/STM32H7xx_HAL_Driver/Src/stm32h7xx_ll_usb.c ****     USBx_INEP(i)->DIEPINT  = 0xFB7FU;
 948              		.loc 1 385 5 is_stmt 1 view .LVU295
 385:Drivers/STM32H7xx_HAL_Driver/Src/stm32h7xx_ll_usb.c ****     USBx_INEP(i)->DIEPINT  = 0xFB7FU;
 949              		.loc 1 385 28 is_stmt 0 view .LVU296
 950 00c6 0022     		movs	r2, #0
 951 00c8 0A61     		str	r2, [r1, #16]
 386:Drivers/STM32H7xx_HAL_Driver/Src/stm32h7xx_ll_usb.c ****   }
 952              		.loc 1 386 5 is_stmt 1 view .LVU297
 386:Drivers/STM32H7xx_HAL_Driver/Src/stm32h7xx_ll_usb.c ****   }
 953              		.loc 1 386 28 is_stmt 0 view .LVU298
 954 00ca 4FF67F32 		movw	r2, #64383
 955 00ce 8A60     		str	r2, [r1, #8]
ARM GAS  C:\Users\ADMINI~1\AppData\Local\Temp\cceMOlfx.s 			page 47


 367:Drivers/STM32H7xx_HAL_Driver/Src/stm32h7xx_ll_usb.c ****   {
 956              		.loc 1 367 40 is_stmt 1 discriminator 2 view .LVU299
 957 00d0 0133     		adds	r3, r3, #1
 958              	.LVL54:
 959              	.L61:
 367:Drivers/STM32H7xx_HAL_Driver/Src/stm32h7xx_ll_usb.c ****   {
 960              		.loc 1 367 18 discriminator 1 view .LVU300
 367:Drivers/STM32H7xx_HAL_Driver/Src/stm32h7xx_ll_usb.c ****   {
 961              		.loc 1 367 23 is_stmt 0 discriminator 1 view .LVU301
 962 00d2 9DF81410 		ldrb	r1, [sp, #20]	@ zero_extendqisi2
 367:Drivers/STM32H7xx_HAL_Driver/Src/stm32h7xx_ll_usb.c ****   {
 963              		.loc 1 367 18 discriminator 1 view .LVU302
 964 00d6 9942     		cmp	r1, r3
 965 00d8 0ED9     		bls	.L77
 369:Drivers/STM32H7xx_HAL_Driver/Src/stm32h7xx_ll_usb.c ****     {
 966              		.loc 1 369 5 is_stmt 1 view .LVU303
 369:Drivers/STM32H7xx_HAL_Driver/Src/stm32h7xx_ll_usb.c ****     {
 967              		.loc 1 369 10 is_stmt 0 view .LVU304
 968 00da 04EB4312 		add	r2, r4, r3, lsl #5
 969 00de 02F51061 		add	r1, r2, #2304
 369:Drivers/STM32H7xx_HAL_Driver/Src/stm32h7xx_ll_usb.c ****     {
 970              		.loc 1 369 22 view .LVU305
 971 00e2 D2F80009 		ldr	r0, [r2, #2304]
 369:Drivers/STM32H7xx_HAL_Driver/Src/stm32h7xx_ll_usb.c ****     {
 972              		.loc 1 369 8 view .LVU306
 973 00e6 0028     		cmp	r0, #0
 974 00e8 EADA     		bge	.L62
 371:Drivers/STM32H7xx_HAL_Driver/Src/stm32h7xx_ll_usb.c ****       {
 975              		.loc 1 371 7 is_stmt 1 view .LVU307
 371:Drivers/STM32H7xx_HAL_Driver/Src/stm32h7xx_ll_usb.c ****       {
 976              		.loc 1 371 10 is_stmt 0 view .LVU308
 977 00ea 002B     		cmp	r3, #0
 978 00ec E3D1     		bne	.L63
 373:Drivers/STM32H7xx_HAL_Driver/Src/stm32h7xx_ll_usb.c ****       }
 979              		.loc 1 373 9 is_stmt 1 view .LVU309
 373:Drivers/STM32H7xx_HAL_Driver/Src/stm32h7xx_ll_usb.c ****       }
 980              		.loc 1 373 31 is_stmt 0 view .LVU310
 981 00ee 4FF00060 		mov	r0, #134217728
 982 00f2 C2F80009 		str	r0, [r2, #2304]
 983 00f6 E6E7     		b	.L64
 984              	.L77:
 389:Drivers/STM32H7xx_HAL_Driver/Src/stm32h7xx_ll_usb.c ****   {
 985              		.loc 1 389 10 view .LVU311
 986 00f8 0023     		movs	r3, #0
 987              	.LVL55:
 389:Drivers/STM32H7xx_HAL_Driver/Src/stm32h7xx_ll_usb.c ****   {
 988              		.loc 1 389 10 view .LVU312
 989 00fa 0AE0     		b	.L66
 990              	.LVL56:
 991              	.L80:
 393:Drivers/STM32H7xx_HAL_Driver/Src/stm32h7xx_ll_usb.c ****       {
 992              		.loc 1 393 7 is_stmt 1 view .LVU313
 393:Drivers/STM32H7xx_HAL_Driver/Src/stm32h7xx_ll_usb.c ****       {
 993              		.loc 1 393 10 is_stmt 0 view .LVU314
 994 00fc CBB1     		cbz	r3, .L78
 399:Drivers/STM32H7xx_HAL_Driver/Src/stm32h7xx_ll_usb.c ****       }
 995              		.loc 1 399 9 is_stmt 1 view .LVU315
ARM GAS  C:\Users\ADMINI~1\AppData\Local\Temp\cceMOlfx.s 			page 48


 399:Drivers/STM32H7xx_HAL_Driver/Src/stm32h7xx_ll_usb.c ****       }
 996              		.loc 1 399 32 is_stmt 0 view .LVU316
 997 00fe 4FF0904E 		mov	lr, #1207959552
 998 0102 C2F800EB 		str	lr, [r2, #2816]
 999              	.L69:
 407:Drivers/STM32H7xx_HAL_Driver/Src/stm32h7xx_ll_usb.c ****     USBx_OUTEP(i)->DOEPINT  = 0xFB7FU;
 1000              		.loc 1 407 5 is_stmt 1 view .LVU317
 407:Drivers/STM32H7xx_HAL_Driver/Src/stm32h7xx_ll_usb.c ****     USBx_OUTEP(i)->DOEPINT  = 0xFB7FU;
 1001              		.loc 1 407 29 is_stmt 0 view .LVU318
 1002 0106 0022     		movs	r2, #0
 1003 0108 0261     		str	r2, [r0, #16]
 408:Drivers/STM32H7xx_HAL_Driver/Src/stm32h7xx_ll_usb.c ****   }
 1004              		.loc 1 408 5 is_stmt 1 view .LVU319
 408:Drivers/STM32H7xx_HAL_Driver/Src/stm32h7xx_ll_usb.c ****   }
 1005              		.loc 1 408 29 is_stmt 0 view .LVU320
 1006 010a 4FF67F32 		movw	r2, #64383
 1007 010e 8260     		str	r2, [r0, #8]
 389:Drivers/STM32H7xx_HAL_Driver/Src/stm32h7xx_ll_usb.c ****   {
 1008              		.loc 1 389 40 is_stmt 1 discriminator 2 view .LVU321
 1009 0110 0133     		adds	r3, r3, #1
 1010              	.LVL57:
 1011              	.L66:
 389:Drivers/STM32H7xx_HAL_Driver/Src/stm32h7xx_ll_usb.c ****   {
 1012              		.loc 1 389 18 discriminator 1 view .LVU322
 1013 0112 9942     		cmp	r1, r3
 1014 0114 12D9     		bls	.L79
 391:Drivers/STM32H7xx_HAL_Driver/Src/stm32h7xx_ll_usb.c ****     {
 1015              		.loc 1 391 5 view .LVU323
 391:Drivers/STM32H7xx_HAL_Driver/Src/stm32h7xx_ll_usb.c ****     {
 1016              		.loc 1 391 10 is_stmt 0 view .LVU324
 1017 0116 04EB4312 		add	r2, r4, r3, lsl #5
 1018 011a 02F53060 		add	r0, r2, #2816
 391:Drivers/STM32H7xx_HAL_Driver/Src/stm32h7xx_ll_usb.c ****     {
 1019              		.loc 1 391 23 view .LVU325
 1020 011e D2F800EB 		ldr	lr, [r2, #2816]
 391:Drivers/STM32H7xx_HAL_Driver/Src/stm32h7xx_ll_usb.c ****     {
 1021              		.loc 1 391 8 view .LVU326
 1022 0122 BEF1000F 		cmp	lr, #0
 1023 0126 E9DB     		blt	.L80
 404:Drivers/STM32H7xx_HAL_Driver/Src/stm32h7xx_ll_usb.c ****     }
 1024              		.loc 1 404 7 is_stmt 1 view .LVU327
 404:Drivers/STM32H7xx_HAL_Driver/Src/stm32h7xx_ll_usb.c ****     }
 1025              		.loc 1 404 30 is_stmt 0 view .LVU328
 1026 0128 4FF0000E 		mov	lr, #0
 1027 012c C2F800EB 		str	lr, [r2, #2816]
 1028 0130 E9E7     		b	.L69
 1029              	.L78:
 395:Drivers/STM32H7xx_HAL_Driver/Src/stm32h7xx_ll_usb.c ****       }
 1030              		.loc 1 395 9 is_stmt 1 view .LVU329
 395:Drivers/STM32H7xx_HAL_Driver/Src/stm32h7xx_ll_usb.c ****       }
 1031              		.loc 1 395 32 is_stmt 0 view .LVU330
 1032 0132 4FF0006E 		mov	lr, #134217728
 1033 0136 C2F800EB 		str	lr, [r2, #2816]
 1034 013a E4E7     		b	.L69
 1035              	.L79:
 411:Drivers/STM32H7xx_HAL_Driver/Src/stm32h7xx_ll_usb.c **** 
 1036              		.loc 1 411 3 is_stmt 1 view .LVU331
ARM GAS  C:\Users\ADMINI~1\AppData\Local\Temp\cceMOlfx.s 			page 49


 411:Drivers/STM32H7xx_HAL_Driver/Src/stm32h7xx_ll_usb.c **** 
 1037              		.loc 1 411 14 is_stmt 0 view .LVU332
 1038 013c DCF81030 		ldr	r3, [ip, #16]
 1039              	.LVL58:
 411:Drivers/STM32H7xx_HAL_Driver/Src/stm32h7xx_ll_usb.c **** 
 1040              		.loc 1 411 24 view .LVU333
 1041 0140 23F48073 		bic	r3, r3, #256
 1042 0144 CCF81030 		str	r3, [ip, #16]
 414:Drivers/STM32H7xx_HAL_Driver/Src/stm32h7xx_ll_usb.c **** 
 1043              		.loc 1 414 3 is_stmt 1 view .LVU334
 414:Drivers/STM32H7xx_HAL_Driver/Src/stm32h7xx_ll_usb.c **** 
 1044              		.loc 1 414 17 is_stmt 0 view .LVU335
 1045 0148 0023     		movs	r3, #0
 1046 014a A361     		str	r3, [r4, #24]
 417:Drivers/STM32H7xx_HAL_Driver/Src/stm32h7xx_ll_usb.c **** 
 1047              		.loc 1 417 3 is_stmt 1 view .LVU336
 417:Drivers/STM32H7xx_HAL_Driver/Src/stm32h7xx_ll_usb.c **** 
 1048              		.loc 1 417 17 is_stmt 0 view .LVU337
 1049 014c 6FF08043 		mvn	r3, #1073741824
 1050 0150 6361     		str	r3, [r4, #20]
 420:Drivers/STM32H7xx_HAL_Driver/Src/stm32h7xx_ll_usb.c ****   {
 1051              		.loc 1 420 3 is_stmt 1 view .LVU338
 420:Drivers/STM32H7xx_HAL_Driver/Src/stm32h7xx_ll_usb.c ****   {
 1052              		.loc 1 420 10 is_stmt 0 view .LVU339
 1053 0152 9DF81630 		ldrb	r3, [sp, #22]	@ zero_extendqisi2
 420:Drivers/STM32H7xx_HAL_Driver/Src/stm32h7xx_ll_usb.c ****   {
 1054              		.loc 1 420 6 view .LVU340
 1055 0156 1BB9     		cbnz	r3, .L71
 422:Drivers/STM32H7xx_HAL_Driver/Src/stm32h7xx_ll_usb.c ****   }
 1056              		.loc 1 422 5 is_stmt 1 view .LVU341
 422:Drivers/STM32H7xx_HAL_Driver/Src/stm32h7xx_ll_usb.c ****   }
 1057              		.loc 1 422 9 is_stmt 0 view .LVU342
 1058 0158 A369     		ldr	r3, [r4, #24]
 422:Drivers/STM32H7xx_HAL_Driver/Src/stm32h7xx_ll_usb.c ****   }
 1059              		.loc 1 422 19 view .LVU343
 1060 015a 43F01003 		orr	r3, r3, #16
 1061 015e A361     		str	r3, [r4, #24]
 1062              	.L71:
 426:Drivers/STM32H7xx_HAL_Driver/Src/stm32h7xx_ll_usb.c ****                    USB_OTG_GINTMSK_ENUMDNEM | USB_OTG_GINTMSK_IEPINT |
 1063              		.loc 1 426 3 is_stmt 1 view .LVU344
 426:Drivers/STM32H7xx_HAL_Driver/Src/stm32h7xx_ll_usb.c ****                    USB_OTG_GINTMSK_ENUMDNEM | USB_OTG_GINTMSK_IEPINT |
 1064              		.loc 1 426 7 is_stmt 0 view .LVU345
 1065 0160 A269     		ldr	r2, [r4, #24]
 426:Drivers/STM32H7xx_HAL_Driver/Src/stm32h7xx_ll_usb.c ****                    USB_OTG_GINTMSK_ENUMDNEM | USB_OTG_GINTMSK_IEPINT |
 1066              		.loc 1 426 17 view .LVU346
 1067 0162 0B4B     		ldr	r3, .L82
 1068 0164 1343     		orrs	r3, r3, r2
 1069 0166 A361     		str	r3, [r4, #24]
 431:Drivers/STM32H7xx_HAL_Driver/Src/stm32h7xx_ll_usb.c ****   {
 1070              		.loc 1 431 3 is_stmt 1 view .LVU347
 431:Drivers/STM32H7xx_HAL_Driver/Src/stm32h7xx_ll_usb.c ****   {
 1071              		.loc 1 431 10 is_stmt 0 view .LVU348
 1072 0168 9DF81A30 		ldrb	r3, [sp, #26]	@ zero_extendqisi2
 431:Drivers/STM32H7xx_HAL_Driver/Src/stm32h7xx_ll_usb.c ****   {
 1073              		.loc 1 431 6 view .LVU349
 1074 016c 1BB1     		cbz	r3, .L72
 433:Drivers/STM32H7xx_HAL_Driver/Src/stm32h7xx_ll_usb.c ****   }
ARM GAS  C:\Users\ADMINI~1\AppData\Local\Temp\cceMOlfx.s 			page 50


 1075              		.loc 1 433 5 is_stmt 1 view .LVU350
 433:Drivers/STM32H7xx_HAL_Driver/Src/stm32h7xx_ll_usb.c ****   }
 1076              		.loc 1 433 9 is_stmt 0 view .LVU351
 1077 016e A369     		ldr	r3, [r4, #24]
 433:Drivers/STM32H7xx_HAL_Driver/Src/stm32h7xx_ll_usb.c ****   }
 1078              		.loc 1 433 19 view .LVU352
 1079 0170 43F00803 		orr	r3, r3, #8
 1080 0174 A361     		str	r3, [r4, #24]
 1081              	.L72:
 436:Drivers/STM32H7xx_HAL_Driver/Src/stm32h7xx_ll_usb.c ****   {
 1082              		.loc 1 436 3 is_stmt 1 view .LVU353
 436:Drivers/STM32H7xx_HAL_Driver/Src/stm32h7xx_ll_usb.c ****   {
 1083              		.loc 1 436 6 is_stmt 0 view .LVU354
 1084 0176 012D     		cmp	r5, #1
 1085 0178 04D0     		beq	.L81
 1086              	.L73:
 441:Drivers/STM32H7xx_HAL_Driver/Src/stm32h7xx_ll_usb.c **** }
 1087              		.loc 1 441 3 is_stmt 1 view .LVU355
 442:Drivers/STM32H7xx_HAL_Driver/Src/stm32h7xx_ll_usb.c **** 
 1088              		.loc 1 442 1 is_stmt 0 view .LVU356
 1089 017a 3046     		mov	r0, r6
 1090 017c BDE87040 		pop	{r4, r5, r6, lr}
 1091              	.LCFI16:
 1092              		.cfi_remember_state
 1093              		.cfi_restore 14
 1094              		.cfi_restore 6
 1095              		.cfi_restore 5
 1096              		.cfi_restore 4
 1097              		.cfi_def_cfa_offset 16
 1098              	.LVL59:
 442:Drivers/STM32H7xx_HAL_Driver/Src/stm32h7xx_ll_usb.c **** 
 1099              		.loc 1 442 1 view .LVU357
 1100 0180 04B0     		add	sp, sp, #16
 1101              	.LCFI17:
 1102              		.cfi_def_cfa_offset 0
 1103 0182 7047     		bx	lr
 1104              	.LVL60:
 1105              	.L81:
 1106              	.LCFI18:
 1107              		.cfi_restore_state
 438:Drivers/STM32H7xx_HAL_Driver/Src/stm32h7xx_ll_usb.c ****   }
 1108              		.loc 1 438 5 is_stmt 1 view .LVU358
 438:Drivers/STM32H7xx_HAL_Driver/Src/stm32h7xx_ll_usb.c ****   }
 1109              		.loc 1 438 9 is_stmt 0 view .LVU359
 1110 0184 A269     		ldr	r2, [r4, #24]
 438:Drivers/STM32H7xx_HAL_Driver/Src/stm32h7xx_ll_usb.c ****   }
 1111              		.loc 1 438 19 view .LVU360
 1112 0186 034B     		ldr	r3, .L82+4
 1113 0188 1343     		orrs	r3, r3, r2
 1114 018a A361     		str	r3, [r4, #24]
 1115 018c F5E7     		b	.L73
 1116              	.L83:
 1117 018e 00BF     		.align	2
 1118              	.L82:
 1119 0190 00383C80 		.word	-2143537152
 1120 0194 04000040 		.word	1073741828
 1121              		.cfi_endproc
ARM GAS  C:\Users\ADMINI~1\AppData\Local\Temp\cceMOlfx.s 			page 51


 1122              	.LFE355:
 1124              		.section	.text.USB_GetDevSpeed,"ax",%progbits
 1125              		.align	1
 1126              		.global	USB_GetDevSpeed
 1127              		.syntax unified
 1128              		.thumb
 1129              		.thumb_func
 1131              	USB_GetDevSpeed:
 1132              	.LVL61:
 1133              	.LFB359:
 549:Drivers/STM32H7xx_HAL_Driver/Src/stm32h7xx_ll_usb.c ****   uint32_t USBx_BASE = (uint32_t)USBx;
 1134              		.loc 1 549 1 is_stmt 1 view -0
 1135              		.cfi_startproc
 1136              		@ args = 0, pretend = 0, frame = 0
 1137              		@ frame_needed = 0, uses_anonymous_args = 0
 1138              		@ link register save eliminated.
 550:Drivers/STM32H7xx_HAL_Driver/Src/stm32h7xx_ll_usb.c ****   uint8_t speed;
 1139              		.loc 1 550 3 view .LVU362
 551:Drivers/STM32H7xx_HAL_Driver/Src/stm32h7xx_ll_usb.c ****   uint32_t DevEnumSpeed = USBx_DEVICE->DSTS & USB_OTG_DSTS_ENUMSPD;
 1140              		.loc 1 551 3 view .LVU363
 552:Drivers/STM32H7xx_HAL_Driver/Src/stm32h7xx_ll_usb.c **** 
 1141              		.loc 1 552 3 view .LVU364
 552:Drivers/STM32H7xx_HAL_Driver/Src/stm32h7xx_ll_usb.c **** 
 1142              		.loc 1 552 38 is_stmt 0 view .LVU365
 1143 0000 D0F80838 		ldr	r3, [r0, #2056]
 1144              	.LVL62:
 554:Drivers/STM32H7xx_HAL_Driver/Src/stm32h7xx_ll_usb.c ****   {
 1145              		.loc 1 554 3 is_stmt 1 view .LVU366
 554:Drivers/STM32H7xx_HAL_Driver/Src/stm32h7xx_ll_usb.c ****   {
 1146              		.loc 1 554 6 is_stmt 0 view .LVU367
 1147 0004 13F00603 		ands	r3, r3, #6
 1148              	.LVL63:
 554:Drivers/STM32H7xx_HAL_Driver/Src/stm32h7xx_ll_usb.c ****   {
 1149              		.loc 1 554 6 view .LVU368
 1150 0008 05D0     		beq	.L86
 558:Drivers/STM32H7xx_HAL_Driver/Src/stm32h7xx_ll_usb.c ****            (DevEnumSpeed == DSTS_ENUMSPD_FS_PHY_48MHZ))
 1151              		.loc 1 558 8 is_stmt 1 view .LVU369
 558:Drivers/STM32H7xx_HAL_Driver/Src/stm32h7xx_ll_usb.c ****            (DevEnumSpeed == DSTS_ENUMSPD_FS_PHY_48MHZ))
 1152              		.loc 1 558 11 is_stmt 0 view .LVU370
 1153 000a 062B     		cmp	r3, #6
 1154 000c 18BF     		it	ne
 1155 000e 022B     		cmpne	r3, #2
 1156 0010 03D1     		bne	.L87
 561:Drivers/STM32H7xx_HAL_Driver/Src/stm32h7xx_ll_usb.c ****   }
 1157              		.loc 1 561 11 view .LVU371
 1158 0012 0220     		movs	r0, #2
 1159              	.LVL64:
 561:Drivers/STM32H7xx_HAL_Driver/Src/stm32h7xx_ll_usb.c ****   }
 1160              		.loc 1 561 11 view .LVU372
 1161 0014 7047     		bx	lr
 1162              	.LVL65:
 1163              	.L86:
 556:Drivers/STM32H7xx_HAL_Driver/Src/stm32h7xx_ll_usb.c ****   }
 1164              		.loc 1 556 11 view .LVU373
 1165 0016 0020     		movs	r0, #0
 1166              	.LVL66:
 556:Drivers/STM32H7xx_HAL_Driver/Src/stm32h7xx_ll_usb.c ****   }
ARM GAS  C:\Users\ADMINI~1\AppData\Local\Temp\cceMOlfx.s 			page 52


 1167              		.loc 1 556 11 view .LVU374
 1168 0018 7047     		bx	lr
 1169              	.LVL67:
 1170              	.L87:
 565:Drivers/STM32H7xx_HAL_Driver/Src/stm32h7xx_ll_usb.c ****   }
 1171              		.loc 1 565 11 view .LVU375
 1172 001a 0F20     		movs	r0, #15
 1173              	.LVL68:
 568:Drivers/STM32H7xx_HAL_Driver/Src/stm32h7xx_ll_usb.c **** }
 1174              		.loc 1 568 3 is_stmt 1 view .LVU376
 569:Drivers/STM32H7xx_HAL_Driver/Src/stm32h7xx_ll_usb.c **** 
 1175              		.loc 1 569 1 is_stmt 0 view .LVU377
 1176 001c 7047     		bx	lr
 1177              		.cfi_endproc
 1178              	.LFE359:
 1180              		.section	.text.USB_ActivateEndpoint,"ax",%progbits
 1181              		.align	1
 1182              		.global	USB_ActivateEndpoint
 1183              		.syntax unified
 1184              		.thumb
 1185              		.thumb_func
 1187              	USB_ActivateEndpoint:
 1188              	.LVL69:
 1189              	.LFB360:
 578:Drivers/STM32H7xx_HAL_Driver/Src/stm32h7xx_ll_usb.c ****   uint32_t USBx_BASE = (uint32_t)USBx;
 1190              		.loc 1 578 1 is_stmt 1 view -0
 1191              		.cfi_startproc
 1192              		@ args = 0, pretend = 0, frame = 0
 1193              		@ frame_needed = 0, uses_anonymous_args = 0
 578:Drivers/STM32H7xx_HAL_Driver/Src/stm32h7xx_ll_usb.c ****   uint32_t USBx_BASE = (uint32_t)USBx;
 1194              		.loc 1 578 1 is_stmt 0 view .LVU379
 1195 0000 10B5     		push	{r4, lr}
 1196              	.LCFI19:
 1197              		.cfi_def_cfa_offset 8
 1198              		.cfi_offset 4, -8
 1199              		.cfi_offset 14, -4
 579:Drivers/STM32H7xx_HAL_Driver/Src/stm32h7xx_ll_usb.c ****   uint32_t epnum = (uint32_t)ep->num;
 1200              		.loc 1 579 3 is_stmt 1 view .LVU380
 1201              	.LVL70:
 580:Drivers/STM32H7xx_HAL_Driver/Src/stm32h7xx_ll_usb.c **** 
 1202              		.loc 1 580 3 view .LVU381
 580:Drivers/STM32H7xx_HAL_Driver/Src/stm32h7xx_ll_usb.c **** 
 1203              		.loc 1 580 32 is_stmt 0 view .LVU382
 1204 0002 91F800C0 		ldrb	ip, [r1]	@ zero_extendqisi2
 1205              	.LVL71:
 582:Drivers/STM32H7xx_HAL_Driver/Src/stm32h7xx_ll_usb.c ****   {
 1206              		.loc 1 582 3 is_stmt 1 view .LVU383
 582:Drivers/STM32H7xx_HAL_Driver/Src/stm32h7xx_ll_usb.c ****   {
 1207              		.loc 1 582 9 is_stmt 0 view .LVU384
 1208 0006 4B78     		ldrb	r3, [r1, #1]	@ zero_extendqisi2
 582:Drivers/STM32H7xx_HAL_Driver/Src/stm32h7xx_ll_usb.c ****   {
 1209              		.loc 1 582 6 view .LVU385
 1210 0008 012B     		cmp	r3, #1
 1211 000a 22D0     		beq	.L92
 596:Drivers/STM32H7xx_HAL_Driver/Src/stm32h7xx_ll_usb.c **** 
 1212              		.loc 1 596 5 is_stmt 1 view .LVU386
 596:Drivers/STM32H7xx_HAL_Driver/Src/stm32h7xx_ll_usb.c **** 
ARM GAS  C:\Users\ADMINI~1\AppData\Local\Temp\cceMOlfx.s 			page 53


 1213              		.loc 1 596 16 is_stmt 0 view .LVU387
 1214 000c 00F5006E 		add	lr, r0, #2048
 1215 0010 D0F81C38 		ldr	r3, [r0, #2076]
 596:Drivers/STM32H7xx_HAL_Driver/Src/stm32h7xx_ll_usb.c **** 
 1216              		.loc 1 596 82 view .LVU388
 1217 0014 0CF00F02 		and	r2, ip, #15
 596:Drivers/STM32H7xx_HAL_Driver/Src/stm32h7xx_ll_usb.c **** 
 1218              		.loc 1 596 55 view .LVU389
 1219 0018 0124     		movs	r4, #1
 1220 001a 04FA02F2 		lsl	r2, r4, r2
 596:Drivers/STM32H7xx_HAL_Driver/Src/stm32h7xx_ll_usb.c **** 
 1221              		.loc 1 596 27 view .LVU390
 1222 001e 43EA0243 		orr	r3, r3, r2, lsl #16
 1223 0022 C0F81C38 		str	r3, [r0, #2076]
 598:Drivers/STM32H7xx_HAL_Driver/Src/stm32h7xx_ll_usb.c ****     {
 1224              		.loc 1 598 5 is_stmt 1 view .LVU391
 598:Drivers/STM32H7xx_HAL_Driver/Src/stm32h7xx_ll_usb.c ****     {
 1225              		.loc 1 598 11 is_stmt 0 view .LVU392
 1226 0026 00EB4C10 		add	r0, r0, ip, lsl #5
 1227              	.LVL72:
 598:Drivers/STM32H7xx_HAL_Driver/Src/stm32h7xx_ll_usb.c ****     {
 1228              		.loc 1 598 28 view .LVU393
 1229 002a D0F8003B 		ldr	r3, [r0, #2816]
 598:Drivers/STM32H7xx_HAL_Driver/Src/stm32h7xx_ll_usb.c ****     {
 1230              		.loc 1 598 8 view .LVU394
 1231 002e 13F4004F 		tst	r3, #32768
 1232 0032 0CD1     		bne	.L90
 600:Drivers/STM32H7xx_HAL_Driver/Src/stm32h7xx_ll_usb.c ****                                     ((uint32_t)ep->type << 18) |
 1233              		.loc 1 600 7 is_stmt 1 view .LVU395
 600:Drivers/STM32H7xx_HAL_Driver/Src/stm32h7xx_ll_usb.c ****                                     ((uint32_t)ep->type << 18) |
 1234              		.loc 1 600 24 is_stmt 0 view .LVU396
 1235 0034 D0F8002B 		ldr	r2, [r0, #2816]
 600:Drivers/STM32H7xx_HAL_Driver/Src/stm32h7xx_ll_usb.c ****                                     ((uint32_t)ep->type << 18) |
 1236              		.loc 1 600 40 view .LVU397
 1237 0038 8B68     		ldr	r3, [r1, #8]
 600:Drivers/STM32H7xx_HAL_Driver/Src/stm32h7xx_ll_usb.c ****                                     ((uint32_t)ep->type << 18) |
 1238              		.loc 1 600 52 view .LVU398
 1239 003a C3F30A03 		ubfx	r3, r3, #0, #11
 601:Drivers/STM32H7xx_HAL_Driver/Src/stm32h7xx_ll_usb.c ****                                     USB_OTG_DIEPCTL_SD0PID_SEVNFRM |
 1240              		.loc 1 601 50 view .LVU399
 1241 003e 0979     		ldrb	r1, [r1, #4]	@ zero_extendqisi2
 1242              	.LVL73:
 600:Drivers/STM32H7xx_HAL_Driver/Src/stm32h7xx_ll_usb.c ****                                     ((uint32_t)ep->type << 18) |
 1243              		.loc 1 600 77 view .LVU400
 1244 0040 43EA8143 		orr	r3, r3, r1, lsl #18
 600:Drivers/STM32H7xx_HAL_Driver/Src/stm32h7xx_ll_usb.c ****                                     ((uint32_t)ep->type << 18) |
 1245              		.loc 1 600 34 view .LVU401
 1246 0044 1A43     		orrs	r2, r2, r3
 1247 0046 154B     		ldr	r3, .L93
 1248 0048 1343     		orrs	r3, r3, r2
 1249 004a C0F8003B 		str	r3, [r0, #2816]
 1250              	.LVL74:
 1251              	.L90:
 606:Drivers/STM32H7xx_HAL_Driver/Src/stm32h7xx_ll_usb.c **** }
 1252              		.loc 1 606 3 is_stmt 1 view .LVU402
 607:Drivers/STM32H7xx_HAL_Driver/Src/stm32h7xx_ll_usb.c **** 
 1253              		.loc 1 607 1 is_stmt 0 view .LVU403
ARM GAS  C:\Users\ADMINI~1\AppData\Local\Temp\cceMOlfx.s 			page 54


 1254 004e 0020     		movs	r0, #0
 1255 0050 10BD     		pop	{r4, pc}
 1256              	.LVL75:
 1257              	.L92:
 584:Drivers/STM32H7xx_HAL_Driver/Src/stm32h7xx_ll_usb.c **** 
 1258              		.loc 1 584 5 is_stmt 1 view .LVU404
 584:Drivers/STM32H7xx_HAL_Driver/Src/stm32h7xx_ll_usb.c **** 
 1259              		.loc 1 584 16 is_stmt 0 view .LVU405
 1260 0052 00F5006E 		add	lr, r0, #2048
 1261 0056 D0F81C28 		ldr	r2, [r0, #2076]
 584:Drivers/STM32H7xx_HAL_Driver/Src/stm32h7xx_ll_usb.c **** 
 1262              		.loc 1 584 81 view .LVU406
 1263 005a 0CF00F03 		and	r3, ip, #15
 584:Drivers/STM32H7xx_HAL_Driver/Src/stm32h7xx_ll_usb.c **** 
 1264              		.loc 1 584 54 view .LVU407
 1265 005e 0124     		movs	r4, #1
 1266 0060 04FA03F3 		lsl	r3, r4, r3
 584:Drivers/STM32H7xx_HAL_Driver/Src/stm32h7xx_ll_usb.c **** 
 1267              		.loc 1 584 52 view .LVU408
 1268 0064 9BB2     		uxth	r3, r3
 584:Drivers/STM32H7xx_HAL_Driver/Src/stm32h7xx_ll_usb.c **** 
 1269              		.loc 1 584 27 view .LVU409
 1270 0066 1343     		orrs	r3, r3, r2
 1271 0068 C0F81C38 		str	r3, [r0, #2076]
 586:Drivers/STM32H7xx_HAL_Driver/Src/stm32h7xx_ll_usb.c ****     {
 1272              		.loc 1 586 5 is_stmt 1 view .LVU410
 586:Drivers/STM32H7xx_HAL_Driver/Src/stm32h7xx_ll_usb.c ****     {
 1273              		.loc 1 586 10 is_stmt 0 view .LVU411
 1274 006c 00EB4C10 		add	r0, r0, ip, lsl #5
 1275              	.LVL76:
 586:Drivers/STM32H7xx_HAL_Driver/Src/stm32h7xx_ll_usb.c ****     {
 1276              		.loc 1 586 26 view .LVU412
 1277 0070 D0F80039 		ldr	r3, [r0, #2304]
 586:Drivers/STM32H7xx_HAL_Driver/Src/stm32h7xx_ll_usb.c ****     {
 1278              		.loc 1 586 8 view .LVU413
 1279 0074 13F4004F 		tst	r3, #32768
 1280 0078 E9D1     		bne	.L90
 588:Drivers/STM32H7xx_HAL_Driver/Src/stm32h7xx_ll_usb.c ****                                    ((uint32_t)ep->type << 18) | (epnum << 22) |
 1281              		.loc 1 588 7 is_stmt 1 view .LVU414
 588:Drivers/STM32H7xx_HAL_Driver/Src/stm32h7xx_ll_usb.c ****                                    ((uint32_t)ep->type << 18) | (epnum << 22) |
 1282              		.loc 1 588 23 is_stmt 0 view .LVU415
 1283 007a D0F80029 		ldr	r2, [r0, #2304]
 588:Drivers/STM32H7xx_HAL_Driver/Src/stm32h7xx_ll_usb.c ****                                    ((uint32_t)ep->type << 18) | (epnum << 22) |
 1284              		.loc 1 588 39 view .LVU416
 1285 007e 8B68     		ldr	r3, [r1, #8]
 588:Drivers/STM32H7xx_HAL_Driver/Src/stm32h7xx_ll_usb.c ****                                    ((uint32_t)ep->type << 18) | (epnum << 22) |
 1286              		.loc 1 588 51 view .LVU417
 1287 0080 C3F30A03 		ubfx	r3, r3, #0, #11
 589:Drivers/STM32H7xx_HAL_Driver/Src/stm32h7xx_ll_usb.c ****                                    USB_OTG_DIEPCTL_SD0PID_SEVNFRM |
 1288              		.loc 1 589 49 view .LVU418
 1289 0084 0979     		ldrb	r1, [r1, #4]	@ zero_extendqisi2
 1290              	.LVL77:
 588:Drivers/STM32H7xx_HAL_Driver/Src/stm32h7xx_ll_usb.c ****                                    ((uint32_t)ep->type << 18) | (epnum << 22) |
 1291              		.loc 1 588 76 view .LVU419
 1292 0086 43EA8143 		orr	r3, r3, r1, lsl #18
 589:Drivers/STM32H7xx_HAL_Driver/Src/stm32h7xx_ll_usb.c ****                                    USB_OTG_DIEPCTL_SD0PID_SEVNFRM |
 1293              		.loc 1 589 63 view .LVU420
ARM GAS  C:\Users\ADMINI~1\AppData\Local\Temp\cceMOlfx.s 			page 55


 1294 008a 43EA8C53 		orr	r3, r3, ip, lsl #22
 588:Drivers/STM32H7xx_HAL_Driver/Src/stm32h7xx_ll_usb.c ****                                    ((uint32_t)ep->type << 18) | (epnum << 22) |
 1295              		.loc 1 588 33 view .LVU421
 1296 008e 1A43     		orrs	r2, r2, r3
 1297 0090 024B     		ldr	r3, .L93
 1298 0092 1343     		orrs	r3, r3, r2
 1299 0094 C0F80039 		str	r3, [r0, #2304]
 1300 0098 D9E7     		b	.L90
 1301              	.L94:
 1302 009a 00BF     		.align	2
 1303              	.L93:
 1304 009c 00800010 		.word	268468224
 1305              		.cfi_endproc
 1306              	.LFE360:
 1308              		.section	.text.USB_ActivateDedicatedEndpoint,"ax",%progbits
 1309              		.align	1
 1310              		.global	USB_ActivateDedicatedEndpoint
 1311              		.syntax unified
 1312              		.thumb
 1313              		.thumb_func
 1315              	USB_ActivateDedicatedEndpoint:
 1316              	.LVL78:
 1317              	.LFB361:
 616:Drivers/STM32H7xx_HAL_Driver/Src/stm32h7xx_ll_usb.c ****   uint32_t USBx_BASE = (uint32_t)USBx;
 1318              		.loc 1 616 1 is_stmt 1 view -0
 1319              		.cfi_startproc
 1320              		@ args = 0, pretend = 0, frame = 0
 1321              		@ frame_needed = 0, uses_anonymous_args = 0
 616:Drivers/STM32H7xx_HAL_Driver/Src/stm32h7xx_ll_usb.c ****   uint32_t USBx_BASE = (uint32_t)USBx;
 1322              		.loc 1 616 1 is_stmt 0 view .LVU423
 1323 0000 10B5     		push	{r4, lr}
 1324              	.LCFI20:
 1325              		.cfi_def_cfa_offset 8
 1326              		.cfi_offset 4, -8
 1327              		.cfi_offset 14, -4
 617:Drivers/STM32H7xx_HAL_Driver/Src/stm32h7xx_ll_usb.c ****   uint32_t epnum = (uint32_t)ep->num;
 1328              		.loc 1 617 3 is_stmt 1 view .LVU424
 1329              	.LVL79:
 618:Drivers/STM32H7xx_HAL_Driver/Src/stm32h7xx_ll_usb.c **** 
 1330              		.loc 1 618 3 view .LVU425
 618:Drivers/STM32H7xx_HAL_Driver/Src/stm32h7xx_ll_usb.c **** 
 1331              		.loc 1 618 32 is_stmt 0 view .LVU426
 1332 0002 0A78     		ldrb	r2, [r1]	@ zero_extendqisi2
 1333              	.LVL80:
 621:Drivers/STM32H7xx_HAL_Driver/Src/stm32h7xx_ll_usb.c ****   {
 1334              		.loc 1 621 3 is_stmt 1 view .LVU427
 621:Drivers/STM32H7xx_HAL_Driver/Src/stm32h7xx_ll_usb.c ****   {
 1335              		.loc 1 621 9 is_stmt 0 view .LVU428
 1336 0004 4B78     		ldrb	r3, [r1, #1]	@ zero_extendqisi2
 621:Drivers/STM32H7xx_HAL_Driver/Src/stm32h7xx_ll_usb.c ****   {
 1337              		.loc 1 621 6 view .LVU429
 1338 0006 012B     		cmp	r3, #1
 1339 0008 23D0     		beq	.L101
 635:Drivers/STM32H7xx_HAL_Driver/Src/stm32h7xx_ll_usb.c ****     {
 1340              		.loc 1 635 5 is_stmt 1 view .LVU430
 635:Drivers/STM32H7xx_HAL_Driver/Src/stm32h7xx_ll_usb.c ****     {
 1341              		.loc 1 635 11 is_stmt 0 view .LVU431
ARM GAS  C:\Users\ADMINI~1\AppData\Local\Temp\cceMOlfx.s 			page 56


 1342 000a 00EB421C 		add	ip, r0, r2, lsl #5
 635:Drivers/STM32H7xx_HAL_Driver/Src/stm32h7xx_ll_usb.c ****     {
 1343              		.loc 1 635 28 view .LVU432
 1344 000e DCF8003B 		ldr	r3, [ip, #2816]
 635:Drivers/STM32H7xx_HAL_Driver/Src/stm32h7xx_ll_usb.c ****     {
 1345              		.loc 1 635 8 view .LVU433
 1346 0012 13F4004F 		tst	r3, #32768
 1347 0016 0FD1     		bne	.L99
 637:Drivers/STM32H7xx_HAL_Driver/Src/stm32h7xx_ll_usb.c ****                                     ((uint32_t)ep->type << 18) | (epnum << 22) |
 1348              		.loc 1 637 7 is_stmt 1 view .LVU434
 637:Drivers/STM32H7xx_HAL_Driver/Src/stm32h7xx_ll_usb.c ****                                     ((uint32_t)ep->type << 18) | (epnum << 22) |
 1349              		.loc 1 637 24 is_stmt 0 view .LVU435
 1350 0018 DCF8004B 		ldr	r4, [ip, #2816]
 637:Drivers/STM32H7xx_HAL_Driver/Src/stm32h7xx_ll_usb.c ****                                     ((uint32_t)ep->type << 18) | (epnum << 22) |
 1351              		.loc 1 637 40 view .LVU436
 1352 001c 8B68     		ldr	r3, [r1, #8]
 637:Drivers/STM32H7xx_HAL_Driver/Src/stm32h7xx_ll_usb.c ****                                     ((uint32_t)ep->type << 18) | (epnum << 22) |
 1353              		.loc 1 637 52 view .LVU437
 1354 001e C3F30A03 		ubfx	r3, r3, #0, #11
 638:Drivers/STM32H7xx_HAL_Driver/Src/stm32h7xx_ll_usb.c ****                                     USB_OTG_DOEPCTL_USBAEP;
 1355              		.loc 1 638 50 view .LVU438
 1356 0022 91F804E0 		ldrb	lr, [r1, #4]	@ zero_extendqisi2
 637:Drivers/STM32H7xx_HAL_Driver/Src/stm32h7xx_ll_usb.c ****                                     ((uint32_t)ep->type << 18) | (epnum << 22) |
 1357              		.loc 1 637 77 view .LVU439
 1358 0026 43EA8E43 		orr	r3, r3, lr, lsl #18
 638:Drivers/STM32H7xx_HAL_Driver/Src/stm32h7xx_ll_usb.c ****                                     USB_OTG_DOEPCTL_USBAEP;
 1359              		.loc 1 638 64 view .LVU440
 1360 002a 43EA8253 		orr	r3, r3, r2, lsl #22
 637:Drivers/STM32H7xx_HAL_Driver/Src/stm32h7xx_ll_usb.c ****                                     ((uint32_t)ep->type << 18) | (epnum << 22) |
 1361              		.loc 1 637 34 view .LVU441
 1362 002e 2343     		orrs	r3, r3, r4
 1363 0030 43F40043 		orr	r3, r3, #32768
 1364 0034 CCF8003B 		str	r3, [ip, #2816]
 1365              	.L99:
 642:Drivers/STM32H7xx_HAL_Driver/Src/stm32h7xx_ll_usb.c ****   }
 1366              		.loc 1 642 5 is_stmt 1 view .LVU442
 642:Drivers/STM32H7xx_HAL_Driver/Src/stm32h7xx_ll_usb.c ****   }
 1367              		.loc 1 642 16 is_stmt 0 view .LVU443
 1368 0038 D0F83C38 		ldr	r3, [r0, #2108]
 642:Drivers/STM32H7xx_HAL_Driver/Src/stm32h7xx_ll_usb.c ****   }
 1369              		.loc 1 642 76 view .LVU444
 1370 003c 0978     		ldrb	r1, [r1]	@ zero_extendqisi2
 1371              	.LVL81:
 642:Drivers/STM32H7xx_HAL_Driver/Src/stm32h7xx_ll_usb.c ****   }
 1372              		.loc 1 642 82 view .LVU445
 1373 003e 01F00F01 		and	r1, r1, #15
 642:Drivers/STM32H7xx_HAL_Driver/Src/stm32h7xx_ll_usb.c ****   }
 1374              		.loc 1 642 55 view .LVU446
 1375 0042 0122     		movs	r2, #1
 1376              	.LVL82:
 642:Drivers/STM32H7xx_HAL_Driver/Src/stm32h7xx_ll_usb.c ****   }
 1377              		.loc 1 642 55 view .LVU447
 1378 0044 8A40     		lsls	r2, r2, r1
 642:Drivers/STM32H7xx_HAL_Driver/Src/stm32h7xx_ll_usb.c ****   }
 1379              		.loc 1 642 27 view .LVU448
 1380 0046 43EA0243 		orr	r3, r3, r2, lsl #16
 1381 004a C0F83C38 		str	r3, [r0, #2108]
ARM GAS  C:\Users\ADMINI~1\AppData\Local\Temp\cceMOlfx.s 			page 57


 1382              	.L98:
 645:Drivers/STM32H7xx_HAL_Driver/Src/stm32h7xx_ll_usb.c **** }
 1383              		.loc 1 645 3 is_stmt 1 view .LVU449
 646:Drivers/STM32H7xx_HAL_Driver/Src/stm32h7xx_ll_usb.c **** 
 1384              		.loc 1 646 1 is_stmt 0 view .LVU450
 1385 004e 0020     		movs	r0, #0
 1386              	.LVL83:
 646:Drivers/STM32H7xx_HAL_Driver/Src/stm32h7xx_ll_usb.c **** 
 1387              		.loc 1 646 1 view .LVU451
 1388 0050 10BD     		pop	{r4, pc}
 1389              	.LVL84:
 1390              	.L101:
 623:Drivers/STM32H7xx_HAL_Driver/Src/stm32h7xx_ll_usb.c ****     {
 1391              		.loc 1 623 5 is_stmt 1 view .LVU452
 623:Drivers/STM32H7xx_HAL_Driver/Src/stm32h7xx_ll_usb.c ****     {
 1392              		.loc 1 623 11 is_stmt 0 view .LVU453
 1393 0052 00EB421C 		add	ip, r0, r2, lsl #5
 623:Drivers/STM32H7xx_HAL_Driver/Src/stm32h7xx_ll_usb.c ****     {
 1394              		.loc 1 623 27 view .LVU454
 1395 0056 DCF80039 		ldr	r3, [ip, #2304]
 623:Drivers/STM32H7xx_HAL_Driver/Src/stm32h7xx_ll_usb.c ****     {
 1396              		.loc 1 623 8 view .LVU455
 1397 005a 13F4004F 		tst	r3, #32768
 1398 005e 10D1     		bne	.L97
 625:Drivers/STM32H7xx_HAL_Driver/Src/stm32h7xx_ll_usb.c ****                                    ((uint32_t)ep->type << 18) | (epnum << 22) |
 1399              		.loc 1 625 7 is_stmt 1 view .LVU456
 625:Drivers/STM32H7xx_HAL_Driver/Src/stm32h7xx_ll_usb.c ****                                    ((uint32_t)ep->type << 18) | (epnum << 22) |
 1400              		.loc 1 625 23 is_stmt 0 view .LVU457
 1401 0060 DCF80049 		ldr	r4, [ip, #2304]
 625:Drivers/STM32H7xx_HAL_Driver/Src/stm32h7xx_ll_usb.c ****                                    ((uint32_t)ep->type << 18) | (epnum << 22) |
 1402              		.loc 1 625 39 view .LVU458
 1403 0064 8B68     		ldr	r3, [r1, #8]
 625:Drivers/STM32H7xx_HAL_Driver/Src/stm32h7xx_ll_usb.c ****                                    ((uint32_t)ep->type << 18) | (epnum << 22) |
 1404              		.loc 1 625 51 view .LVU459
 1405 0066 C3F30A03 		ubfx	r3, r3, #0, #11
 626:Drivers/STM32H7xx_HAL_Driver/Src/stm32h7xx_ll_usb.c ****                                    USB_OTG_DIEPCTL_SD0PID_SEVNFRM |
 1406              		.loc 1 626 49 view .LVU460
 1407 006a 91F804E0 		ldrb	lr, [r1, #4]	@ zero_extendqisi2
 625:Drivers/STM32H7xx_HAL_Driver/Src/stm32h7xx_ll_usb.c ****                                    ((uint32_t)ep->type << 18) | (epnum << 22) |
 1408              		.loc 1 625 76 view .LVU461
 1409 006e 43EA8E43 		orr	r3, r3, lr, lsl #18
 626:Drivers/STM32H7xx_HAL_Driver/Src/stm32h7xx_ll_usb.c ****                                    USB_OTG_DIEPCTL_SD0PID_SEVNFRM |
 1410              		.loc 1 626 63 view .LVU462
 1411 0072 43EA8253 		orr	r3, r3, r2, lsl #22
 625:Drivers/STM32H7xx_HAL_Driver/Src/stm32h7xx_ll_usb.c ****                                    ((uint32_t)ep->type << 18) | (epnum << 22) |
 1412              		.loc 1 625 33 view .LVU463
 1413 0076 44EA0302 		orr	r2, r4, r3
 1414              	.LVL85:
 625:Drivers/STM32H7xx_HAL_Driver/Src/stm32h7xx_ll_usb.c ****                                    ((uint32_t)ep->type << 18) | (epnum << 22) |
 1415              		.loc 1 625 33 view .LVU464
 1416 007a 084B     		ldr	r3, .L102
 1417 007c 1343     		orrs	r3, r3, r2
 1418 007e CCF80039 		str	r3, [ip, #2304]
 1419              	.LVL86:
 1420              	.L97:
 631:Drivers/STM32H7xx_HAL_Driver/Src/stm32h7xx_ll_usb.c ****   }
 1421              		.loc 1 631 5 is_stmt 1 view .LVU465
ARM GAS  C:\Users\ADMINI~1\AppData\Local\Temp\cceMOlfx.s 			page 58


 631:Drivers/STM32H7xx_HAL_Driver/Src/stm32h7xx_ll_usb.c ****   }
 1422              		.loc 1 631 16 is_stmt 0 view .LVU466
 1423 0082 D0F83C28 		ldr	r2, [r0, #2108]
 631:Drivers/STM32H7xx_HAL_Driver/Src/stm32h7xx_ll_usb.c ****   }
 1424              		.loc 1 631 75 view .LVU467
 1425 0086 0978     		ldrb	r1, [r1]	@ zero_extendqisi2
 1426              	.LVL87:
 631:Drivers/STM32H7xx_HAL_Driver/Src/stm32h7xx_ll_usb.c ****   }
 1427              		.loc 1 631 81 view .LVU468
 1428 0088 01F00F01 		and	r1, r1, #15
 631:Drivers/STM32H7xx_HAL_Driver/Src/stm32h7xx_ll_usb.c ****   }
 1429              		.loc 1 631 54 view .LVU469
 1430 008c 0123     		movs	r3, #1
 1431 008e 8B40     		lsls	r3, r3, r1
 631:Drivers/STM32H7xx_HAL_Driver/Src/stm32h7xx_ll_usb.c ****   }
 1432              		.loc 1 631 52 view .LVU470
 1433 0090 9BB2     		uxth	r3, r3
 631:Drivers/STM32H7xx_HAL_Driver/Src/stm32h7xx_ll_usb.c ****   }
 1434              		.loc 1 631 27 view .LVU471
 1435 0092 1343     		orrs	r3, r3, r2
 1436 0094 C0F83C38 		str	r3, [r0, #2108]
 1437 0098 D9E7     		b	.L98
 1438              	.L103:
 1439 009a 00BF     		.align	2
 1440              	.L102:
 1441 009c 00800010 		.word	268468224
 1442              		.cfi_endproc
 1443              	.LFE361:
 1445              		.section	.text.USB_DeactivateEndpoint,"ax",%progbits
 1446              		.align	1
 1447              		.global	USB_DeactivateEndpoint
 1448              		.syntax unified
 1449              		.thumb
 1450              		.thumb_func
 1452              	USB_DeactivateEndpoint:
 1453              	.LVL88:
 1454              	.LFB362:
 655:Drivers/STM32H7xx_HAL_Driver/Src/stm32h7xx_ll_usb.c ****   uint32_t USBx_BASE = (uint32_t)USBx;
 1455              		.loc 1 655 1 is_stmt 1 view -0
 1456              		.cfi_startproc
 1457              		@ args = 0, pretend = 0, frame = 0
 1458              		@ frame_needed = 0, uses_anonymous_args = 0
 655:Drivers/STM32H7xx_HAL_Driver/Src/stm32h7xx_ll_usb.c ****   uint32_t USBx_BASE = (uint32_t)USBx;
 1459              		.loc 1 655 1 is_stmt 0 view .LVU473
 1460 0000 00B5     		push	{lr}
 1461              	.LCFI21:
 1462              		.cfi_def_cfa_offset 4
 1463              		.cfi_offset 14, -4
 656:Drivers/STM32H7xx_HAL_Driver/Src/stm32h7xx_ll_usb.c ****   uint32_t epnum = (uint32_t)ep->num;
 1464              		.loc 1 656 3 is_stmt 1 view .LVU474
 1465              	.LVL89:
 657:Drivers/STM32H7xx_HAL_Driver/Src/stm32h7xx_ll_usb.c **** 
 1466              		.loc 1 657 3 view .LVU475
 657:Drivers/STM32H7xx_HAL_Driver/Src/stm32h7xx_ll_usb.c **** 
 1467              		.loc 1 657 32 is_stmt 0 view .LVU476
 1468 0002 0B78     		ldrb	r3, [r1]	@ zero_extendqisi2
 1469              	.LVL90:
ARM GAS  C:\Users\ADMINI~1\AppData\Local\Temp\cceMOlfx.s 			page 59


 660:Drivers/STM32H7xx_HAL_Driver/Src/stm32h7xx_ll_usb.c ****   {
 1470              		.loc 1 660 3 is_stmt 1 view .LVU477
 660:Drivers/STM32H7xx_HAL_Driver/Src/stm32h7xx_ll_usb.c ****   {
 1471              		.loc 1 660 9 is_stmt 0 view .LVU478
 1472 0004 4A78     		ldrb	r2, [r1, #1]	@ zero_extendqisi2
 660:Drivers/STM32H7xx_HAL_Driver/Src/stm32h7xx_ll_usb.c ****   {
 1473              		.loc 1 660 6 view .LVU479
 1474 0006 012A     		cmp	r2, #1
 1475 0008 25D0     		beq	.L110
 678:Drivers/STM32H7xx_HAL_Driver/Src/stm32h7xx_ll_usb.c ****     {
 1476              		.loc 1 678 5 is_stmt 1 view .LVU480
 678:Drivers/STM32H7xx_HAL_Driver/Src/stm32h7xx_ll_usb.c ****     {
 1477              		.loc 1 678 10 is_stmt 0 view .LVU481
 1478 000a 00EB4313 		add	r3, r0, r3, lsl #5
 1479              	.LVL91:
 678:Drivers/STM32H7xx_HAL_Driver/Src/stm32h7xx_ll_usb.c ****     {
 1480              		.loc 1 678 27 view .LVU482
 1481 000e D3F8002B 		ldr	r2, [r3, #2816]
 678:Drivers/STM32H7xx_HAL_Driver/Src/stm32h7xx_ll_usb.c ****     {
 1482              		.loc 1 678 8 view .LVU483
 1483 0012 002A     		cmp	r2, #0
 1484 0014 54DB     		blt	.L111
 1485              	.LVL92:
 1486              	.L108:
 684:Drivers/STM32H7xx_HAL_Driver/Src/stm32h7xx_ll_usb.c ****     USBx_DEVICE->DAINTMSK &= ~(USB_OTG_DAINTMSK_OEPM & ((uint32_t)(1UL << (ep->num & EP_ADDR_MSK)) 
 1487              		.loc 1 684 5 is_stmt 1 view .LVU484
 684:Drivers/STM32H7xx_HAL_Driver/Src/stm32h7xx_ll_usb.c ****     USBx_DEVICE->DAINTMSK &= ~(USB_OTG_DAINTMSK_OEPM & ((uint32_t)(1UL << (ep->num & EP_ADDR_MSK)) 
 1488              		.loc 1 684 16 is_stmt 0 view .LVU485
 1489 0016 D0F83CE8 		ldr	lr, [r0, #2108]
 684:Drivers/STM32H7xx_HAL_Driver/Src/stm32h7xx_ll_usb.c ****     USBx_DEVICE->DAINTMSK &= ~(USB_OTG_DAINTMSK_OEPM & ((uint32_t)(1UL << (ep->num & EP_ADDR_MSK)) 
 1490              		.loc 1 684 78 view .LVU486
 1491 001a 0A78     		ldrb	r2, [r1]	@ zero_extendqisi2
 684:Drivers/STM32H7xx_HAL_Driver/Src/stm32h7xx_ll_usb.c ****     USBx_DEVICE->DAINTMSK &= ~(USB_OTG_DAINTMSK_OEPM & ((uint32_t)(1UL << (ep->num & EP_ADDR_MSK)) 
 1492              		.loc 1 684 84 view .LVU487
 1493 001c 02F00F02 		and	r2, r2, #15
 684:Drivers/STM32H7xx_HAL_Driver/Src/stm32h7xx_ll_usb.c ****     USBx_DEVICE->DAINTMSK &= ~(USB_OTG_DAINTMSK_OEPM & ((uint32_t)(1UL << (ep->num & EP_ADDR_MSK)) 
 1494              		.loc 1 684 57 view .LVU488
 1495 0020 4FF0010C 		mov	ip, #1
 1496 0024 0CFA02F2 		lsl	r2, ip, r2
 684:Drivers/STM32H7xx_HAL_Driver/Src/stm32h7xx_ll_usb.c ****     USBx_DEVICE->DAINTMSK &= ~(USB_OTG_DAINTMSK_OEPM & ((uint32_t)(1UL << (ep->num & EP_ADDR_MSK)) 
 1497              		.loc 1 684 27 view .LVU489
 1498 0028 2EEA0242 		bic	r2, lr, r2, lsl #16
 1499 002c C0F83C28 		str	r2, [r0, #2108]
 685:Drivers/STM32H7xx_HAL_Driver/Src/stm32h7xx_ll_usb.c ****     USBx_OUTEP(epnum)->DOEPCTL &= ~(USB_OTG_DOEPCTL_USBAEP |
 1500              		.loc 1 685 5 is_stmt 1 view .LVU490
 685:Drivers/STM32H7xx_HAL_Driver/Src/stm32h7xx_ll_usb.c ****     USBx_OUTEP(epnum)->DOEPCTL &= ~(USB_OTG_DOEPCTL_USBAEP |
 1501              		.loc 1 685 16 is_stmt 0 view .LVU491
 1502 0030 D0F81C28 		ldr	r2, [r0, #2076]
 685:Drivers/STM32H7xx_HAL_Driver/Src/stm32h7xx_ll_usb.c ****     USBx_OUTEP(epnum)->DOEPCTL &= ~(USB_OTG_DOEPCTL_USBAEP |
 1503              		.loc 1 685 78 view .LVU492
 1504 0034 0978     		ldrb	r1, [r1]	@ zero_extendqisi2
 1505              	.LVL93:
 685:Drivers/STM32H7xx_HAL_Driver/Src/stm32h7xx_ll_usb.c ****     USBx_OUTEP(epnum)->DOEPCTL &= ~(USB_OTG_DOEPCTL_USBAEP |
 1506              		.loc 1 685 84 view .LVU493
 1507 0036 01F00F01 		and	r1, r1, #15
 685:Drivers/STM32H7xx_HAL_Driver/Src/stm32h7xx_ll_usb.c ****     USBx_OUTEP(epnum)->DOEPCTL &= ~(USB_OTG_DOEPCTL_USBAEP |
 1508              		.loc 1 685 57 view .LVU494
ARM GAS  C:\Users\ADMINI~1\AppData\Local\Temp\cceMOlfx.s 			page 60


 1509 003a 0CFA01FC 		lsl	ip, ip, r1
 685:Drivers/STM32H7xx_HAL_Driver/Src/stm32h7xx_ll_usb.c ****     USBx_OUTEP(epnum)->DOEPCTL &= ~(USB_OTG_DOEPCTL_USBAEP |
 1510              		.loc 1 685 27 view .LVU495
 1511 003e 22EA0C42 		bic	r2, r2, ip, lsl #16
 1512 0042 C0F81C28 		str	r2, [r0, #2076]
 686:Drivers/STM32H7xx_HAL_Driver/Src/stm32h7xx_ll_usb.c ****                                     USB_OTG_DOEPCTL_MPSIZ |
 1513              		.loc 1 686 5 is_stmt 1 view .LVU496
 686:Drivers/STM32H7xx_HAL_Driver/Src/stm32h7xx_ll_usb.c ****                                     USB_OTG_DOEPCTL_MPSIZ |
 1514              		.loc 1 686 22 is_stmt 0 view .LVU497
 1515 0046 D3F8001B 		ldr	r1, [r3, #2816]
 686:Drivers/STM32H7xx_HAL_Driver/Src/stm32h7xx_ll_usb.c ****                                     USB_OTG_DOEPCTL_MPSIZ |
 1516              		.loc 1 686 32 view .LVU498
 1517 004a 244A     		ldr	r2, .L113
 1518 004c 0A40     		ands	r2, r2, r1
 1519 004e C3F8002B 		str	r2, [r3, #2816]
 1520              	.L107:
 692:Drivers/STM32H7xx_HAL_Driver/Src/stm32h7xx_ll_usb.c **** }
 1521              		.loc 1 692 3 is_stmt 1 view .LVU499
 693:Drivers/STM32H7xx_HAL_Driver/Src/stm32h7xx_ll_usb.c **** 
 1522              		.loc 1 693 1 is_stmt 0 view .LVU500
 1523 0052 0020     		movs	r0, #0
 1524              	.LVL94:
 693:Drivers/STM32H7xx_HAL_Driver/Src/stm32h7xx_ll_usb.c **** 
 1525              		.loc 1 693 1 view .LVU501
 1526 0054 00BD     		pop	{pc}
 1527              	.LVL95:
 1528              	.L110:
 662:Drivers/STM32H7xx_HAL_Driver/Src/stm32h7xx_ll_usb.c ****     {
 1529              		.loc 1 662 5 is_stmt 1 view .LVU502
 662:Drivers/STM32H7xx_HAL_Driver/Src/stm32h7xx_ll_usb.c ****     {
 1530              		.loc 1 662 10 is_stmt 0 view .LVU503
 1531 0056 00EB4313 		add	r3, r0, r3, lsl #5
 1532              	.LVL96:
 662:Drivers/STM32H7xx_HAL_Driver/Src/stm32h7xx_ll_usb.c ****     {
 1533              		.loc 1 662 26 view .LVU504
 1534 005a D3F80029 		ldr	r2, [r3, #2304]
 662:Drivers/STM32H7xx_HAL_Driver/Src/stm32h7xx_ll_usb.c ****     {
 1535              		.loc 1 662 8 view .LVU505
 1536 005e 002A     		cmp	r2, #0
 1537 0060 21DB     		blt	.L112
 1538              	.LVL97:
 1539              	.L106:
 668:Drivers/STM32H7xx_HAL_Driver/Src/stm32h7xx_ll_usb.c ****     USBx_DEVICE->DAINTMSK &= ~(USB_OTG_DAINTMSK_IEPM & (uint32_t)(1UL << (ep->num & EP_ADDR_MSK)));
 1540              		.loc 1 668 5 is_stmt 1 view .LVU506
 668:Drivers/STM32H7xx_HAL_Driver/Src/stm32h7xx_ll_usb.c ****     USBx_DEVICE->DAINTMSK &= ~(USB_OTG_DAINTMSK_IEPM & (uint32_t)(1UL << (ep->num & EP_ADDR_MSK)));
 1541              		.loc 1 668 16 is_stmt 0 view .LVU507
 1542 0062 D0F83CE8 		ldr	lr, [r0, #2108]
 668:Drivers/STM32H7xx_HAL_Driver/Src/stm32h7xx_ll_usb.c ****     USBx_DEVICE->DAINTMSK &= ~(USB_OTG_DAINTMSK_IEPM & (uint32_t)(1UL << (ep->num & EP_ADDR_MSK)));
 1543              		.loc 1 668 77 view .LVU508
 1544 0066 0A78     		ldrb	r2, [r1]	@ zero_extendqisi2
 668:Drivers/STM32H7xx_HAL_Driver/Src/stm32h7xx_ll_usb.c ****     USBx_DEVICE->DAINTMSK &= ~(USB_OTG_DAINTMSK_IEPM & (uint32_t)(1UL << (ep->num & EP_ADDR_MSK)));
 1545              		.loc 1 668 83 view .LVU509
 1546 0068 02F00F02 		and	r2, r2, #15
 668:Drivers/STM32H7xx_HAL_Driver/Src/stm32h7xx_ll_usb.c ****     USBx_DEVICE->DAINTMSK &= ~(USB_OTG_DAINTMSK_IEPM & (uint32_t)(1UL << (ep->num & EP_ADDR_MSK)));
 1547              		.loc 1 668 56 view .LVU510
 1548 006c 4FF0010C 		mov	ip, #1
 1549 0070 0CFA02F2 		lsl	r2, ip, r2
ARM GAS  C:\Users\ADMINI~1\AppData\Local\Temp\cceMOlfx.s 			page 61


 668:Drivers/STM32H7xx_HAL_Driver/Src/stm32h7xx_ll_usb.c ****     USBx_DEVICE->DAINTMSK &= ~(USB_OTG_DAINTMSK_IEPM & (uint32_t)(1UL << (ep->num & EP_ADDR_MSK)));
 1550              		.loc 1 668 54 view .LVU511
 1551 0074 92B2     		uxth	r2, r2
 668:Drivers/STM32H7xx_HAL_Driver/Src/stm32h7xx_ll_usb.c ****     USBx_DEVICE->DAINTMSK &= ~(USB_OTG_DAINTMSK_IEPM & (uint32_t)(1UL << (ep->num & EP_ADDR_MSK)));
 1552              		.loc 1 668 27 view .LVU512
 1553 0076 2EEA0202 		bic	r2, lr, r2
 1554 007a C0F83C28 		str	r2, [r0, #2108]
 669:Drivers/STM32H7xx_HAL_Driver/Src/stm32h7xx_ll_usb.c ****     USBx_INEP(epnum)->DIEPCTL &= ~(USB_OTG_DIEPCTL_USBAEP |
 1555              		.loc 1 669 5 is_stmt 1 view .LVU513
 669:Drivers/STM32H7xx_HAL_Driver/Src/stm32h7xx_ll_usb.c ****     USBx_INEP(epnum)->DIEPCTL &= ~(USB_OTG_DIEPCTL_USBAEP |
 1556              		.loc 1 669 16 is_stmt 0 view .LVU514
 1557 007e D0F81C28 		ldr	r2, [r0, #2076]
 669:Drivers/STM32H7xx_HAL_Driver/Src/stm32h7xx_ll_usb.c ****     USBx_INEP(epnum)->DIEPCTL &= ~(USB_OTG_DIEPCTL_USBAEP |
 1558              		.loc 1 669 77 view .LVU515
 1559 0082 0978     		ldrb	r1, [r1]	@ zero_extendqisi2
 1560              	.LVL98:
 669:Drivers/STM32H7xx_HAL_Driver/Src/stm32h7xx_ll_usb.c ****     USBx_INEP(epnum)->DIEPCTL &= ~(USB_OTG_DIEPCTL_USBAEP |
 1561              		.loc 1 669 83 view .LVU516
 1562 0084 01F00F01 		and	r1, r1, #15
 669:Drivers/STM32H7xx_HAL_Driver/Src/stm32h7xx_ll_usb.c ****     USBx_INEP(epnum)->DIEPCTL &= ~(USB_OTG_DIEPCTL_USBAEP |
 1563              		.loc 1 669 56 view .LVU517
 1564 0088 0CFA01FC 		lsl	ip, ip, r1
 669:Drivers/STM32H7xx_HAL_Driver/Src/stm32h7xx_ll_usb.c ****     USBx_INEP(epnum)->DIEPCTL &= ~(USB_OTG_DIEPCTL_USBAEP |
 1565              		.loc 1 669 54 view .LVU518
 1566 008c 1FFA8CFC 		uxth	ip, ip
 669:Drivers/STM32H7xx_HAL_Driver/Src/stm32h7xx_ll_usb.c ****     USBx_INEP(epnum)->DIEPCTL &= ~(USB_OTG_DIEPCTL_USBAEP |
 1567              		.loc 1 669 27 view .LVU519
 1568 0090 22EA0C02 		bic	r2, r2, ip
 1569 0094 C0F81C28 		str	r2, [r0, #2076]
 670:Drivers/STM32H7xx_HAL_Driver/Src/stm32h7xx_ll_usb.c ****                                    USB_OTG_DIEPCTL_MPSIZ |
 1570              		.loc 1 670 5 is_stmt 1 view .LVU520
 670:Drivers/STM32H7xx_HAL_Driver/Src/stm32h7xx_ll_usb.c ****                                    USB_OTG_DIEPCTL_MPSIZ |
 1571              		.loc 1 670 21 is_stmt 0 view .LVU521
 1572 0098 D3F80019 		ldr	r1, [r3, #2304]
 670:Drivers/STM32H7xx_HAL_Driver/Src/stm32h7xx_ll_usb.c ****                                    USB_OTG_DIEPCTL_MPSIZ |
 1573              		.loc 1 670 31 view .LVU522
 1574 009c 104A     		ldr	r2, .L113+4
 1575 009e 0A40     		ands	r2, r2, r1
 1576 00a0 C3F80029 		str	r2, [r3, #2304]
 1577 00a4 D5E7     		b	.L107
 1578              	.LVL99:
 1579              	.L112:
 664:Drivers/STM32H7xx_HAL_Driver/Src/stm32h7xx_ll_usb.c ****       USBx_INEP(epnum)->DIEPCTL |= USB_OTG_DIEPCTL_EPDIS;
 1580              		.loc 1 664 7 is_stmt 1 view .LVU523
 664:Drivers/STM32H7xx_HAL_Driver/Src/stm32h7xx_ll_usb.c ****       USBx_INEP(epnum)->DIEPCTL |= USB_OTG_DIEPCTL_EPDIS;
 1581              		.loc 1 664 23 is_stmt 0 view .LVU524
 1582 00a6 D3F80029 		ldr	r2, [r3, #2304]
 664:Drivers/STM32H7xx_HAL_Driver/Src/stm32h7xx_ll_usb.c ****       USBx_INEP(epnum)->DIEPCTL |= USB_OTG_DIEPCTL_EPDIS;
 1583              		.loc 1 664 33 view .LVU525
 1584 00aa 42F00062 		orr	r2, r2, #134217728
 1585 00ae C3F80029 		str	r2, [r3, #2304]
 1586              	.LVL100:
 665:Drivers/STM32H7xx_HAL_Driver/Src/stm32h7xx_ll_usb.c ****     }
 1587              		.loc 1 665 7 is_stmt 1 view .LVU526
 665:Drivers/STM32H7xx_HAL_Driver/Src/stm32h7xx_ll_usb.c ****     }
 1588              		.loc 1 665 23 is_stmt 0 view .LVU527
 1589 00b2 D3F80029 		ldr	r2, [r3, #2304]
ARM GAS  C:\Users\ADMINI~1\AppData\Local\Temp\cceMOlfx.s 			page 62


 665:Drivers/STM32H7xx_HAL_Driver/Src/stm32h7xx_ll_usb.c ****     }
 1590              		.loc 1 665 33 view .LVU528
 1591 00b6 42F08042 		orr	r2, r2, #1073741824
 1592 00ba C3F80029 		str	r2, [r3, #2304]
 1593 00be D0E7     		b	.L106
 1594              	.LVL101:
 1595              	.L111:
 680:Drivers/STM32H7xx_HAL_Driver/Src/stm32h7xx_ll_usb.c ****       USBx_OUTEP(epnum)->DOEPCTL |= USB_OTG_DOEPCTL_EPDIS;
 1596              		.loc 1 680 7 is_stmt 1 view .LVU529
 680:Drivers/STM32H7xx_HAL_Driver/Src/stm32h7xx_ll_usb.c ****       USBx_OUTEP(epnum)->DOEPCTL |= USB_OTG_DOEPCTL_EPDIS;
 1597              		.loc 1 680 24 is_stmt 0 view .LVU530
 1598 00c0 D3F8002B 		ldr	r2, [r3, #2816]
 680:Drivers/STM32H7xx_HAL_Driver/Src/stm32h7xx_ll_usb.c ****       USBx_OUTEP(epnum)->DOEPCTL |= USB_OTG_DOEPCTL_EPDIS;
 1599              		.loc 1 680 34 view .LVU531
 1600 00c4 42F00062 		orr	r2, r2, #134217728
 1601 00c8 C3F8002B 		str	r2, [r3, #2816]
 1602              	.LVL102:
 681:Drivers/STM32H7xx_HAL_Driver/Src/stm32h7xx_ll_usb.c ****     }
 1603              		.loc 1 681 7 is_stmt 1 view .LVU532
 681:Drivers/STM32H7xx_HAL_Driver/Src/stm32h7xx_ll_usb.c ****     }
 1604              		.loc 1 681 24 is_stmt 0 view .LVU533
 1605 00cc D3F8002B 		ldr	r2, [r3, #2816]
 681:Drivers/STM32H7xx_HAL_Driver/Src/stm32h7xx_ll_usb.c ****     }
 1606              		.loc 1 681 34 view .LVU534
 1607 00d0 42F08042 		orr	r2, r2, #1073741824
 1608 00d4 C3F8002B 		str	r2, [r3, #2816]
 1609 00d8 9DE7     		b	.L108
 1610              	.L114:
 1611 00da 00BF     		.align	2
 1612              	.L113:
 1613 00dc 0078F3EF 		.word	-269256704
 1614 00e0 007833EC 		.word	-332171264
 1615              		.cfi_endproc
 1616              	.LFE362:
 1618              		.section	.text.USB_DeactivateDedicatedEndpoint,"ax",%progbits
 1619              		.align	1
 1620              		.global	USB_DeactivateDedicatedEndpoint
 1621              		.syntax unified
 1622              		.thumb
 1623              		.thumb_func
 1625              	USB_DeactivateDedicatedEndpoint:
 1626              	.LVL103:
 1627              	.LFB363:
 702:Drivers/STM32H7xx_HAL_Driver/Src/stm32h7xx_ll_usb.c ****   uint32_t USBx_BASE = (uint32_t)USBx;
 1628              		.loc 1 702 1 is_stmt 1 view -0
 1629              		.cfi_startproc
 1630              		@ args = 0, pretend = 0, frame = 0
 1631              		@ frame_needed = 0, uses_anonymous_args = 0
 1632              		@ link register save eliminated.
 703:Drivers/STM32H7xx_HAL_Driver/Src/stm32h7xx_ll_usb.c ****   uint32_t epnum = (uint32_t)ep->num;
 1633              		.loc 1 703 3 view .LVU536
 704:Drivers/STM32H7xx_HAL_Driver/Src/stm32h7xx_ll_usb.c **** 
 1634              		.loc 1 704 3 view .LVU537
 704:Drivers/STM32H7xx_HAL_Driver/Src/stm32h7xx_ll_usb.c **** 
 1635              		.loc 1 704 32 is_stmt 0 view .LVU538
 1636 0000 0B78     		ldrb	r3, [r1]	@ zero_extendqisi2
 1637              	.LVL104:
ARM GAS  C:\Users\ADMINI~1\AppData\Local\Temp\cceMOlfx.s 			page 63


 707:Drivers/STM32H7xx_HAL_Driver/Src/stm32h7xx_ll_usb.c ****   {
 1638              		.loc 1 707 3 is_stmt 1 view .LVU539
 707:Drivers/STM32H7xx_HAL_Driver/Src/stm32h7xx_ll_usb.c ****   {
 1639              		.loc 1 707 9 is_stmt 0 view .LVU540
 1640 0002 4A78     		ldrb	r2, [r1, #1]	@ zero_extendqisi2
 707:Drivers/STM32H7xx_HAL_Driver/Src/stm32h7xx_ll_usb.c ****   {
 1641              		.loc 1 707 6 view .LVU541
 1642 0004 012A     		cmp	r2, #1
 1643 0006 18D0     		beq	.L120
 720:Drivers/STM32H7xx_HAL_Driver/Src/stm32h7xx_ll_usb.c ****     {
 1644              		.loc 1 720 5 is_stmt 1 view .LVU542
 720:Drivers/STM32H7xx_HAL_Driver/Src/stm32h7xx_ll_usb.c ****     {
 1645              		.loc 1 720 10 is_stmt 0 view .LVU543
 1646 0008 00EB4313 		add	r3, r0, r3, lsl #5
 1647              	.LVL105:
 720:Drivers/STM32H7xx_HAL_Driver/Src/stm32h7xx_ll_usb.c ****     {
 1648              		.loc 1 720 27 view .LVU544
 1649 000c D3F8002B 		ldr	r2, [r3, #2816]
 720:Drivers/STM32H7xx_HAL_Driver/Src/stm32h7xx_ll_usb.c ****     {
 1650              		.loc 1 720 8 view .LVU545
 1651 0010 002A     		cmp	r2, #0
 1652 0012 38DB     		blt	.L121
 1653              	.LVL106:
 1654              	.L119:
 726:Drivers/STM32H7xx_HAL_Driver/Src/stm32h7xx_ll_usb.c ****     USBx_DEVICE->DAINTMSK &= ~(USB_OTG_DAINTMSK_OEPM & ((uint32_t)(1UL << (ep->num & EP_ADDR_MSK)) 
 1655              		.loc 1 726 5 is_stmt 1 view .LVU546
 726:Drivers/STM32H7xx_HAL_Driver/Src/stm32h7xx_ll_usb.c ****     USBx_DEVICE->DAINTMSK &= ~(USB_OTG_DAINTMSK_OEPM & ((uint32_t)(1UL << (ep->num & EP_ADDR_MSK)) 
 1656              		.loc 1 726 22 is_stmt 0 view .LVU547
 1657 0014 D3F8002B 		ldr	r2, [r3, #2816]
 726:Drivers/STM32H7xx_HAL_Driver/Src/stm32h7xx_ll_usb.c ****     USBx_DEVICE->DAINTMSK &= ~(USB_OTG_DAINTMSK_OEPM & ((uint32_t)(1UL << (ep->num & EP_ADDR_MSK)) 
 1658              		.loc 1 726 32 view .LVU548
 1659 0018 22F40042 		bic	r2, r2, #32768
 1660 001c C3F8002B 		str	r2, [r3, #2816]
 727:Drivers/STM32H7xx_HAL_Driver/Src/stm32h7xx_ll_usb.c ****   }
 1661              		.loc 1 727 5 is_stmt 1 view .LVU549
 727:Drivers/STM32H7xx_HAL_Driver/Src/stm32h7xx_ll_usb.c ****   }
 1662              		.loc 1 727 16 is_stmt 0 view .LVU550
 1663 0020 D0F81C38 		ldr	r3, [r0, #2076]
 727:Drivers/STM32H7xx_HAL_Driver/Src/stm32h7xx_ll_usb.c ****   }
 1664              		.loc 1 727 78 view .LVU551
 1665 0024 0978     		ldrb	r1, [r1]	@ zero_extendqisi2
 1666              	.LVL107:
 727:Drivers/STM32H7xx_HAL_Driver/Src/stm32h7xx_ll_usb.c ****   }
 1667              		.loc 1 727 84 view .LVU552
 1668 0026 01F00F01 		and	r1, r1, #15
 727:Drivers/STM32H7xx_HAL_Driver/Src/stm32h7xx_ll_usb.c ****   }
 1669              		.loc 1 727 57 view .LVU553
 1670 002a 0122     		movs	r2, #1
 1671 002c 8A40     		lsls	r2, r2, r1
 727:Drivers/STM32H7xx_HAL_Driver/Src/stm32h7xx_ll_usb.c ****   }
 1672              		.loc 1 727 27 view .LVU554
 1673 002e 23EA0243 		bic	r3, r3, r2, lsl #16
 1674 0032 C0F81C38 		str	r3, [r0, #2076]
 1675              	.L118:
 730:Drivers/STM32H7xx_HAL_Driver/Src/stm32h7xx_ll_usb.c **** }
 1676              		.loc 1 730 3 is_stmt 1 view .LVU555
 731:Drivers/STM32H7xx_HAL_Driver/Src/stm32h7xx_ll_usb.c **** 
ARM GAS  C:\Users\ADMINI~1\AppData\Local\Temp\cceMOlfx.s 			page 64


 1677              		.loc 1 731 1 is_stmt 0 view .LVU556
 1678 0036 0020     		movs	r0, #0
 1679              	.LVL108:
 731:Drivers/STM32H7xx_HAL_Driver/Src/stm32h7xx_ll_usb.c **** 
 1680              		.loc 1 731 1 view .LVU557
 1681 0038 7047     		bx	lr
 1682              	.LVL109:
 1683              	.L120:
 709:Drivers/STM32H7xx_HAL_Driver/Src/stm32h7xx_ll_usb.c ****     {
 1684              		.loc 1 709 5 is_stmt 1 view .LVU558
 709:Drivers/STM32H7xx_HAL_Driver/Src/stm32h7xx_ll_usb.c ****     {
 1685              		.loc 1 709 10 is_stmt 0 view .LVU559
 1686 003a 00EB4313 		add	r3, r0, r3, lsl #5
 1687              	.LVL110:
 709:Drivers/STM32H7xx_HAL_Driver/Src/stm32h7xx_ll_usb.c ****     {
 1688              		.loc 1 709 26 view .LVU560
 1689 003e D3F80029 		ldr	r2, [r3, #2304]
 709:Drivers/STM32H7xx_HAL_Driver/Src/stm32h7xx_ll_usb.c ****     {
 1690              		.loc 1 709 8 view .LVU561
 1691 0042 002A     		cmp	r2, #0
 1692 0044 12DB     		blt	.L122
 1693              	.LVL111:
 1694              	.L117:
 715:Drivers/STM32H7xx_HAL_Driver/Src/stm32h7xx_ll_usb.c ****     USBx_DEVICE->DAINTMSK &= ~(USB_OTG_DAINTMSK_IEPM & (uint32_t)(1UL << (ep->num & EP_ADDR_MSK)));
 1695              		.loc 1 715 5 is_stmt 1 view .LVU562
 715:Drivers/STM32H7xx_HAL_Driver/Src/stm32h7xx_ll_usb.c ****     USBx_DEVICE->DAINTMSK &= ~(USB_OTG_DAINTMSK_IEPM & (uint32_t)(1UL << (ep->num & EP_ADDR_MSK)));
 1696              		.loc 1 715 21 is_stmt 0 view .LVU563
 1697 0046 D3F80029 		ldr	r2, [r3, #2304]
 715:Drivers/STM32H7xx_HAL_Driver/Src/stm32h7xx_ll_usb.c ****     USBx_DEVICE->DAINTMSK &= ~(USB_OTG_DAINTMSK_IEPM & (uint32_t)(1UL << (ep->num & EP_ADDR_MSK)));
 1698              		.loc 1 715 31 view .LVU564
 1699 004a 22F40042 		bic	r2, r2, #32768
 1700 004e C3F80029 		str	r2, [r3, #2304]
 716:Drivers/STM32H7xx_HAL_Driver/Src/stm32h7xx_ll_usb.c ****   }
 1701              		.loc 1 716 5 is_stmt 1 view .LVU565
 716:Drivers/STM32H7xx_HAL_Driver/Src/stm32h7xx_ll_usb.c ****   }
 1702              		.loc 1 716 16 is_stmt 0 view .LVU566
 1703 0052 D0F81C28 		ldr	r2, [r0, #2076]
 716:Drivers/STM32H7xx_HAL_Driver/Src/stm32h7xx_ll_usb.c ****   }
 1704              		.loc 1 716 77 view .LVU567
 1705 0056 0978     		ldrb	r1, [r1]	@ zero_extendqisi2
 1706              	.LVL112:
 716:Drivers/STM32H7xx_HAL_Driver/Src/stm32h7xx_ll_usb.c ****   }
 1707              		.loc 1 716 83 view .LVU568
 1708 0058 01F00F01 		and	r1, r1, #15
 716:Drivers/STM32H7xx_HAL_Driver/Src/stm32h7xx_ll_usb.c ****   }
 1709              		.loc 1 716 56 view .LVU569
 1710 005c 0123     		movs	r3, #1
 1711 005e 8B40     		lsls	r3, r3, r1
 716:Drivers/STM32H7xx_HAL_Driver/Src/stm32h7xx_ll_usb.c ****   }
 1712              		.loc 1 716 54 view .LVU570
 1713 0060 9BB2     		uxth	r3, r3
 716:Drivers/STM32H7xx_HAL_Driver/Src/stm32h7xx_ll_usb.c ****   }
 1714              		.loc 1 716 27 view .LVU571
 1715 0062 22EA0303 		bic	r3, r2, r3
 1716 0066 C0F81C38 		str	r3, [r0, #2076]
 1717 006a E4E7     		b	.L118
 1718              	.LVL113:
ARM GAS  C:\Users\ADMINI~1\AppData\Local\Temp\cceMOlfx.s 			page 65


 1719              	.L122:
 711:Drivers/STM32H7xx_HAL_Driver/Src/stm32h7xx_ll_usb.c ****       USBx_INEP(epnum)->DIEPCTL  |= USB_OTG_DIEPCTL_EPDIS;
 1720              		.loc 1 711 7 is_stmt 1 view .LVU572
 711:Drivers/STM32H7xx_HAL_Driver/Src/stm32h7xx_ll_usb.c ****       USBx_INEP(epnum)->DIEPCTL  |= USB_OTG_DIEPCTL_EPDIS;
 1721              		.loc 1 711 23 is_stmt 0 view .LVU573
 1722 006c D3F80029 		ldr	r2, [r3, #2304]
 711:Drivers/STM32H7xx_HAL_Driver/Src/stm32h7xx_ll_usb.c ****       USBx_INEP(epnum)->DIEPCTL  |= USB_OTG_DIEPCTL_EPDIS;
 1723              		.loc 1 711 34 view .LVU574
 1724 0070 42F00062 		orr	r2, r2, #134217728
 1725 0074 C3F80029 		str	r2, [r3, #2304]
 1726              	.LVL114:
 712:Drivers/STM32H7xx_HAL_Driver/Src/stm32h7xx_ll_usb.c ****     }
 1727              		.loc 1 712 7 is_stmt 1 view .LVU575
 712:Drivers/STM32H7xx_HAL_Driver/Src/stm32h7xx_ll_usb.c ****     }
 1728              		.loc 1 712 23 is_stmt 0 view .LVU576
 1729 0078 D3F80029 		ldr	r2, [r3, #2304]
 712:Drivers/STM32H7xx_HAL_Driver/Src/stm32h7xx_ll_usb.c ****     }
 1730              		.loc 1 712 34 view .LVU577
 1731 007c 42F08042 		orr	r2, r2, #1073741824
 1732 0080 C3F80029 		str	r2, [r3, #2304]
 1733 0084 DFE7     		b	.L117
 1734              	.LVL115:
 1735              	.L121:
 722:Drivers/STM32H7xx_HAL_Driver/Src/stm32h7xx_ll_usb.c ****       USBx_OUTEP(epnum)->DOEPCTL  |= USB_OTG_DOEPCTL_EPDIS;
 1736              		.loc 1 722 7 is_stmt 1 view .LVU578
 722:Drivers/STM32H7xx_HAL_Driver/Src/stm32h7xx_ll_usb.c ****       USBx_OUTEP(epnum)->DOEPCTL  |= USB_OTG_DOEPCTL_EPDIS;
 1737              		.loc 1 722 24 is_stmt 0 view .LVU579
 1738 0086 D3F8002B 		ldr	r2, [r3, #2816]
 722:Drivers/STM32H7xx_HAL_Driver/Src/stm32h7xx_ll_usb.c ****       USBx_OUTEP(epnum)->DOEPCTL  |= USB_OTG_DOEPCTL_EPDIS;
 1739              		.loc 1 722 35 view .LVU580
 1740 008a 42F00062 		orr	r2, r2, #134217728
 1741 008e C3F8002B 		str	r2, [r3, #2816]
 1742              	.LVL116:
 723:Drivers/STM32H7xx_HAL_Driver/Src/stm32h7xx_ll_usb.c ****     }
 1743              		.loc 1 723 7 is_stmt 1 view .LVU581
 723:Drivers/STM32H7xx_HAL_Driver/Src/stm32h7xx_ll_usb.c ****     }
 1744              		.loc 1 723 24 is_stmt 0 view .LVU582
 1745 0092 D3F8002B 		ldr	r2, [r3, #2816]
 723:Drivers/STM32H7xx_HAL_Driver/Src/stm32h7xx_ll_usb.c ****     }
 1746              		.loc 1 723 35 view .LVU583
 1747 0096 42F08042 		orr	r2, r2, #1073741824
 1748 009a C3F8002B 		str	r2, [r3, #2816]
 1749 009e B9E7     		b	.L119
 1750              		.cfi_endproc
 1751              	.LFE363:
 1753              		.section	.text.USB_EPStopXfer,"ax",%progbits
 1754              		.align	1
 1755              		.global	USB_EPStopXfer
 1756              		.syntax unified
 1757              		.thumb
 1758              		.thumb_func
 1760              	USB_EPStopXfer:
 1761              	.LVL117:
 1762              	.LFB365:
 916:Drivers/STM32H7xx_HAL_Driver/Src/stm32h7xx_ll_usb.c ****   __IO uint32_t count = 0U;
 1763              		.loc 1 916 1 is_stmt 1 view -0
 1764              		.cfi_startproc
ARM GAS  C:\Users\ADMINI~1\AppData\Local\Temp\cceMOlfx.s 			page 66


 1765              		@ args = 0, pretend = 0, frame = 8
 1766              		@ frame_needed = 0, uses_anonymous_args = 0
 1767              		@ link register save eliminated.
 916:Drivers/STM32H7xx_HAL_Driver/Src/stm32h7xx_ll_usb.c ****   __IO uint32_t count = 0U;
 1768              		.loc 1 916 1 is_stmt 0 view .LVU585
 1769 0000 82B0     		sub	sp, sp, #8
 1770              	.LCFI22:
 1771              		.cfi_def_cfa_offset 8
 1772 0002 0246     		mov	r2, r0
 917:Drivers/STM32H7xx_HAL_Driver/Src/stm32h7xx_ll_usb.c ****   HAL_StatusTypeDef ret = HAL_OK;
 1773              		.loc 1 917 3 is_stmt 1 view .LVU586
 917:Drivers/STM32H7xx_HAL_Driver/Src/stm32h7xx_ll_usb.c ****   HAL_StatusTypeDef ret = HAL_OK;
 1774              		.loc 1 917 17 is_stmt 0 view .LVU587
 1775 0004 0023     		movs	r3, #0
 1776 0006 0193     		str	r3, [sp, #4]
 918:Drivers/STM32H7xx_HAL_Driver/Src/stm32h7xx_ll_usb.c ****   uint32_t USBx_BASE = (uint32_t)USBx;
 1777              		.loc 1 918 3 is_stmt 1 view .LVU588
 1778              	.LVL118:
 919:Drivers/STM32H7xx_HAL_Driver/Src/stm32h7xx_ll_usb.c **** 
 1779              		.loc 1 919 3 view .LVU589
 922:Drivers/STM32H7xx_HAL_Driver/Src/stm32h7xx_ll_usb.c ****   {
 1780              		.loc 1 922 3 view .LVU590
 922:Drivers/STM32H7xx_HAL_Driver/Src/stm32h7xx_ll_usb.c ****   {
 1781              		.loc 1 922 9 is_stmt 0 view .LVU591
 1782 0008 4878     		ldrb	r0, [r1, #1]	@ zero_extendqisi2
 1783              	.LVL119:
 922:Drivers/STM32H7xx_HAL_Driver/Src/stm32h7xx_ll_usb.c ****   {
 1784              		.loc 1 922 6 view .LVU592
 1785 000a 0128     		cmp	r0, #1
 1786 000c 09D0     		beq	.L132
 944:Drivers/STM32H7xx_HAL_Driver/Src/stm32h7xx_ll_usb.c ****     {
 1787              		.loc 1 944 5 is_stmt 1 view .LVU593
 944:Drivers/STM32H7xx_HAL_Driver/Src/stm32h7xx_ll_usb.c ****     {
 1788              		.loc 1 944 11 is_stmt 0 view .LVU594
 1789 000e 0B78     		ldrb	r3, [r1]	@ zero_extendqisi2
 1790 0010 02EB4313 		add	r3, r2, r3, lsl #5
 944:Drivers/STM32H7xx_HAL_Driver/Src/stm32h7xx_ll_usb.c ****     {
 1791              		.loc 1 944 30 view .LVU595
 1792 0014 D3F8000B 		ldr	r0, [r3, #2816]
 944:Drivers/STM32H7xx_HAL_Driver/Src/stm32h7xx_ll_usb.c ****     {
 1793              		.loc 1 944 8 view .LVU596
 1794 0018 0028     		cmp	r0, #0
 1795 001a 2DDB     		blt	.L133
 918:Drivers/STM32H7xx_HAL_Driver/Src/stm32h7xx_ll_usb.c ****   uint32_t USBx_BASE = (uint32_t)USBx;
 1796              		.loc 1 918 21 view .LVU597
 1797 001c 0020     		movs	r0, #0
 1798              	.L125:
 1799              	.LVL120:
 962:Drivers/STM32H7xx_HAL_Driver/Src/stm32h7xx_ll_usb.c **** }
 1800              		.loc 1 962 3 is_stmt 1 view .LVU598
 963:Drivers/STM32H7xx_HAL_Driver/Src/stm32h7xx_ll_usb.c **** 
 1801              		.loc 1 963 1 is_stmt 0 view .LVU599
 1802 001e 02B0     		add	sp, sp, #8
 1803              	.LCFI23:
 1804              		.cfi_remember_state
 1805              		.cfi_def_cfa_offset 0
 1806              		@ sp needed
ARM GAS  C:\Users\ADMINI~1\AppData\Local\Temp\cceMOlfx.s 			page 67


 1807 0020 7047     		bx	lr
 1808              	.LVL121:
 1809              	.L132:
 1810              	.LCFI24:
 1811              		.cfi_restore_state
 925:Drivers/STM32H7xx_HAL_Driver/Src/stm32h7xx_ll_usb.c ****     {
 1812              		.loc 1 925 5 is_stmt 1 view .LVU600
 925:Drivers/STM32H7xx_HAL_Driver/Src/stm32h7xx_ll_usb.c ****     {
 1813              		.loc 1 925 11 is_stmt 0 view .LVU601
 1814 0022 0B78     		ldrb	r3, [r1]	@ zero_extendqisi2
 1815 0024 02EB4313 		add	r3, r2, r3, lsl #5
 925:Drivers/STM32H7xx_HAL_Driver/Src/stm32h7xx_ll_usb.c ****     {
 1816              		.loc 1 925 29 view .LVU602
 1817 0028 D3F800C9 		ldr	ip, [r3, #2304]
 925:Drivers/STM32H7xx_HAL_Driver/Src/stm32h7xx_ll_usb.c ****     {
 1818              		.loc 1 925 8 view .LVU603
 1819 002c BCF1000F 		cmp	ip, #0
 1820 0030 01DB     		blt	.L134
 918:Drivers/STM32H7xx_HAL_Driver/Src/stm32h7xx_ll_usb.c ****   uint32_t USBx_BASE = (uint32_t)USBx;
 1821              		.loc 1 918 21 view .LVU604
 1822 0032 0020     		movs	r0, #0
 1823 0034 F3E7     		b	.L125
 1824              	.L134:
 927:Drivers/STM32H7xx_HAL_Driver/Src/stm32h7xx_ll_usb.c ****       USBx_INEP(ep->num)->DIEPCTL |= (USB_OTG_DIEPCTL_EPDIS);
 1825              		.loc 1 927 7 is_stmt 1 view .LVU605
 927:Drivers/STM32H7xx_HAL_Driver/Src/stm32h7xx_ll_usb.c ****       USBx_INEP(ep->num)->DIEPCTL |= (USB_OTG_DIEPCTL_EPDIS);
 1826              		.loc 1 927 25 is_stmt 0 view .LVU606
 1827 0036 D3F800C9 		ldr	ip, [r3, #2304]
 927:Drivers/STM32H7xx_HAL_Driver/Src/stm32h7xx_ll_usb.c ****       USBx_INEP(ep->num)->DIEPCTL |= (USB_OTG_DIEPCTL_EPDIS);
 1828              		.loc 1 927 35 view .LVU607
 1829 003a 4CF0006C 		orr	ip, ip, #134217728
 1830 003e C3F800C9 		str	ip, [r3, #2304]
 928:Drivers/STM32H7xx_HAL_Driver/Src/stm32h7xx_ll_usb.c **** 
 1831              		.loc 1 928 7 is_stmt 1 view .LVU608
 1832 0042 0B78     		ldrb	r3, [r1]	@ zero_extendqisi2
 928:Drivers/STM32H7xx_HAL_Driver/Src/stm32h7xx_ll_usb.c **** 
 1833              		.loc 1 928 25 is_stmt 0 view .LVU609
 1834 0044 02EB4313 		add	r3, r2, r3, lsl #5
 1835 0048 D3F800C9 		ldr	ip, [r3, #2304]
 928:Drivers/STM32H7xx_HAL_Driver/Src/stm32h7xx_ll_usb.c **** 
 1836              		.loc 1 928 35 view .LVU610
 1837 004c 4CF0804C 		orr	ip, ip, #1073741824
 1838 0050 C3F800C9 		str	ip, [r3, #2304]
 1839              	.L126:
 930:Drivers/STM32H7xx_HAL_Driver/Src/stm32h7xx_ll_usb.c ****       {
 1840              		.loc 1 930 7 is_stmt 1 view .LVU611
 932:Drivers/STM32H7xx_HAL_Driver/Src/stm32h7xx_ll_usb.c **** 
 1841              		.loc 1 932 9 view .LVU612
 932:Drivers/STM32H7xx_HAL_Driver/Src/stm32h7xx_ll_usb.c **** 
 1842              		.loc 1 932 14 is_stmt 0 view .LVU613
 1843 0054 019B     		ldr	r3, [sp, #4]
 1844 0056 0133     		adds	r3, r3, #1
 1845 0058 0193     		str	r3, [sp, #4]
 934:Drivers/STM32H7xx_HAL_Driver/Src/stm32h7xx_ll_usb.c ****         {
 1846              		.loc 1 934 9 is_stmt 1 view .LVU614
 934:Drivers/STM32H7xx_HAL_Driver/Src/stm32h7xx_ll_usb.c ****         {
 1847              		.loc 1 934 19 is_stmt 0 view .LVU615
ARM GAS  C:\Users\ADMINI~1\AppData\Local\Temp\cceMOlfx.s 			page 68


 1848 005a DDF804C0 		ldr	ip, [sp, #4]
 934:Drivers/STM32H7xx_HAL_Driver/Src/stm32h7xx_ll_usb.c ****         {
 1849              		.loc 1 934 12 view .LVU616
 1850 005e 42F21073 		movw	r3, #10000
 1851 0062 9C45     		cmp	ip, r3
 1852 0064 DBD8     		bhi	.L125
 939:Drivers/STM32H7xx_HAL_Driver/Src/stm32h7xx_ll_usb.c ****     }
 1853              		.loc 1 939 72 is_stmt 1 view .LVU617
 939:Drivers/STM32H7xx_HAL_Driver/Src/stm32h7xx_ll_usb.c ****     }
 1854              		.loc 1 939 18 is_stmt 0 view .LVU618
 1855 0066 0B78     		ldrb	r3, [r1]	@ zero_extendqisi2
 1856 0068 02EB4313 		add	r3, r2, r3, lsl #5
 939:Drivers/STM32H7xx_HAL_Driver/Src/stm32h7xx_ll_usb.c ****     }
 1857              		.loc 1 939 36 view .LVU619
 1858 006c D3F80039 		ldr	r3, [r3, #2304]
 939:Drivers/STM32H7xx_HAL_Driver/Src/stm32h7xx_ll_usb.c ****     }
 1859              		.loc 1 939 72 view .LVU620
 1860 0070 002B     		cmp	r3, #0
 1861 0072 EFDB     		blt	.L126
 918:Drivers/STM32H7xx_HAL_Driver/Src/stm32h7xx_ll_usb.c ****   uint32_t USBx_BASE = (uint32_t)USBx;
 1862              		.loc 1 918 21 view .LVU621
 1863 0074 0020     		movs	r0, #0
 1864 0076 D2E7     		b	.L125
 1865              	.L133:
 946:Drivers/STM32H7xx_HAL_Driver/Src/stm32h7xx_ll_usb.c ****       USBx_OUTEP(ep->num)->DOEPCTL |= (USB_OTG_DOEPCTL_EPDIS);
 1866              		.loc 1 946 7 is_stmt 1 view .LVU622
 946:Drivers/STM32H7xx_HAL_Driver/Src/stm32h7xx_ll_usb.c ****       USBx_OUTEP(ep->num)->DOEPCTL |= (USB_OTG_DOEPCTL_EPDIS);
 1867              		.loc 1 946 26 is_stmt 0 view .LVU623
 1868 0078 D3F8000B 		ldr	r0, [r3, #2816]
 946:Drivers/STM32H7xx_HAL_Driver/Src/stm32h7xx_ll_usb.c ****       USBx_OUTEP(ep->num)->DOEPCTL |= (USB_OTG_DOEPCTL_EPDIS);
 1869              		.loc 1 946 36 view .LVU624
 1870 007c 40F00060 		orr	r0, r0, #134217728
 1871 0080 C3F8000B 		str	r0, [r3, #2816]
 947:Drivers/STM32H7xx_HAL_Driver/Src/stm32h7xx_ll_usb.c **** 
 1872              		.loc 1 947 7 is_stmt 1 view .LVU625
 1873 0084 0B78     		ldrb	r3, [r1]	@ zero_extendqisi2
 947:Drivers/STM32H7xx_HAL_Driver/Src/stm32h7xx_ll_usb.c **** 
 1874              		.loc 1 947 26 is_stmt 0 view .LVU626
 1875 0086 02EB4313 		add	r3, r2, r3, lsl #5
 1876 008a D3F8000B 		ldr	r0, [r3, #2816]
 947:Drivers/STM32H7xx_HAL_Driver/Src/stm32h7xx_ll_usb.c **** 
 1877              		.loc 1 947 36 view .LVU627
 1878 008e 40F08040 		orr	r0, r0, #1073741824
 1879 0092 C3F8000B 		str	r0, [r3, #2816]
 1880              	.L127:
 949:Drivers/STM32H7xx_HAL_Driver/Src/stm32h7xx_ll_usb.c ****       {
 1881              		.loc 1 949 7 is_stmt 1 view .LVU628
 951:Drivers/STM32H7xx_HAL_Driver/Src/stm32h7xx_ll_usb.c **** 
 1882              		.loc 1 951 9 view .LVU629
 951:Drivers/STM32H7xx_HAL_Driver/Src/stm32h7xx_ll_usb.c **** 
 1883              		.loc 1 951 14 is_stmt 0 view .LVU630
 1884 0096 019B     		ldr	r3, [sp, #4]
 1885 0098 0133     		adds	r3, r3, #1
 1886 009a 0193     		str	r3, [sp, #4]
 953:Drivers/STM32H7xx_HAL_Driver/Src/stm32h7xx_ll_usb.c ****         {
 1887              		.loc 1 953 9 is_stmt 1 view .LVU631
 953:Drivers/STM32H7xx_HAL_Driver/Src/stm32h7xx_ll_usb.c ****         {
ARM GAS  C:\Users\ADMINI~1\AppData\Local\Temp\cceMOlfx.s 			page 69


 1888              		.loc 1 953 19 is_stmt 0 view .LVU632
 1889 009c 0198     		ldr	r0, [sp, #4]
 953:Drivers/STM32H7xx_HAL_Driver/Src/stm32h7xx_ll_usb.c ****         {
 1890              		.loc 1 953 12 view .LVU633
 1891 009e 42F21073 		movw	r3, #10000
 1892 00a2 9842     		cmp	r0, r3
 1893 00a4 08D8     		bhi	.L130
 958:Drivers/STM32H7xx_HAL_Driver/Src/stm32h7xx_ll_usb.c ****     }
 1894              		.loc 1 958 73 is_stmt 1 view .LVU634
 958:Drivers/STM32H7xx_HAL_Driver/Src/stm32h7xx_ll_usb.c ****     }
 1895              		.loc 1 958 18 is_stmt 0 view .LVU635
 1896 00a6 0B78     		ldrb	r3, [r1]	@ zero_extendqisi2
 1897 00a8 02EB4313 		add	r3, r2, r3, lsl #5
 958:Drivers/STM32H7xx_HAL_Driver/Src/stm32h7xx_ll_usb.c ****     }
 1898              		.loc 1 958 37 view .LVU636
 1899 00ac D3F8003B 		ldr	r3, [r3, #2816]
 958:Drivers/STM32H7xx_HAL_Driver/Src/stm32h7xx_ll_usb.c ****     }
 1900              		.loc 1 958 73 view .LVU637
 1901 00b0 002B     		cmp	r3, #0
 1902 00b2 F0DB     		blt	.L127
 918:Drivers/STM32H7xx_HAL_Driver/Src/stm32h7xx_ll_usb.c ****   uint32_t USBx_BASE = (uint32_t)USBx;
 1903              		.loc 1 918 21 view .LVU638
 1904 00b4 0020     		movs	r0, #0
 1905 00b6 B2E7     		b	.L125
 1906              	.L130:
 955:Drivers/STM32H7xx_HAL_Driver/Src/stm32h7xx_ll_usb.c ****           break;
 1907              		.loc 1 955 15 view .LVU639
 1908 00b8 0120     		movs	r0, #1
 1909 00ba B0E7     		b	.L125
 1910              		.cfi_endproc
 1911              	.LFE365:
 1913              		.section	.text.USB_WritePacket,"ax",%progbits
 1914              		.align	1
 1915              		.global	USB_WritePacket
 1916              		.syntax unified
 1917              		.thumb
 1918              		.thumb_func
 1920              	USB_WritePacket:
 1921              	.LVL122:
 1922              	.LFB366:
 981:Drivers/STM32H7xx_HAL_Driver/Src/stm32h7xx_ll_usb.c ****   uint32_t USBx_BASE = (uint32_t)USBx;
 1923              		.loc 1 981 1 is_stmt 1 view -0
 1924              		.cfi_startproc
 1925              		@ args = 4, pretend = 0, frame = 0
 1926              		@ frame_needed = 0, uses_anonymous_args = 0
 981:Drivers/STM32H7xx_HAL_Driver/Src/stm32h7xx_ll_usb.c ****   uint32_t USBx_BASE = (uint32_t)USBx;
 1927              		.loc 1 981 1 is_stmt 0 view .LVU641
 1928 0000 10B5     		push	{r4, lr}
 1929              	.LCFI25:
 1930              		.cfi_def_cfa_offset 8
 1931              		.cfi_offset 4, -8
 1932              		.cfi_offset 14, -4
 1933 0002 0446     		mov	r4, r0
 1934 0004 9DF80800 		ldrb	r0, [sp, #8]	@ zero_extendqisi2
 1935              	.LVL123:
 982:Drivers/STM32H7xx_HAL_Driver/Src/stm32h7xx_ll_usb.c ****   uint8_t *pSrc = src;
 1936              		.loc 1 982 3 is_stmt 1 view .LVU642
ARM GAS  C:\Users\ADMINI~1\AppData\Local\Temp\cceMOlfx.s 			page 70


 983:Drivers/STM32H7xx_HAL_Driver/Src/stm32h7xx_ll_usb.c ****   uint32_t count32b;
 1937              		.loc 1 983 3 view .LVU643
 984:Drivers/STM32H7xx_HAL_Driver/Src/stm32h7xx_ll_usb.c ****   uint32_t i;
 1938              		.loc 1 984 3 view .LVU644
 985:Drivers/STM32H7xx_HAL_Driver/Src/stm32h7xx_ll_usb.c **** 
 1939              		.loc 1 985 3 view .LVU645
 987:Drivers/STM32H7xx_HAL_Driver/Src/stm32h7xx_ll_usb.c ****   {
 1940              		.loc 1 987 3 view .LVU646
 987:Drivers/STM32H7xx_HAL_Driver/Src/stm32h7xx_ll_usb.c ****   {
 1941              		.loc 1 987 6 is_stmt 0 view .LVU647
 1942 0008 78B9     		cbnz	r0, .L136
 989:Drivers/STM32H7xx_HAL_Driver/Src/stm32h7xx_ll_usb.c ****     for (i = 0U; i < count32b; i++)
 1943              		.loc 1 989 5 is_stmt 1 view .LVU648
 989:Drivers/STM32H7xx_HAL_Driver/Src/stm32h7xx_ll_usb.c ****     for (i = 0U; i < count32b; i++)
 1944              		.loc 1 989 31 is_stmt 0 view .LVU649
 1945 000a 0333     		adds	r3, r3, #3
 1946              	.LVL124:
 989:Drivers/STM32H7xx_HAL_Driver/Src/stm32h7xx_ll_usb.c ****     for (i = 0U; i < count32b; i++)
 1947              		.loc 1 989 14 view .LVU650
 1948 000c 4FEA930E 		lsr	lr, r3, #2
 1949              	.LVL125:
 990:Drivers/STM32H7xx_HAL_Driver/Src/stm32h7xx_ll_usb.c ****     {
 1950              		.loc 1 990 5 is_stmt 1 view .LVU651
 990:Drivers/STM32H7xx_HAL_Driver/Src/stm32h7xx_ll_usb.c ****     {
 1951              		.loc 1 990 12 is_stmt 0 view .LVU652
 1952 0010 8446     		mov	ip, r0
 990:Drivers/STM32H7xx_HAL_Driver/Src/stm32h7xx_ll_usb.c ****     {
 1953              		.loc 1 990 5 view .LVU653
 1954 0012 08E0     		b	.L137
 1955              	.LVL126:
 1956              	.L138:
 992:Drivers/STM32H7xx_HAL_Driver/Src/stm32h7xx_ll_usb.c ****       pSrc++;
 1957              		.loc 1 992 7 is_stmt 1 view .LVU654
 1958 0014 04EB0233 		add	r3, r4, r2, lsl #12
 1959 0018 03F58053 		add	r3, r3, #4096
 992:Drivers/STM32H7xx_HAL_Driver/Src/stm32h7xx_ll_usb.c ****       pSrc++;
 1960              		.loc 1 992 41 is_stmt 0 view .LVU655
 1961 001c 51F8040B 		ldr	r0, [r1], #4	@ unaligned
 1962              	.LVL127:
 992:Drivers/STM32H7xx_HAL_Driver/Src/stm32h7xx_ll_usb.c ****       pSrc++;
 1963              		.loc 1 992 39 view .LVU656
 1964 0020 1860     		str	r0, [r3]
 993:Drivers/STM32H7xx_HAL_Driver/Src/stm32h7xx_ll_usb.c ****       pSrc++;
 1965              		.loc 1 993 7 is_stmt 1 view .LVU657
 994:Drivers/STM32H7xx_HAL_Driver/Src/stm32h7xx_ll_usb.c ****       pSrc++;
 1966              		.loc 1 994 7 view .LVU658
 995:Drivers/STM32H7xx_HAL_Driver/Src/stm32h7xx_ll_usb.c ****       pSrc++;
 1967              		.loc 1 995 7 view .LVU659
 1968              	.LVL128:
 996:Drivers/STM32H7xx_HAL_Driver/Src/stm32h7xx_ll_usb.c ****     }
 1969              		.loc 1 996 7 view .LVU660
 990:Drivers/STM32H7xx_HAL_Driver/Src/stm32h7xx_ll_usb.c ****     {
 1970              		.loc 1 990 33 discriminator 3 view .LVU661
 1971 0022 0CF1010C 		add	ip, ip, #1
 1972              	.LVL129:
 1973              	.L137:
 990:Drivers/STM32H7xx_HAL_Driver/Src/stm32h7xx_ll_usb.c ****     {
ARM GAS  C:\Users\ADMINI~1\AppData\Local\Temp\cceMOlfx.s 			page 71


 1974              		.loc 1 990 20 discriminator 1 view .LVU662
 1975 0026 F445     		cmp	ip, lr
 1976 0028 F4D3     		bcc	.L138
 1977              	.LVL130:
 1978              	.L136:
1000:Drivers/STM32H7xx_HAL_Driver/Src/stm32h7xx_ll_usb.c **** }
 1979              		.loc 1 1000 3 view .LVU663
1001:Drivers/STM32H7xx_HAL_Driver/Src/stm32h7xx_ll_usb.c **** 
 1980              		.loc 1 1001 1 is_stmt 0 view .LVU664
 1981 002a 0020     		movs	r0, #0
 1982 002c 10BD     		pop	{r4, pc}
1001:Drivers/STM32H7xx_HAL_Driver/Src/stm32h7xx_ll_usb.c **** 
 1983              		.loc 1 1001 1 view .LVU665
 1984              		.cfi_endproc
 1985              	.LFE366:
 1987              		.section	.text.USB_EPStartXfer,"ax",%progbits
 1988              		.align	1
 1989              		.global	USB_EPStartXfer
 1990              		.syntax unified
 1991              		.thumb
 1992              		.thumb_func
 1994              	USB_EPStartXfer:
 1995              	.LVL131:
 1996              	.LFB364:
 744:Drivers/STM32H7xx_HAL_Driver/Src/stm32h7xx_ll_usb.c ****   uint32_t USBx_BASE = (uint32_t)USBx;
 1997              		.loc 1 744 1 is_stmt 1 view -0
 1998              		.cfi_startproc
 1999              		@ args = 0, pretend = 0, frame = 0
 2000              		@ frame_needed = 0, uses_anonymous_args = 0
 744:Drivers/STM32H7xx_HAL_Driver/Src/stm32h7xx_ll_usb.c ****   uint32_t USBx_BASE = (uint32_t)USBx;
 2001              		.loc 1 744 1 is_stmt 0 view .LVU667
 2002 0000 70B5     		push	{r4, r5, r6, lr}
 2003              	.LCFI26:
 2004              		.cfi_def_cfa_offset 16
 2005              		.cfi_offset 4, -16
 2006              		.cfi_offset 5, -12
 2007              		.cfi_offset 6, -8
 2008              		.cfi_offset 14, -4
 2009 0002 82B0     		sub	sp, sp, #8
 2010              	.LCFI27:
 2011              		.cfi_def_cfa_offset 24
 2012 0004 1646     		mov	r6, r2
 745:Drivers/STM32H7xx_HAL_Driver/Src/stm32h7xx_ll_usb.c ****   uint32_t epnum = (uint32_t)ep->num;
 2013              		.loc 1 745 3 is_stmt 1 view .LVU668
 2014              	.LVL132:
 746:Drivers/STM32H7xx_HAL_Driver/Src/stm32h7xx_ll_usb.c ****   uint16_t pktcnt;
 2015              		.loc 1 746 3 view .LVU669
 746:Drivers/STM32H7xx_HAL_Driver/Src/stm32h7xx_ll_usb.c ****   uint16_t pktcnt;
 2016              		.loc 1 746 32 is_stmt 0 view .LVU670
 2017 0006 0A78     		ldrb	r2, [r1]	@ zero_extendqisi2
 2018              	.LVL133:
 747:Drivers/STM32H7xx_HAL_Driver/Src/stm32h7xx_ll_usb.c **** 
 2019              		.loc 1 747 3 is_stmt 1 view .LVU671
 750:Drivers/STM32H7xx_HAL_Driver/Src/stm32h7xx_ll_usb.c ****   {
 2020              		.loc 1 750 3 view .LVU672
 750:Drivers/STM32H7xx_HAL_Driver/Src/stm32h7xx_ll_usb.c ****   {
 2021              		.loc 1 750 9 is_stmt 0 view .LVU673
ARM GAS  C:\Users\ADMINI~1\AppData\Local\Temp\cceMOlfx.s 			page 72


 2022 0008 4B78     		ldrb	r3, [r1, #1]	@ zero_extendqisi2
 750:Drivers/STM32H7xx_HAL_Driver/Src/stm32h7xx_ll_usb.c ****   {
 2023              		.loc 1 750 6 view .LVU674
 2024 000a 012B     		cmp	r3, #1
 2025 000c 31D0     		beq	.L163
 849:Drivers/STM32H7xx_HAL_Driver/Src/stm32h7xx_ll_usb.c ****     USBx_OUTEP(epnum)->DOEPTSIZ &= ~(USB_OTG_DOEPTSIZ_PKTCNT);
 2026              		.loc 1 849 5 is_stmt 1 view .LVU675
 849:Drivers/STM32H7xx_HAL_Driver/Src/stm32h7xx_ll_usb.c ****     USBx_OUTEP(epnum)->DOEPTSIZ &= ~(USB_OTG_DOEPTSIZ_PKTCNT);
 2027              		.loc 1 849 22 is_stmt 0 view .LVU676
 2028 000e 00EB421E 		add	lr, r0, r2, lsl #5
 2029 0012 0EF53063 		add	r3, lr, #2816
 2030 0016 D3F810C0 		ldr	ip, [r3, #16]
 849:Drivers/STM32H7xx_HAL_Driver/Src/stm32h7xx_ll_usb.c ****     USBx_OUTEP(epnum)->DOEPTSIZ &= ~(USB_OTG_DOEPTSIZ_PKTCNT);
 2031              		.loc 1 849 33 view .LVU677
 2032 001a 6FF3120C 		bfc	ip, #0, #19
 2033 001e C3F810C0 		str	ip, [r3, #16]
 850:Drivers/STM32H7xx_HAL_Driver/Src/stm32h7xx_ll_usb.c **** 
 2034              		.loc 1 850 5 is_stmt 1 view .LVU678
 850:Drivers/STM32H7xx_HAL_Driver/Src/stm32h7xx_ll_usb.c **** 
 2035              		.loc 1 850 22 is_stmt 0 view .LVU679
 2036 0022 D3F810C0 		ldr	ip, [r3, #16]
 850:Drivers/STM32H7xx_HAL_Driver/Src/stm32h7xx_ll_usb.c **** 
 2037              		.loc 1 850 33 view .LVU680
 2038 0026 6FF3DC4C 		bfc	ip, #19, #10
 2039 002a C3F810C0 		str	ip, [r3, #16]
 852:Drivers/STM32H7xx_HAL_Driver/Src/stm32h7xx_ll_usb.c ****     {
 2040              		.loc 1 852 5 is_stmt 1 view .LVU681
 852:Drivers/STM32H7xx_HAL_Driver/Src/stm32h7xx_ll_usb.c ****     {
 2041              		.loc 1 852 8 is_stmt 0 view .LVU682
 2042 002e 002A     		cmp	r2, #0
 2043 0030 40F0E680 		bne	.L155
 854:Drivers/STM32H7xx_HAL_Driver/Src/stm32h7xx_ll_usb.c ****       {
 2044              		.loc 1 854 7 is_stmt 1 view .LVU683
 854:Drivers/STM32H7xx_HAL_Driver/Src/stm32h7xx_ll_usb.c ****       {
 2045              		.loc 1 854 13 is_stmt 0 view .LVU684
 2046 0034 0A69     		ldr	r2, [r1, #16]
 2047              	.LVL134:
 854:Drivers/STM32H7xx_HAL_Driver/Src/stm32h7xx_ll_usb.c ****       {
 2048              		.loc 1 854 10 view .LVU685
 2049 0036 0AB1     		cbz	r2, .L156
 856:Drivers/STM32H7xx_HAL_Driver/Src/stm32h7xx_ll_usb.c ****       }
 2050              		.loc 1 856 9 is_stmt 1 view .LVU686
 856:Drivers/STM32H7xx_HAL_Driver/Src/stm32h7xx_ll_usb.c ****       }
 2051              		.loc 1 856 26 is_stmt 0 view .LVU687
 2052 0038 8A68     		ldr	r2, [r1, #8]
 856:Drivers/STM32H7xx_HAL_Driver/Src/stm32h7xx_ll_usb.c ****       }
 2053              		.loc 1 856 22 view .LVU688
 2054 003a 0A61     		str	r2, [r1, #16]
 2055              	.L156:
 860:Drivers/STM32H7xx_HAL_Driver/Src/stm32h7xx_ll_usb.c **** 
 2056              		.loc 1 860 7 is_stmt 1 view .LVU689
 860:Drivers/STM32H7xx_HAL_Driver/Src/stm32h7xx_ll_usb.c **** 
 2057              		.loc 1 860 25 is_stmt 0 view .LVU690
 2058 003c 8A68     		ldr	r2, [r1, #8]
 860:Drivers/STM32H7xx_HAL_Driver/Src/stm32h7xx_ll_usb.c **** 
 2059              		.loc 1 860 21 view .LVU691
 2060 003e 0A62     		str	r2, [r1, #32]
ARM GAS  C:\Users\ADMINI~1\AppData\Local\Temp\cceMOlfx.s 			page 73


 862:Drivers/STM32H7xx_HAL_Driver/Src/stm32h7xx_ll_usb.c ****       USBx_OUTEP(epnum)->DOEPTSIZ |= (USB_OTG_DOEPTSIZ_PKTCNT & (1U << 19));
 2061              		.loc 1 862 7 is_stmt 1 view .LVU692
 862:Drivers/STM32H7xx_HAL_Driver/Src/stm32h7xx_ll_usb.c ****       USBx_OUTEP(epnum)->DOEPTSIZ |= (USB_OTG_DOEPTSIZ_PKTCNT & (1U << 19));
 2062              		.loc 1 862 24 is_stmt 0 view .LVU693
 2063 0040 1C69     		ldr	r4, [r3, #16]
 862:Drivers/STM32H7xx_HAL_Driver/Src/stm32h7xx_ll_usb.c ****       USBx_OUTEP(epnum)->DOEPTSIZ |= (USB_OTG_DOEPTSIZ_PKTCNT & (1U << 19));
 2064              		.loc 1 862 63 view .LVU694
 2065 0042 C2F31202 		ubfx	r2, r2, #0, #19
 862:Drivers/STM32H7xx_HAL_Driver/Src/stm32h7xx_ll_usb.c ****       USBx_OUTEP(epnum)->DOEPTSIZ |= (USB_OTG_DOEPTSIZ_PKTCNT & (1U << 19));
 2066              		.loc 1 862 35 view .LVU695
 2067 0046 2243     		orrs	r2, r2, r4
 2068 0048 1A61     		str	r2, [r3, #16]
 863:Drivers/STM32H7xx_HAL_Driver/Src/stm32h7xx_ll_usb.c ****     }
 2069              		.loc 1 863 7 is_stmt 1 view .LVU696
 863:Drivers/STM32H7xx_HAL_Driver/Src/stm32h7xx_ll_usb.c ****     }
 2070              		.loc 1 863 24 is_stmt 0 view .LVU697
 2071 004a 1A69     		ldr	r2, [r3, #16]
 863:Drivers/STM32H7xx_HAL_Driver/Src/stm32h7xx_ll_usb.c ****     }
 2072              		.loc 1 863 35 view .LVU698
 2073 004c 42F40022 		orr	r2, r2, #524288
 2074 0050 1A61     		str	r2, [r3, #16]
 2075              	.L157:
 882:Drivers/STM32H7xx_HAL_Driver/Src/stm32h7xx_ll_usb.c ****     {
 2076              		.loc 1 882 5 is_stmt 1 view .LVU699
 882:Drivers/STM32H7xx_HAL_Driver/Src/stm32h7xx_ll_usb.c ****     {
 2077              		.loc 1 882 8 is_stmt 0 view .LVU700
 2078 0052 012E     		cmp	r6, #1
 2079 0054 00F0F780 		beq	.L164
 2080              	.L159:
 890:Drivers/STM32H7xx_HAL_Driver/Src/stm32h7xx_ll_usb.c ****     {
 2081              		.loc 1 890 5 is_stmt 1 view .LVU701
 890:Drivers/STM32H7xx_HAL_Driver/Src/stm32h7xx_ll_usb.c ****     {
 2082              		.loc 1 890 11 is_stmt 0 view .LVU702
 2083 0058 0B79     		ldrb	r3, [r1, #4]	@ zero_extendqisi2
 890:Drivers/STM32H7xx_HAL_Driver/Src/stm32h7xx_ll_usb.c ****     {
 2084              		.loc 1 890 8 view .LVU703
 2085 005a 012B     		cmp	r3, #1
 2086 005c 00F0F980 		beq	.L165
 2087              	.L160:
 902:Drivers/STM32H7xx_HAL_Driver/Src/stm32h7xx_ll_usb.c ****   }
 2088              		.loc 1 902 5 is_stmt 1 view .LVU704
 902:Drivers/STM32H7xx_HAL_Driver/Src/stm32h7xx_ll_usb.c ****   }
 2089              		.loc 1 902 22 is_stmt 0 view .LVU705
 2090 0060 DEF8003B 		ldr	r3, [lr, #2816]
 902:Drivers/STM32H7xx_HAL_Driver/Src/stm32h7xx_ll_usb.c ****   }
 2091              		.loc 1 902 32 view .LVU706
 2092 0064 43F00443 		orr	r3, r3, #-2080374784
 2093 0068 CEF8003B 		str	r3, [lr, #2816]
 2094              	.LVL135:
 2095              	.L151:
 905:Drivers/STM32H7xx_HAL_Driver/Src/stm32h7xx_ll_usb.c **** }
 2096              		.loc 1 905 3 is_stmt 1 view .LVU707
 906:Drivers/STM32H7xx_HAL_Driver/Src/stm32h7xx_ll_usb.c **** 
 2097              		.loc 1 906 1 is_stmt 0 view .LVU708
 2098 006c 0020     		movs	r0, #0
 2099 006e 02B0     		add	sp, sp, #8
 2100              	.LCFI28:
ARM GAS  C:\Users\ADMINI~1\AppData\Local\Temp\cceMOlfx.s 			page 74


 2101              		.cfi_remember_state
 2102              		.cfi_def_cfa_offset 16
 2103              		@ sp needed
 2104 0070 70BD     		pop	{r4, r5, r6, pc}
 2105              	.LVL136:
 2106              	.L163:
 2107              	.LCFI29:
 2108              		.cfi_restore_state
 753:Drivers/STM32H7xx_HAL_Driver/Src/stm32h7xx_ll_usb.c ****     {
 2109              		.loc 1 753 5 is_stmt 1 view .LVU709
 753:Drivers/STM32H7xx_HAL_Driver/Src/stm32h7xx_ll_usb.c ****     {
 2110              		.loc 1 753 11 is_stmt 0 view .LVU710
 2111 0072 0B69     		ldr	r3, [r1, #16]
 753:Drivers/STM32H7xx_HAL_Driver/Src/stm32h7xx_ll_usb.c ****     {
 2112              		.loc 1 753 8 view .LVU711
 2113 0074 7BBB     		cbnz	r3, .L142
 755:Drivers/STM32H7xx_HAL_Driver/Src/stm32h7xx_ll_usb.c ****       USBx_INEP(epnum)->DIEPTSIZ |= (USB_OTG_DIEPTSIZ_PKTCNT & (1U << 19));
 2114              		.loc 1 755 7 is_stmt 1 view .LVU712
 755:Drivers/STM32H7xx_HAL_Driver/Src/stm32h7xx_ll_usb.c ****       USBx_INEP(epnum)->DIEPTSIZ |= (USB_OTG_DIEPTSIZ_PKTCNT & (1U << 19));
 2115              		.loc 1 755 23 is_stmt 0 view .LVU713
 2116 0076 00EB4213 		add	r3, r0, r2, lsl #5
 2117 007a D3F810E9 		ldr	lr, [r3, #2320]
 755:Drivers/STM32H7xx_HAL_Driver/Src/stm32h7xx_ll_usb.c ****       USBx_INEP(epnum)->DIEPTSIZ |= (USB_OTG_DIEPTSIZ_PKTCNT & (1U << 19));
 2118              		.loc 1 755 34 view .LVU714
 2119 007e 6FF3DC4E 		bfc	lr, #19, #10
 2120 0082 C3F810E9 		str	lr, [r3, #2320]
 756:Drivers/STM32H7xx_HAL_Driver/Src/stm32h7xx_ll_usb.c ****       USBx_INEP(epnum)->DIEPTSIZ &= ~(USB_OTG_DIEPTSIZ_XFRSIZ);
 2121              		.loc 1 756 7 is_stmt 1 view .LVU715
 756:Drivers/STM32H7xx_HAL_Driver/Src/stm32h7xx_ll_usb.c ****       USBx_INEP(epnum)->DIEPTSIZ &= ~(USB_OTG_DIEPTSIZ_XFRSIZ);
 2122              		.loc 1 756 23 is_stmt 0 view .LVU716
 2123 0086 D3F810E9 		ldr	lr, [r3, #2320]
 756:Drivers/STM32H7xx_HAL_Driver/Src/stm32h7xx_ll_usb.c ****       USBx_INEP(epnum)->DIEPTSIZ &= ~(USB_OTG_DIEPTSIZ_XFRSIZ);
 2124              		.loc 1 756 34 view .LVU717
 2125 008a 4EF4002E 		orr	lr, lr, #524288
 2126 008e C3F810E9 		str	lr, [r3, #2320]
 757:Drivers/STM32H7xx_HAL_Driver/Src/stm32h7xx_ll_usb.c ****     }
 2127              		.loc 1 757 7 is_stmt 1 view .LVU718
 757:Drivers/STM32H7xx_HAL_Driver/Src/stm32h7xx_ll_usb.c ****     }
 2128              		.loc 1 757 23 is_stmt 0 view .LVU719
 2129 0092 D3F810E9 		ldr	lr, [r3, #2320]
 757:Drivers/STM32H7xx_HAL_Driver/Src/stm32h7xx_ll_usb.c ****     }
 2130              		.loc 1 757 34 view .LVU720
 2131 0096 6FF3120E 		bfc	lr, #0, #19
 2132 009a C3F810E9 		str	lr, [r3, #2320]
 2133              	.L143:
 793:Drivers/STM32H7xx_HAL_Driver/Src/stm32h7xx_ll_usb.c ****     {
 2134              		.loc 1 793 5 is_stmt 1 view .LVU721
 793:Drivers/STM32H7xx_HAL_Driver/Src/stm32h7xx_ll_usb.c ****     {
 2135              		.loc 1 793 8 is_stmt 0 view .LVU722
 2136 009e 012E     		cmp	r6, #1
 2137 00a0 6CD0     		beq	.L166
 818:Drivers/STM32H7xx_HAL_Driver/Src/stm32h7xx_ll_usb.c **** 
 2138              		.loc 1 818 7 is_stmt 1 view .LVU723
 818:Drivers/STM32H7xx_HAL_Driver/Src/stm32h7xx_ll_usb.c **** 
 2139              		.loc 1 818 23 is_stmt 0 view .LVU724
 2140 00a2 00EB4212 		add	r2, r0, r2, lsl #5
 2141              	.LVL137:
ARM GAS  C:\Users\ADMINI~1\AppData\Local\Temp\cceMOlfx.s 			page 75


 818:Drivers/STM32H7xx_HAL_Driver/Src/stm32h7xx_ll_usb.c **** 
 2142              		.loc 1 818 23 view .LVU725
 2143 00a6 D2F80039 		ldr	r3, [r2, #2304]
 818:Drivers/STM32H7xx_HAL_Driver/Src/stm32h7xx_ll_usb.c **** 
 2144              		.loc 1 818 33 view .LVU726
 2145 00aa 43F00443 		orr	r3, r3, #-2080374784
 2146 00ae C2F80039 		str	r3, [r2, #2304]
 820:Drivers/STM32H7xx_HAL_Driver/Src/stm32h7xx_ll_usb.c ****       {
 2147              		.loc 1 820 7 is_stmt 1 view .LVU727
 820:Drivers/STM32H7xx_HAL_Driver/Src/stm32h7xx_ll_usb.c ****       {
 2148              		.loc 1 820 13 is_stmt 0 view .LVU728
 2149 00b2 0B79     		ldrb	r3, [r1, #4]	@ zero_extendqisi2
 820:Drivers/STM32H7xx_HAL_Driver/Src/stm32h7xx_ll_usb.c ****       {
 2150              		.loc 1 820 10 view .LVU729
 2151 00b4 012B     		cmp	r3, #1
 2152 00b6 00F08A80 		beq	.L152
 823:Drivers/STM32H7xx_HAL_Driver/Src/stm32h7xx_ll_usb.c ****         {
 2153              		.loc 1 823 9 is_stmt 1 view .LVU730
 823:Drivers/STM32H7xx_HAL_Driver/Src/stm32h7xx_ll_usb.c ****         {
 2154              		.loc 1 823 15 is_stmt 0 view .LVU731
 2155 00ba 0B69     		ldr	r3, [r1, #16]
 823:Drivers/STM32H7xx_HAL_Driver/Src/stm32h7xx_ll_usb.c ****         {
 2156              		.loc 1 823 12 view .LVU732
 2157 00bc 002B     		cmp	r3, #0
 2158 00be D5D0     		beq	.L151
 825:Drivers/STM32H7xx_HAL_Driver/Src/stm32h7xx_ll_usb.c ****         }
 2159              		.loc 1 825 11 is_stmt 1 view .LVU733
 825:Drivers/STM32H7xx_HAL_Driver/Src/stm32h7xx_ll_usb.c ****         }
 2160              		.loc 1 825 22 is_stmt 0 view .LVU734
 2161 00c0 D0F83438 		ldr	r3, [r0, #2100]
 825:Drivers/STM32H7xx_HAL_Driver/Src/stm32h7xx_ll_usb.c ****         }
 2162              		.loc 1 825 48 view .LVU735
 2163 00c4 0978     		ldrb	r1, [r1]	@ zero_extendqisi2
 2164              	.LVL138:
 825:Drivers/STM32H7xx_HAL_Driver/Src/stm32h7xx_ll_usb.c ****         }
 2165              		.loc 1 825 54 view .LVU736
 2166 00c6 01F00F01 		and	r1, r1, #15
 825:Drivers/STM32H7xx_HAL_Driver/Src/stm32h7xx_ll_usb.c ****         }
 2167              		.loc 1 825 42 view .LVU737
 2168 00ca 0122     		movs	r2, #1
 2169 00cc 8A40     		lsls	r2, r2, r1
 825:Drivers/STM32H7xx_HAL_Driver/Src/stm32h7xx_ll_usb.c ****         }
 2170              		.loc 1 825 35 view .LVU738
 2171 00ce 1343     		orrs	r3, r3, r2
 2172 00d0 C0F83438 		str	r3, [r0, #2100]
 2173 00d4 CAE7     		b	.L151
 2174              	.LVL139:
 2175              	.L142:
 766:Drivers/STM32H7xx_HAL_Driver/Src/stm32h7xx_ll_usb.c ****       USBx_INEP(epnum)->DIEPTSIZ &= ~(USB_OTG_DIEPTSIZ_PKTCNT);
 2176              		.loc 1 766 7 is_stmt 1 view .LVU739
 766:Drivers/STM32H7xx_HAL_Driver/Src/stm32h7xx_ll_usb.c ****       USBx_INEP(epnum)->DIEPTSIZ &= ~(USB_OTG_DIEPTSIZ_PKTCNT);
 2177              		.loc 1 766 23 is_stmt 0 view .LVU740
 2178 00d6 00EB4213 		add	r3, r0, r2, lsl #5
 2179 00da 03F51063 		add	r3, r3, #2304
 2180 00de D3F810E0 		ldr	lr, [r3, #16]
 766:Drivers/STM32H7xx_HAL_Driver/Src/stm32h7xx_ll_usb.c ****       USBx_INEP(epnum)->DIEPTSIZ &= ~(USB_OTG_DIEPTSIZ_PKTCNT);
 2181              		.loc 1 766 34 view .LVU741
ARM GAS  C:\Users\ADMINI~1\AppData\Local\Temp\cceMOlfx.s 			page 76


 2182 00e2 6FF3120E 		bfc	lr, #0, #19
 2183 00e6 C3F810E0 		str	lr, [r3, #16]
 767:Drivers/STM32H7xx_HAL_Driver/Src/stm32h7xx_ll_usb.c **** 
 2184              		.loc 1 767 7 is_stmt 1 view .LVU742
 767:Drivers/STM32H7xx_HAL_Driver/Src/stm32h7xx_ll_usb.c **** 
 2185              		.loc 1 767 23 is_stmt 0 view .LVU743
 2186 00ea D3F810E0 		ldr	lr, [r3, #16]
 767:Drivers/STM32H7xx_HAL_Driver/Src/stm32h7xx_ll_usb.c **** 
 2187              		.loc 1 767 34 view .LVU744
 2188 00ee 6FF3DC4E 		bfc	lr, #19, #10
 2189 00f2 C3F810E0 		str	lr, [r3, #16]
 769:Drivers/STM32H7xx_HAL_Driver/Src/stm32h7xx_ll_usb.c ****       {
 2190              		.loc 1 769 7 is_stmt 1 view .LVU745
 769:Drivers/STM32H7xx_HAL_Driver/Src/stm32h7xx_ll_usb.c ****       {
 2191              		.loc 1 769 10 is_stmt 0 view .LVU746
 2192 00f6 B2B9     		cbnz	r2, .L144
 771:Drivers/STM32H7xx_HAL_Driver/Src/stm32h7xx_ll_usb.c ****         {
 2193              		.loc 1 771 9 is_stmt 1 view .LVU747
 771:Drivers/STM32H7xx_HAL_Driver/Src/stm32h7xx_ll_usb.c ****         {
 2194              		.loc 1 771 30 is_stmt 0 view .LVU748
 2195 00f8 D1F808E0 		ldr	lr, [r1, #8]
 771:Drivers/STM32H7xx_HAL_Driver/Src/stm32h7xx_ll_usb.c ****         {
 2196              		.loc 1 771 12 view .LVU749
 2197 00fc 0C69     		ldr	r4, [r1, #16]
 2198 00fe 7445     		cmp	r4, lr
 2199 0100 01D9     		bls	.L145
 773:Drivers/STM32H7xx_HAL_Driver/Src/stm32h7xx_ll_usb.c ****         }
 2200              		.loc 1 773 11 is_stmt 1 view .LVU750
 773:Drivers/STM32H7xx_HAL_Driver/Src/stm32h7xx_ll_usb.c ****         }
 2201              		.loc 1 773 24 is_stmt 0 view .LVU751
 2202 0102 C1F810E0 		str	lr, [r1, #16]
 2203              	.L145:
 776:Drivers/STM32H7xx_HAL_Driver/Src/stm32h7xx_ll_usb.c ****       }
 2204              		.loc 1 776 9 is_stmt 1 view .LVU752
 776:Drivers/STM32H7xx_HAL_Driver/Src/stm32h7xx_ll_usb.c ****       }
 2205              		.loc 1 776 25 is_stmt 0 view .LVU753
 2206 0106 D3F810E0 		ldr	lr, [r3, #16]
 776:Drivers/STM32H7xx_HAL_Driver/Src/stm32h7xx_ll_usb.c ****       }
 2207              		.loc 1 776 36 view .LVU754
 2208 010a 4EF4002E 		orr	lr, lr, #524288
 2209 010e C3F810E0 		str	lr, [r3, #16]
 2210              	.L146:
 790:Drivers/STM32H7xx_HAL_Driver/Src/stm32h7xx_ll_usb.c ****     }
 2211              		.loc 1 790 7 is_stmt 1 view .LVU755
 790:Drivers/STM32H7xx_HAL_Driver/Src/stm32h7xx_ll_usb.c ****     }
 2212              		.loc 1 790 23 is_stmt 0 view .LVU756
 2213 0112 D3F810E0 		ldr	lr, [r3, #16]
 790:Drivers/STM32H7xx_HAL_Driver/Src/stm32h7xx_ll_usb.c ****     }
 2214              		.loc 1 790 62 view .LVU757
 2215 0116 0C69     		ldr	r4, [r1, #16]
 2216 0118 C4F3120C 		ubfx	ip, r4, #0, #19
 790:Drivers/STM32H7xx_HAL_Driver/Src/stm32h7xx_ll_usb.c ****     }
 2217              		.loc 1 790 34 view .LVU758
 2218 011c 4EEA0C0E 		orr	lr, lr, ip
 2219 0120 C3F810E0 		str	lr, [r3, #16]
 2220 0124 BBE7     		b	.L143
 2221              	.L144:
ARM GAS  C:\Users\ADMINI~1\AppData\Local\Temp\cceMOlfx.s 			page 77


 780:Drivers/STM32H7xx_HAL_Driver/Src/stm32h7xx_ll_usb.c ****         USBx_INEP(epnum)->DIEPTSIZ |= (USB_OTG_DIEPTSIZ_PKTCNT & ((uint32_t)pktcnt << 19));
 2222              		.loc 1 780 9 is_stmt 1 view .LVU759
 780:Drivers/STM32H7xx_HAL_Driver/Src/stm32h7xx_ll_usb.c ****         USBx_INEP(epnum)->DIEPTSIZ |= (USB_OTG_DIEPTSIZ_PKTCNT & ((uint32_t)pktcnt << 19));
 2223              		.loc 1 780 47 is_stmt 0 view .LVU760
 2224 0126 D1F808C0 		ldr	ip, [r1, #8]
 780:Drivers/STM32H7xx_HAL_Driver/Src/stm32h7xx_ll_usb.c ****         USBx_INEP(epnum)->DIEPTSIZ |= (USB_OTG_DIEPTSIZ_PKTCNT & ((uint32_t)pktcnt << 19));
 2225              		.loc 1 780 43 view .LVU761
 2226 012a 0C69     		ldr	r4, [r1, #16]
 2227 012c 04EB0C0E 		add	lr, r4, ip
 780:Drivers/STM32H7xx_HAL_Driver/Src/stm32h7xx_ll_usb.c ****         USBx_INEP(epnum)->DIEPTSIZ |= (USB_OTG_DIEPTSIZ_PKTCNT & ((uint32_t)pktcnt << 19));
 2228              		.loc 1 780 59 view .LVU762
 2229 0130 0EF1FF3E 		add	lr, lr, #-1
 780:Drivers/STM32H7xx_HAL_Driver/Src/stm32h7xx_ll_usb.c ****         USBx_INEP(epnum)->DIEPTSIZ |= (USB_OTG_DIEPTSIZ_PKTCNT & ((uint32_t)pktcnt << 19));
 2230              		.loc 1 780 65 view .LVU763
 2231 0134 BEFBFCFE 		udiv	lr, lr, ip
 2232              	.LVL140:
 781:Drivers/STM32H7xx_HAL_Driver/Src/stm32h7xx_ll_usb.c **** 
 2233              		.loc 1 781 9 is_stmt 1 view .LVU764
 781:Drivers/STM32H7xx_HAL_Driver/Src/stm32h7xx_ll_usb.c **** 
 2234              		.loc 1 781 25 is_stmt 0 view .LVU765
 2235 0138 D3F810C0 		ldr	ip, [r3, #16]
 2236 013c 1FFA8EF4 		uxth	r4, lr
 2237 0140 2546     		mov	r5, r4
 781:Drivers/STM32H7xx_HAL_Driver/Src/stm32h7xx_ll_usb.c **** 
 2238              		.loc 1 781 64 view .LVU766
 2239 0142 4D4C     		ldr	r4, .L168
 2240 0144 04EACE4E 		and	lr, r4, lr, lsl #19
 2241              	.LVL141:
 781:Drivers/STM32H7xx_HAL_Driver/Src/stm32h7xx_ll_usb.c **** 
 2242              		.loc 1 781 36 view .LVU767
 2243 0148 4CEA0E0E 		orr	lr, ip, lr
 2244 014c C3F810E0 		str	lr, [r3, #16]
 783:Drivers/STM32H7xx_HAL_Driver/Src/stm32h7xx_ll_usb.c ****         {
 2245              		.loc 1 783 9 is_stmt 1 view .LVU768
 783:Drivers/STM32H7xx_HAL_Driver/Src/stm32h7xx_ll_usb.c ****         {
 2246              		.loc 1 783 15 is_stmt 0 view .LVU769
 2247 0150 91F804E0 		ldrb	lr, [r1, #4]	@ zero_extendqisi2
 783:Drivers/STM32H7xx_HAL_Driver/Src/stm32h7xx_ll_usb.c ****         {
 2248              		.loc 1 783 12 view .LVU770
 2249 0154 BEF1010F 		cmp	lr, #1
 2250 0158 DBD1     		bne	.L146
 785:Drivers/STM32H7xx_HAL_Driver/Src/stm32h7xx_ll_usb.c ****           USBx_INEP(epnum)->DIEPTSIZ |= (USB_OTG_DIEPTSIZ_MULCNT & ((uint32_t)pktcnt << 29));
 2251              		.loc 1 785 11 is_stmt 1 view .LVU771
 785:Drivers/STM32H7xx_HAL_Driver/Src/stm32h7xx_ll_usb.c ****           USBx_INEP(epnum)->DIEPTSIZ |= (USB_OTG_DIEPTSIZ_MULCNT & ((uint32_t)pktcnt << 29));
 2252              		.loc 1 785 27 is_stmt 0 view .LVU772
 2253 015a D3F810E0 		ldr	lr, [r3, #16]
 785:Drivers/STM32H7xx_HAL_Driver/Src/stm32h7xx_ll_usb.c ****           USBx_INEP(epnum)->DIEPTSIZ |= (USB_OTG_DIEPTSIZ_MULCNT & ((uint32_t)pktcnt << 29));
 2254              		.loc 1 785 38 view .LVU773
 2255 015e 2EF0C04E 		bic	lr, lr, #1610612736
 2256 0162 C3F810E0 		str	lr, [r3, #16]
 786:Drivers/STM32H7xx_HAL_Driver/Src/stm32h7xx_ll_usb.c ****         }
 2257              		.loc 1 786 11 is_stmt 1 view .LVU774
 786:Drivers/STM32H7xx_HAL_Driver/Src/stm32h7xx_ll_usb.c ****         }
 2258              		.loc 1 786 27 is_stmt 0 view .LVU775
 2259 0166 D3F810C0 		ldr	ip, [r3, #16]
 786:Drivers/STM32H7xx_HAL_Driver/Src/stm32h7xx_ll_usb.c ****         }
 2260              		.loc 1 786 86 view .LVU776
ARM GAS  C:\Users\ADMINI~1\AppData\Local\Temp\cceMOlfx.s 			page 78


 2261 016a 4FEA457E 		lsl	lr, r5, #29
 786:Drivers/STM32H7xx_HAL_Driver/Src/stm32h7xx_ll_usb.c ****         }
 2262              		.loc 1 786 66 view .LVU777
 2263 016e 0EF0C04E 		and	lr, lr, #1610612736
 786:Drivers/STM32H7xx_HAL_Driver/Src/stm32h7xx_ll_usb.c ****         }
 2264              		.loc 1 786 38 view .LVU778
 2265 0172 4CEA0E0E 		orr	lr, ip, lr
 2266 0176 C3F810E0 		str	lr, [r3, #16]
 2267 017a CAE7     		b	.L146
 2268              	.LVL142:
 2269              	.L166:
 795:Drivers/STM32H7xx_HAL_Driver/Src/stm32h7xx_ll_usb.c ****       {
 2270              		.loc 1 795 7 is_stmt 1 view .LVU779
 795:Drivers/STM32H7xx_HAL_Driver/Src/stm32h7xx_ll_usb.c ****       {
 2271              		.loc 1 795 23 is_stmt 0 view .LVU780
 2272 017c CB69     		ldr	r3, [r1, #28]
 795:Drivers/STM32H7xx_HAL_Driver/Src/stm32h7xx_ll_usb.c ****       {
 2273              		.loc 1 795 10 view .LVU781
 2274 017e 1BB1     		cbz	r3, .L148
 797:Drivers/STM32H7xx_HAL_Driver/Src/stm32h7xx_ll_usb.c ****       }
 2275              		.loc 1 797 9 is_stmt 1 view .LVU782
 2276 0180 00EB421C 		add	ip, r0, r2, lsl #5
 797:Drivers/STM32H7xx_HAL_Driver/Src/stm32h7xx_ll_usb.c ****       }
 2277              		.loc 1 797 35 is_stmt 0 view .LVU783
 2278 0184 CCF81439 		str	r3, [ip, #2324]
 2279              	.L148:
 800:Drivers/STM32H7xx_HAL_Driver/Src/stm32h7xx_ll_usb.c ****       {
 2280              		.loc 1 800 7 is_stmt 1 view .LVU784
 800:Drivers/STM32H7xx_HAL_Driver/Src/stm32h7xx_ll_usb.c ****       {
 2281              		.loc 1 800 13 is_stmt 0 view .LVU785
 2282 0188 0B79     		ldrb	r3, [r1, #4]	@ zero_extendqisi2
 800:Drivers/STM32H7xx_HAL_Driver/Src/stm32h7xx_ll_usb.c ****       {
 2283              		.loc 1 800 10 view .LVU786
 2284 018a 012B     		cmp	r3, #1
 2285 018c 08D0     		beq	.L167
 2286              	.LVL143:
 2287              	.L149:
 813:Drivers/STM32H7xx_HAL_Driver/Src/stm32h7xx_ll_usb.c ****     }
 2288              		.loc 1 813 7 is_stmt 1 view .LVU787
 813:Drivers/STM32H7xx_HAL_Driver/Src/stm32h7xx_ll_usb.c ****     }
 2289              		.loc 1 813 23 is_stmt 0 view .LVU788
 2290 018e 00EB4212 		add	r2, r0, r2, lsl #5
 2291              	.LVL144:
 813:Drivers/STM32H7xx_HAL_Driver/Src/stm32h7xx_ll_usb.c ****     }
 2292              		.loc 1 813 23 view .LVU789
 2293 0192 D2F80039 		ldr	r3, [r2, #2304]
 813:Drivers/STM32H7xx_HAL_Driver/Src/stm32h7xx_ll_usb.c ****     }
 2294              		.loc 1 813 33 view .LVU790
 2295 0196 43F00443 		orr	r3, r3, #-2080374784
 2296 019a C2F80039 		str	r3, [r2, #2304]
 2297 019e 65E7     		b	.L151
 2298              	.LVL145:
 2299              	.L167:
 802:Drivers/STM32H7xx_HAL_Driver/Src/stm32h7xx_ll_usb.c ****         {
 2300              		.loc 1 802 9 is_stmt 1 view .LVU791
 802:Drivers/STM32H7xx_HAL_Driver/Src/stm32h7xx_ll_usb.c ****         {
 2301              		.loc 1 802 25 is_stmt 0 view .LVU792
ARM GAS  C:\Users\ADMINI~1\AppData\Local\Temp\cceMOlfx.s 			page 79


 2302 01a0 D0F80838 		ldr	r3, [r0, #2056]
 802:Drivers/STM32H7xx_HAL_Driver/Src/stm32h7xx_ll_usb.c ****         {
 2303              		.loc 1 802 12 view .LVU793
 2304 01a4 13F4807F 		tst	r3, #256
 2305 01a8 08D1     		bne	.L150
 804:Drivers/STM32H7xx_HAL_Driver/Src/stm32h7xx_ll_usb.c ****         }
 2306              		.loc 1 804 11 is_stmt 1 view .LVU794
 804:Drivers/STM32H7xx_HAL_Driver/Src/stm32h7xx_ll_usb.c ****         }
 2307              		.loc 1 804 27 is_stmt 0 view .LVU795
 2308 01aa 00EB4211 		add	r1, r0, r2, lsl #5
 2309              	.LVL146:
 804:Drivers/STM32H7xx_HAL_Driver/Src/stm32h7xx_ll_usb.c ****         }
 2310              		.loc 1 804 27 view .LVU796
 2311 01ae D1F80039 		ldr	r3, [r1, #2304]
 804:Drivers/STM32H7xx_HAL_Driver/Src/stm32h7xx_ll_usb.c ****         }
 2312              		.loc 1 804 37 view .LVU797
 2313 01b2 43F00053 		orr	r3, r3, #536870912
 2314 01b6 C1F80039 		str	r3, [r1, #2304]
 2315 01ba E8E7     		b	.L149
 2316              	.LVL147:
 2317              	.L150:
 808:Drivers/STM32H7xx_HAL_Driver/Src/stm32h7xx_ll_usb.c ****         }
 2318              		.loc 1 808 11 is_stmt 1 view .LVU798
 808:Drivers/STM32H7xx_HAL_Driver/Src/stm32h7xx_ll_usb.c ****         }
 2319              		.loc 1 808 27 is_stmt 0 view .LVU799
 2320 01bc 00EB4211 		add	r1, r0, r2, lsl #5
 2321              	.LVL148:
 808:Drivers/STM32H7xx_HAL_Driver/Src/stm32h7xx_ll_usb.c ****         }
 2322              		.loc 1 808 27 view .LVU800
 2323 01c0 D1F80039 		ldr	r3, [r1, #2304]
 808:Drivers/STM32H7xx_HAL_Driver/Src/stm32h7xx_ll_usb.c ****         }
 2324              		.loc 1 808 37 view .LVU801
 2325 01c4 43F08053 		orr	r3, r3, #268435456
 2326 01c8 C1F80039 		str	r3, [r1, #2304]
 2327 01cc DFE7     		b	.L149
 2328              	.LVL149:
 2329              	.L152:
 830:Drivers/STM32H7xx_HAL_Driver/Src/stm32h7xx_ll_usb.c ****         {
 2330              		.loc 1 830 9 is_stmt 1 view .LVU802
 830:Drivers/STM32H7xx_HAL_Driver/Src/stm32h7xx_ll_usb.c ****         {
 2331              		.loc 1 830 25 is_stmt 0 view .LVU803
 2332 01ce D0F80838 		ldr	r3, [r0, #2056]
 830:Drivers/STM32H7xx_HAL_Driver/Src/stm32h7xx_ll_usb.c ****         {
 2333              		.loc 1 830 12 view .LVU804
 2334 01d2 13F4807F 		tst	r3, #256
 2335 01d6 0CD1     		bne	.L153
 832:Drivers/STM32H7xx_HAL_Driver/Src/stm32h7xx_ll_usb.c ****         }
 2336              		.loc 1 832 11 is_stmt 1 view .LVU805
 832:Drivers/STM32H7xx_HAL_Driver/Src/stm32h7xx_ll_usb.c ****         }
 2337              		.loc 1 832 27 is_stmt 0 view .LVU806
 2338 01d8 D2F80039 		ldr	r3, [r2, #2304]
 832:Drivers/STM32H7xx_HAL_Driver/Src/stm32h7xx_ll_usb.c ****         }
 2339              		.loc 1 832 37 view .LVU807
 2340 01dc 43F00053 		orr	r3, r3, #536870912
 2341 01e0 C2F80039 		str	r3, [r2, #2304]
 2342              	.L154:
 839:Drivers/STM32H7xx_HAL_Driver/Src/stm32h7xx_ll_usb.c ****       }
ARM GAS  C:\Users\ADMINI~1\AppData\Local\Temp\cceMOlfx.s 			page 80


 2343              		.loc 1 839 9 is_stmt 1 view .LVU808
 839:Drivers/STM32H7xx_HAL_Driver/Src/stm32h7xx_ll_usb.c ****       }
 2344              		.loc 1 839 15 is_stmt 0 view .LVU809
 2345 01e4 0096     		str	r6, [sp]
 2346 01e6 0B8A     		ldrh	r3, [r1, #16]
 2347 01e8 0A78     		ldrb	r2, [r1]	@ zero_extendqisi2
 2348 01ea C968     		ldr	r1, [r1, #12]
 2349              	.LVL150:
 839:Drivers/STM32H7xx_HAL_Driver/Src/stm32h7xx_ll_usb.c ****       }
 2350              		.loc 1 839 15 view .LVU810
 2351 01ec FFF7FEFF 		bl	USB_WritePacket
 2352              	.LVL151:
 839:Drivers/STM32H7xx_HAL_Driver/Src/stm32h7xx_ll_usb.c ****       }
 2353              		.loc 1 839 15 view .LVU811
 2354 01f0 3CE7     		b	.L151
 2355              	.LVL152:
 2356              	.L153:
 836:Drivers/STM32H7xx_HAL_Driver/Src/stm32h7xx_ll_usb.c ****         }
 2357              		.loc 1 836 11 is_stmt 1 view .LVU812
 836:Drivers/STM32H7xx_HAL_Driver/Src/stm32h7xx_ll_usb.c ****         }
 2358              		.loc 1 836 27 is_stmt 0 view .LVU813
 2359 01f2 D2F80039 		ldr	r3, [r2, #2304]
 836:Drivers/STM32H7xx_HAL_Driver/Src/stm32h7xx_ll_usb.c ****         }
 2360              		.loc 1 836 37 view .LVU814
 2361 01f6 43F08053 		orr	r3, r3, #268435456
 2362 01fa C2F80039 		str	r3, [r2, #2304]
 2363 01fe F1E7     		b	.L154
 2364              	.LVL153:
 2365              	.L155:
 867:Drivers/STM32H7xx_HAL_Driver/Src/stm32h7xx_ll_usb.c ****       {
 2366              		.loc 1 867 7 is_stmt 1 view .LVU815
 867:Drivers/STM32H7xx_HAL_Driver/Src/stm32h7xx_ll_usb.c ****       {
 2367              		.loc 1 867 13 is_stmt 0 view .LVU816
 2368 0200 0A69     		ldr	r2, [r1, #16]
 2369              	.LVL154:
 867:Drivers/STM32H7xx_HAL_Driver/Src/stm32h7xx_ll_usb.c ****       {
 2370              		.loc 1 867 10 view .LVU817
 2371 0202 52B9     		cbnz	r2, .L158
 869:Drivers/STM32H7xx_HAL_Driver/Src/stm32h7xx_ll_usb.c ****         USBx_OUTEP(epnum)->DOEPTSIZ |= (USB_OTG_DOEPTSIZ_PKTCNT & (1U << 19));
 2372              		.loc 1 869 9 is_stmt 1 view .LVU818
 869:Drivers/STM32H7xx_HAL_Driver/Src/stm32h7xx_ll_usb.c ****         USBx_OUTEP(epnum)->DOEPTSIZ |= (USB_OTG_DOEPTSIZ_PKTCNT & (1U << 19));
 2373              		.loc 1 869 26 is_stmt 0 view .LVU819
 2374 0204 1A69     		ldr	r2, [r3, #16]
 869:Drivers/STM32H7xx_HAL_Driver/Src/stm32h7xx_ll_usb.c ****         USBx_OUTEP(epnum)->DOEPTSIZ |= (USB_OTG_DOEPTSIZ_PKTCNT & (1U << 19));
 2375              		.loc 1 869 65 view .LVU820
 2376 0206 8C68     		ldr	r4, [r1, #8]
 2377 0208 C4F31204 		ubfx	r4, r4, #0, #19
 869:Drivers/STM32H7xx_HAL_Driver/Src/stm32h7xx_ll_usb.c ****         USBx_OUTEP(epnum)->DOEPTSIZ |= (USB_OTG_DOEPTSIZ_PKTCNT & (1U << 19));
 2378              		.loc 1 869 37 view .LVU821
 2379 020c 2243     		orrs	r2, r2, r4
 2380 020e 1A61     		str	r2, [r3, #16]
 870:Drivers/STM32H7xx_HAL_Driver/Src/stm32h7xx_ll_usb.c ****       }
 2381              		.loc 1 870 9 is_stmt 1 view .LVU822
 870:Drivers/STM32H7xx_HAL_Driver/Src/stm32h7xx_ll_usb.c ****       }
 2382              		.loc 1 870 26 is_stmt 0 view .LVU823
 2383 0210 1A69     		ldr	r2, [r3, #16]
 870:Drivers/STM32H7xx_HAL_Driver/Src/stm32h7xx_ll_usb.c ****       }
ARM GAS  C:\Users\ADMINI~1\AppData\Local\Temp\cceMOlfx.s 			page 81


 2384              		.loc 1 870 37 view .LVU824
 2385 0212 42F40022 		orr	r2, r2, #524288
 2386 0216 1A61     		str	r2, [r3, #16]
 2387 0218 1BE7     		b	.L157
 2388              	.L158:
 874:Drivers/STM32H7xx_HAL_Driver/Src/stm32h7xx_ll_usb.c ****         ep->xfer_size = ep->maxpacket * pktcnt;
 2389              		.loc 1 874 9 is_stmt 1 view .LVU825
 874:Drivers/STM32H7xx_HAL_Driver/Src/stm32h7xx_ll_usb.c ****         ep->xfer_size = ep->maxpacket * pktcnt;
 2390              		.loc 1 874 43 is_stmt 0 view .LVU826
 2391 021a 8C68     		ldr	r4, [r1, #8]
 2392 021c 2244     		add	r2, r2, r4
 874:Drivers/STM32H7xx_HAL_Driver/Src/stm32h7xx_ll_usb.c ****         ep->xfer_size = ep->maxpacket * pktcnt;
 2393              		.loc 1 874 59 view .LVU827
 2394 021e 013A     		subs	r2, r2, #1
 874:Drivers/STM32H7xx_HAL_Driver/Src/stm32h7xx_ll_usb.c ****         ep->xfer_size = ep->maxpacket * pktcnt;
 2395              		.loc 1 874 65 view .LVU828
 2396 0220 B2FBF4F2 		udiv	r2, r2, r4
 2397              	.LVL155:
 875:Drivers/STM32H7xx_HAL_Driver/Src/stm32h7xx_ll_usb.c **** 
 2398              		.loc 1 875 9 is_stmt 1 view .LVU829
 2399 0224 92B2     		uxth	r2, r2
 875:Drivers/STM32H7xx_HAL_Driver/Src/stm32h7xx_ll_usb.c **** 
 2400              		.loc 1 875 39 is_stmt 0 view .LVU830
 2401 0226 02FB04F4 		mul	r4, r2, r4
 875:Drivers/STM32H7xx_HAL_Driver/Src/stm32h7xx_ll_usb.c **** 
 2402              		.loc 1 875 23 view .LVU831
 2403 022a 0C62     		str	r4, [r1, #32]
 877:Drivers/STM32H7xx_HAL_Driver/Src/stm32h7xx_ll_usb.c ****         USBx_OUTEP(epnum)->DOEPTSIZ |= USB_OTG_DOEPTSIZ_XFRSIZ & ep->xfer_size;
 2404              		.loc 1 877 9 is_stmt 1 view .LVU832
 877:Drivers/STM32H7xx_HAL_Driver/Src/stm32h7xx_ll_usb.c ****         USBx_OUTEP(epnum)->DOEPTSIZ |= USB_OTG_DOEPTSIZ_XFRSIZ & ep->xfer_size;
 2405              		.loc 1 877 26 is_stmt 0 view .LVU833
 2406 022c 1C69     		ldr	r4, [r3, #16]
 877:Drivers/STM32H7xx_HAL_Driver/Src/stm32h7xx_ll_usb.c ****         USBx_OUTEP(epnum)->DOEPTSIZ |= USB_OTG_DOEPTSIZ_XFRSIZ & ep->xfer_size;
 2407              		.loc 1 877 64 view .LVU834
 2408 022e 124D     		ldr	r5, .L168
 2409 0230 05EAC242 		and	r2, r5, r2, lsl #19
 2410              	.LVL156:
 877:Drivers/STM32H7xx_HAL_Driver/Src/stm32h7xx_ll_usb.c ****         USBx_OUTEP(epnum)->DOEPTSIZ |= USB_OTG_DOEPTSIZ_XFRSIZ & ep->xfer_size;
 2411              		.loc 1 877 37 view .LVU835
 2412 0234 2243     		orrs	r2, r2, r4
 2413 0236 1A61     		str	r2, [r3, #16]
 2414              	.LVL157:
 878:Drivers/STM32H7xx_HAL_Driver/Src/stm32h7xx_ll_usb.c ****       }
 2415              		.loc 1 878 9 is_stmt 1 view .LVU836
 878:Drivers/STM32H7xx_HAL_Driver/Src/stm32h7xx_ll_usb.c ****       }
 2416              		.loc 1 878 26 is_stmt 0 view .LVU837
 2417 0238 1A69     		ldr	r2, [r3, #16]
 878:Drivers/STM32H7xx_HAL_Driver/Src/stm32h7xx_ll_usb.c ****       }
 2418              		.loc 1 878 64 view .LVU838
 2419 023a 0C6A     		ldr	r4, [r1, #32]
 2420 023c C4F31204 		ubfx	r4, r4, #0, #19
 878:Drivers/STM32H7xx_HAL_Driver/Src/stm32h7xx_ll_usb.c ****       }
 2421              		.loc 1 878 37 view .LVU839
 2422 0240 2243     		orrs	r2, r2, r4
 2423 0242 1A61     		str	r2, [r3, #16]
 2424 0244 05E7     		b	.L157
 2425              	.LVL158:
ARM GAS  C:\Users\ADMINI~1\AppData\Local\Temp\cceMOlfx.s 			page 82


 2426              	.L164:
 884:Drivers/STM32H7xx_HAL_Driver/Src/stm32h7xx_ll_usb.c ****       {
 2427              		.loc 1 884 7 is_stmt 1 view .LVU840
 884:Drivers/STM32H7xx_HAL_Driver/Src/stm32h7xx_ll_usb.c ****       {
 2428              		.loc 1 884 23 is_stmt 0 view .LVU841
 2429 0246 CA68     		ldr	r2, [r1, #12]
 884:Drivers/STM32H7xx_HAL_Driver/Src/stm32h7xx_ll_usb.c ****       {
 2430              		.loc 1 884 10 view .LVU842
 2431 0248 002A     		cmp	r2, #0
 2432 024a 3FF405AF 		beq	.L159
 886:Drivers/STM32H7xx_HAL_Driver/Src/stm32h7xx_ll_usb.c ****       }
 2433              		.loc 1 886 9 is_stmt 1 view .LVU843
 886:Drivers/STM32H7xx_HAL_Driver/Src/stm32h7xx_ll_usb.c ****       }
 2434              		.loc 1 886 36 is_stmt 0 view .LVU844
 2435 024e 5A61     		str	r2, [r3, #20]
 2436 0250 02E7     		b	.L159
 2437              	.L165:
 892:Drivers/STM32H7xx_HAL_Driver/Src/stm32h7xx_ll_usb.c ****       {
 2438              		.loc 1 892 7 is_stmt 1 view .LVU845
 892:Drivers/STM32H7xx_HAL_Driver/Src/stm32h7xx_ll_usb.c ****       {
 2439              		.loc 1 892 23 is_stmt 0 view .LVU846
 2440 0252 D0F80838 		ldr	r3, [r0, #2056]
 892:Drivers/STM32H7xx_HAL_Driver/Src/stm32h7xx_ll_usb.c ****       {
 2441              		.loc 1 892 10 view .LVU847
 2442 0256 13F4807F 		tst	r3, #256
 2443 025a 06D1     		bne	.L161
 894:Drivers/STM32H7xx_HAL_Driver/Src/stm32h7xx_ll_usb.c ****       }
 2444              		.loc 1 894 9 is_stmt 1 view .LVU848
 894:Drivers/STM32H7xx_HAL_Driver/Src/stm32h7xx_ll_usb.c ****       }
 2445              		.loc 1 894 26 is_stmt 0 view .LVU849
 2446 025c DEF8003B 		ldr	r3, [lr, #2816]
 894:Drivers/STM32H7xx_HAL_Driver/Src/stm32h7xx_ll_usb.c ****       }
 2447              		.loc 1 894 36 view .LVU850
 2448 0260 43F00053 		orr	r3, r3, #536870912
 2449 0264 CEF8003B 		str	r3, [lr, #2816]
 2450 0268 FAE6     		b	.L160
 2451              	.L161:
 898:Drivers/STM32H7xx_HAL_Driver/Src/stm32h7xx_ll_usb.c ****       }
 2452              		.loc 1 898 9 is_stmt 1 view .LVU851
 898:Drivers/STM32H7xx_HAL_Driver/Src/stm32h7xx_ll_usb.c ****       }
 2453              		.loc 1 898 26 is_stmt 0 view .LVU852
 2454 026a DEF8003B 		ldr	r3, [lr, #2816]
 898:Drivers/STM32H7xx_HAL_Driver/Src/stm32h7xx_ll_usb.c ****       }
 2455              		.loc 1 898 36 view .LVU853
 2456 026e 43F08053 		orr	r3, r3, #268435456
 2457 0272 CEF8003B 		str	r3, [lr, #2816]
 2458 0276 F3E6     		b	.L160
 2459              	.L169:
 2460              		.align	2
 2461              	.L168:
 2462 0278 0000F81F 		.word	536346624
 2463              		.cfi_endproc
 2464              	.LFE364:
 2466              		.section	.text.USB_ReadPacket,"ax",%progbits
 2467              		.align	1
 2468              		.global	USB_ReadPacket
 2469              		.syntax unified
ARM GAS  C:\Users\ADMINI~1\AppData\Local\Temp\cceMOlfx.s 			page 83


 2470              		.thumb
 2471              		.thumb_func
 2473              	USB_ReadPacket:
 2474              	.LVL159:
 2475              	.LFB367:
1011:Drivers/STM32H7xx_HAL_Driver/Src/stm32h7xx_ll_usb.c ****   uint32_t USBx_BASE = (uint32_t)USBx;
 2476              		.loc 1 1011 1 is_stmt 1 view -0
 2477              		.cfi_startproc
 2478              		@ args = 0, pretend = 0, frame = 0
 2479              		@ frame_needed = 0, uses_anonymous_args = 0
1011:Drivers/STM32H7xx_HAL_Driver/Src/stm32h7xx_ll_usb.c ****   uint32_t USBx_BASE = (uint32_t)USBx;
 2480              		.loc 1 1011 1 is_stmt 0 view .LVU855
 2481 0000 00B5     		push	{lr}
 2482              	.LCFI30:
 2483              		.cfi_def_cfa_offset 4
 2484              		.cfi_offset 14, -4
 2485 0002 8446     		mov	ip, r0
 2486 0004 0846     		mov	r0, r1
 2487              	.LVL160:
1012:Drivers/STM32H7xx_HAL_Driver/Src/stm32h7xx_ll_usb.c ****   uint8_t *pDest = dest;
 2488              		.loc 1 1012 3 is_stmt 1 view .LVU856
1013:Drivers/STM32H7xx_HAL_Driver/Src/stm32h7xx_ll_usb.c ****   uint32_t pData;
 2489              		.loc 1 1013 3 view .LVU857
1014:Drivers/STM32H7xx_HAL_Driver/Src/stm32h7xx_ll_usb.c ****   uint32_t i;
 2490              		.loc 1 1014 3 view .LVU858
1015:Drivers/STM32H7xx_HAL_Driver/Src/stm32h7xx_ll_usb.c ****   uint32_t count32b = (uint32_t)len >> 2U;
 2491              		.loc 1 1015 3 view .LVU859
1016:Drivers/STM32H7xx_HAL_Driver/Src/stm32h7xx_ll_usb.c ****   uint16_t remaining_bytes = len % 4U;
 2492              		.loc 1 1016 3 view .LVU860
1016:Drivers/STM32H7xx_HAL_Driver/Src/stm32h7xx_ll_usb.c ****   uint16_t remaining_bytes = len % 4U;
 2493              		.loc 1 1016 37 is_stmt 0 view .LVU861
 2494 0006 4FEA920E 		lsr	lr, r2, #2
 2495              	.LVL161:
1017:Drivers/STM32H7xx_HAL_Driver/Src/stm32h7xx_ll_usb.c **** 
 2496              		.loc 1 1017 3 is_stmt 1 view .LVU862
1017:Drivers/STM32H7xx_HAL_Driver/Src/stm32h7xx_ll_usb.c **** 
 2497              		.loc 1 1017 12 is_stmt 0 view .LVU863
 2498 000a 02F00302 		and	r2, r2, #3
 2499              	.LVL162:
1019:Drivers/STM32H7xx_HAL_Driver/Src/stm32h7xx_ll_usb.c ****   {
 2500              		.loc 1 1019 3 is_stmt 1 view .LVU864
1019:Drivers/STM32H7xx_HAL_Driver/Src/stm32h7xx_ll_usb.c ****   {
 2501              		.loc 1 1019 10 is_stmt 0 view .LVU865
 2502 000e 0023     		movs	r3, #0
1019:Drivers/STM32H7xx_HAL_Driver/Src/stm32h7xx_ll_usb.c ****   {
 2503              		.loc 1 1019 3 view .LVU866
 2504 0010 05E0     		b	.L171
 2505              	.LVL163:
 2506              	.L172:
1021:Drivers/STM32H7xx_HAL_Driver/Src/stm32h7xx_ll_usb.c ****     pDest++;
 2507              		.loc 1 1021 5 is_stmt 1 view .LVU867
 2508 0012 0CF58051 		add	r1, ip, #4096
 2509 0016 0968     		ldr	r1, [r1]
 2510 0018 40F8041B 		str	r1, [r0], #4	@ unaligned
 2511              	.LVL164:
1022:Drivers/STM32H7xx_HAL_Driver/Src/stm32h7xx_ll_usb.c ****     pDest++;
 2512              		.loc 1 1022 5 view .LVU868
ARM GAS  C:\Users\ADMINI~1\AppData\Local\Temp\cceMOlfx.s 			page 84


1023:Drivers/STM32H7xx_HAL_Driver/Src/stm32h7xx_ll_usb.c ****     pDest++;
 2513              		.loc 1 1023 5 view .LVU869
1024:Drivers/STM32H7xx_HAL_Driver/Src/stm32h7xx_ll_usb.c ****     pDest++;
 2514              		.loc 1 1024 5 view .LVU870
1025:Drivers/STM32H7xx_HAL_Driver/Src/stm32h7xx_ll_usb.c ****   }
 2515              		.loc 1 1025 5 view .LVU871
1019:Drivers/STM32H7xx_HAL_Driver/Src/stm32h7xx_ll_usb.c ****   {
 2516              		.loc 1 1019 31 discriminator 3 view .LVU872
 2517 001c 0133     		adds	r3, r3, #1
 2518              	.LVL165:
 2519              	.L171:
1019:Drivers/STM32H7xx_HAL_Driver/Src/stm32h7xx_ll_usb.c ****   {
 2520              		.loc 1 1019 18 discriminator 1 view .LVU873
 2521 001e 7345     		cmp	r3, lr
 2522 0020 F7D3     		bcc	.L172
1029:Drivers/STM32H7xx_HAL_Driver/Src/stm32h7xx_ll_usb.c ****   {
 2523              		.loc 1 1029 3 view .LVU874
1029:Drivers/STM32H7xx_HAL_Driver/Src/stm32h7xx_ll_usb.c ****   {
 2524              		.loc 1 1029 6 is_stmt 0 view .LVU875
 2525 0022 7AB1     		cbz	r2, .L173
1031:Drivers/STM32H7xx_HAL_Driver/Src/stm32h7xx_ll_usb.c ****     __UNALIGNED_UINT32_WRITE(&pData, USBx_DFIFO(0U));
 2526              		.loc 1 1031 5 is_stmt 1 view .LVU876
 2527              	.LVL166:
1032:Drivers/STM32H7xx_HAL_Driver/Src/stm32h7xx_ll_usb.c **** 
 2528              		.loc 1 1032 5 view .LVU877
 2529 0024 0CF5805C 		add	ip, ip, #4096
 2530              	.LVL167:
1032:Drivers/STM32H7xx_HAL_Driver/Src/stm32h7xx_ll_usb.c **** 
 2531              		.loc 1 1032 5 is_stmt 0 view .LVU878
 2532 0028 DCF800C0 		ldr	ip, [ip]
 2533              	.LVL168:
1031:Drivers/STM32H7xx_HAL_Driver/Src/stm32h7xx_ll_usb.c ****     __UNALIGNED_UINT32_WRITE(&pData, USBx_DFIFO(0U));
 2534              		.loc 1 1031 7 view .LVU879
 2535 002c 0021     		movs	r1, #0
 2536              	.LVL169:
 2537              	.L174:
1034:Drivers/STM32H7xx_HAL_Driver/Src/stm32h7xx_ll_usb.c ****     {
 2538              		.loc 1 1034 5 is_stmt 1 view .LVU880
1036:Drivers/STM32H7xx_HAL_Driver/Src/stm32h7xx_ll_usb.c ****       i++;
 2539              		.loc 1 1036 7 view .LVU881
1036:Drivers/STM32H7xx_HAL_Driver/Src/stm32h7xx_ll_usb.c ****       i++;
 2540              		.loc 1 1036 50 is_stmt 0 view .LVU882
 2541 002e CBB2     		uxtb	r3, r1
 2542 0030 DB00     		lsls	r3, r3, #3
1036:Drivers/STM32H7xx_HAL_Driver/Src/stm32h7xx_ll_usb.c ****       i++;
 2543              		.loc 1 1036 43 view .LVU883
 2544 0032 2CFA03F3 		lsr	r3, ip, r3
1036:Drivers/STM32H7xx_HAL_Driver/Src/stm32h7xx_ll_usb.c ****       i++;
 2545              		.loc 1 1036 25 view .LVU884
 2546 0036 00F8013B 		strb	r3, [r0], #1
 2547              	.LVL170:
1037:Drivers/STM32H7xx_HAL_Driver/Src/stm32h7xx_ll_usb.c ****       pDest++;
 2548              		.loc 1 1037 7 is_stmt 1 view .LVU885
1037:Drivers/STM32H7xx_HAL_Driver/Src/stm32h7xx_ll_usb.c ****       pDest++;
 2549              		.loc 1 1037 8 is_stmt 0 view .LVU886
 2550 003a 0131     		adds	r1, r1, #1
 2551              	.LVL171:
ARM GAS  C:\Users\ADMINI~1\AppData\Local\Temp\cceMOlfx.s 			page 85


1038:Drivers/STM32H7xx_HAL_Driver/Src/stm32h7xx_ll_usb.c ****       remaining_bytes--;
 2552              		.loc 1 1038 7 is_stmt 1 view .LVU887
1039:Drivers/STM32H7xx_HAL_Driver/Src/stm32h7xx_ll_usb.c ****     } while (remaining_bytes != 0U);
 2553              		.loc 1 1039 7 view .LVU888
1039:Drivers/STM32H7xx_HAL_Driver/Src/stm32h7xx_ll_usb.c ****     } while (remaining_bytes != 0U);
 2554              		.loc 1 1039 22 is_stmt 0 view .LVU889
 2555 003c 013A     		subs	r2, r2, #1
 2556              	.LVL172:
1039:Drivers/STM32H7xx_HAL_Driver/Src/stm32h7xx_ll_usb.c ****     } while (remaining_bytes != 0U);
 2557              		.loc 1 1039 22 view .LVU890
 2558 003e 92B2     		uxth	r2, r2
 2559              	.LVL173:
1040:Drivers/STM32H7xx_HAL_Driver/Src/stm32h7xx_ll_usb.c ****   }
 2560              		.loc 1 1040 30 is_stmt 1 discriminator 1 view .LVU891
 2561 0040 002A     		cmp	r2, #0
 2562 0042 F4D1     		bne	.L174
 2563              	.LVL174:
 2564              	.L173:
1043:Drivers/STM32H7xx_HAL_Driver/Src/stm32h7xx_ll_usb.c **** }
 2565              		.loc 1 1043 3 view .LVU892
1044:Drivers/STM32H7xx_HAL_Driver/Src/stm32h7xx_ll_usb.c **** 
 2566              		.loc 1 1044 1 is_stmt 0 view .LVU893
 2567 0044 00BD     		pop	{pc}
 2568              		.cfi_endproc
 2569              	.LFE367:
 2571              		.section	.text.USB_EPSetStall,"ax",%progbits
 2572              		.align	1
 2573              		.global	USB_EPSetStall
 2574              		.syntax unified
 2575              		.thumb
 2576              		.thumb_func
 2578              	USB_EPSetStall:
 2579              	.LVL175:
 2580              	.LFB368:
1053:Drivers/STM32H7xx_HAL_Driver/Src/stm32h7xx_ll_usb.c ****   uint32_t USBx_BASE = (uint32_t)USBx;
 2581              		.loc 1 1053 1 is_stmt 1 view -0
 2582              		.cfi_startproc
 2583              		@ args = 0, pretend = 0, frame = 0
 2584              		@ frame_needed = 0, uses_anonymous_args = 0
 2585              		@ link register save eliminated.
1054:Drivers/STM32H7xx_HAL_Driver/Src/stm32h7xx_ll_usb.c ****   uint32_t epnum = (uint32_t)ep->num;
 2586              		.loc 1 1054 3 view .LVU895
1055:Drivers/STM32H7xx_HAL_Driver/Src/stm32h7xx_ll_usb.c **** 
 2587              		.loc 1 1055 3 view .LVU896
1055:Drivers/STM32H7xx_HAL_Driver/Src/stm32h7xx_ll_usb.c **** 
 2588              		.loc 1 1055 32 is_stmt 0 view .LVU897
 2589 0000 0B78     		ldrb	r3, [r1]	@ zero_extendqisi2
 2590              	.LVL176:
1057:Drivers/STM32H7xx_HAL_Driver/Src/stm32h7xx_ll_usb.c ****   {
 2591              		.loc 1 1057 3 is_stmt 1 view .LVU898
1057:Drivers/STM32H7xx_HAL_Driver/Src/stm32h7xx_ll_usb.c ****   {
 2592              		.loc 1 1057 9 is_stmt 0 view .LVU899
 2593 0002 4A78     		ldrb	r2, [r1, #1]	@ zero_extendqisi2
1057:Drivers/STM32H7xx_HAL_Driver/Src/stm32h7xx_ll_usb.c ****   {
 2594              		.loc 1 1057 6 view .LVU900
 2595 0004 012A     		cmp	r2, #1
 2596 0006 14D0     		beq	.L181
ARM GAS  C:\Users\ADMINI~1\AppData\Local\Temp\cceMOlfx.s 			page 86


1067:Drivers/STM32H7xx_HAL_Driver/Src/stm32h7xx_ll_usb.c ****     {
 2597              		.loc 1 1067 5 is_stmt 1 view .LVU901
1067:Drivers/STM32H7xx_HAL_Driver/Src/stm32h7xx_ll_usb.c ****     {
 2598              		.loc 1 1067 11 is_stmt 0 view .LVU902
 2599 0008 00EB4310 		add	r0, r0, r3, lsl #5
 2600              	.LVL177:
1067:Drivers/STM32H7xx_HAL_Driver/Src/stm32h7xx_ll_usb.c ****     {
 2601              		.loc 1 1067 28 view .LVU903
 2602 000c D0F8002B 		ldr	r2, [r0, #2816]
1067:Drivers/STM32H7xx_HAL_Driver/Src/stm32h7xx_ll_usb.c ****     {
 2603              		.loc 1 1067 8 view .LVU904
 2604 0010 002A     		cmp	r2, #0
 2605 0012 06DB     		blt	.L180
1067:Drivers/STM32H7xx_HAL_Driver/Src/stm32h7xx_ll_usb.c ****     {
 2606              		.loc 1 1067 70 discriminator 1 view .LVU905
 2607 0014 2BB1     		cbz	r3, .L180
1069:Drivers/STM32H7xx_HAL_Driver/Src/stm32h7xx_ll_usb.c ****     }
 2608              		.loc 1 1069 7 is_stmt 1 view .LVU906
1069:Drivers/STM32H7xx_HAL_Driver/Src/stm32h7xx_ll_usb.c ****     }
 2609              		.loc 1 1069 24 is_stmt 0 view .LVU907
 2610 0016 D0F8003B 		ldr	r3, [r0, #2816]
 2611              	.LVL178:
1069:Drivers/STM32H7xx_HAL_Driver/Src/stm32h7xx_ll_usb.c ****     }
 2612              		.loc 1 1069 34 view .LVU908
 2613 001a 23F08043 		bic	r3, r3, #1073741824
 2614 001e C0F8003B 		str	r3, [r0, #2816]
 2615              	.LVL179:
 2616              	.L180:
1071:Drivers/STM32H7xx_HAL_Driver/Src/stm32h7xx_ll_usb.c ****   }
 2617              		.loc 1 1071 5 is_stmt 1 view .LVU909
1071:Drivers/STM32H7xx_HAL_Driver/Src/stm32h7xx_ll_usb.c ****   }
 2618              		.loc 1 1071 22 is_stmt 0 view .LVU910
 2619 0022 D0F8003B 		ldr	r3, [r0, #2816]
1071:Drivers/STM32H7xx_HAL_Driver/Src/stm32h7xx_ll_usb.c ****   }
 2620              		.loc 1 1071 32 view .LVU911
 2621 0026 43F40013 		orr	r3, r3, #2097152
 2622 002a C0F8003B 		str	r3, [r0, #2816]
 2623              	.L179:
1074:Drivers/STM32H7xx_HAL_Driver/Src/stm32h7xx_ll_usb.c **** }
 2624              		.loc 1 1074 3 is_stmt 1 view .LVU912
1075:Drivers/STM32H7xx_HAL_Driver/Src/stm32h7xx_ll_usb.c **** 
 2625              		.loc 1 1075 1 is_stmt 0 view .LVU913
 2626 002e 0020     		movs	r0, #0
 2627 0030 7047     		bx	lr
 2628              	.LVL180:
 2629              	.L181:
1059:Drivers/STM32H7xx_HAL_Driver/Src/stm32h7xx_ll_usb.c ****     {
 2630              		.loc 1 1059 5 is_stmt 1 view .LVU914
1059:Drivers/STM32H7xx_HAL_Driver/Src/stm32h7xx_ll_usb.c ****     {
 2631              		.loc 1 1059 11 is_stmt 0 view .LVU915
 2632 0032 00EB4310 		add	r0, r0, r3, lsl #5
 2633              	.LVL181:
1059:Drivers/STM32H7xx_HAL_Driver/Src/stm32h7xx_ll_usb.c ****     {
 2634              		.loc 1 1059 27 view .LVU916
 2635 0036 D0F80029 		ldr	r2, [r0, #2304]
1059:Drivers/STM32H7xx_HAL_Driver/Src/stm32h7xx_ll_usb.c ****     {
 2636              		.loc 1 1059 8 view .LVU917
ARM GAS  C:\Users\ADMINI~1\AppData\Local\Temp\cceMOlfx.s 			page 87


 2637 003a 002A     		cmp	r2, #0
 2638 003c 06DB     		blt	.L178
1059:Drivers/STM32H7xx_HAL_Driver/Src/stm32h7xx_ll_usb.c ****     {
 2639              		.loc 1 1059 69 discriminator 1 view .LVU918
 2640 003e 2BB1     		cbz	r3, .L178
1061:Drivers/STM32H7xx_HAL_Driver/Src/stm32h7xx_ll_usb.c ****     }
 2641              		.loc 1 1061 7 is_stmt 1 view .LVU919
1061:Drivers/STM32H7xx_HAL_Driver/Src/stm32h7xx_ll_usb.c ****     }
 2642              		.loc 1 1061 23 is_stmt 0 view .LVU920
 2643 0040 D0F80039 		ldr	r3, [r0, #2304]
 2644              	.LVL182:
1061:Drivers/STM32H7xx_HAL_Driver/Src/stm32h7xx_ll_usb.c ****     }
 2645              		.loc 1 1061 33 view .LVU921
 2646 0044 23F08043 		bic	r3, r3, #1073741824
 2647 0048 C0F80039 		str	r3, [r0, #2304]
 2648              	.LVL183:
 2649              	.L178:
1063:Drivers/STM32H7xx_HAL_Driver/Src/stm32h7xx_ll_usb.c ****   }
 2650              		.loc 1 1063 5 is_stmt 1 view .LVU922
1063:Drivers/STM32H7xx_HAL_Driver/Src/stm32h7xx_ll_usb.c ****   }
 2651              		.loc 1 1063 21 is_stmt 0 view .LVU923
 2652 004c D0F80039 		ldr	r3, [r0, #2304]
1063:Drivers/STM32H7xx_HAL_Driver/Src/stm32h7xx_ll_usb.c ****   }
 2653              		.loc 1 1063 31 view .LVU924
 2654 0050 43F40013 		orr	r3, r3, #2097152
 2655 0054 C0F80039 		str	r3, [r0, #2304]
 2656 0058 E9E7     		b	.L179
 2657              		.cfi_endproc
 2658              	.LFE368:
 2660              		.section	.text.USB_EPClearStall,"ax",%progbits
 2661              		.align	1
 2662              		.global	USB_EPClearStall
 2663              		.syntax unified
 2664              		.thumb
 2665              		.thumb_func
 2667              	USB_EPClearStall:
 2668              	.LVL184:
 2669              	.LFB369:
1084:Drivers/STM32H7xx_HAL_Driver/Src/stm32h7xx_ll_usb.c ****   uint32_t USBx_BASE = (uint32_t)USBx;
 2670              		.loc 1 1084 1 is_stmt 1 view -0
 2671              		.cfi_startproc
 2672              		@ args = 0, pretend = 0, frame = 0
 2673              		@ frame_needed = 0, uses_anonymous_args = 0
 2674              		@ link register save eliminated.
1085:Drivers/STM32H7xx_HAL_Driver/Src/stm32h7xx_ll_usb.c ****   uint32_t epnum = (uint32_t)ep->num;
 2675              		.loc 1 1085 3 view .LVU926
1086:Drivers/STM32H7xx_HAL_Driver/Src/stm32h7xx_ll_usb.c **** 
 2676              		.loc 1 1086 3 view .LVU927
1086:Drivers/STM32H7xx_HAL_Driver/Src/stm32h7xx_ll_usb.c **** 
 2677              		.loc 1 1086 32 is_stmt 0 view .LVU928
 2678 0000 0B78     		ldrb	r3, [r1]	@ zero_extendqisi2
 2679              	.LVL185:
1088:Drivers/STM32H7xx_HAL_Driver/Src/stm32h7xx_ll_usb.c ****   {
 2680              		.loc 1 1088 3 is_stmt 1 view .LVU929
1088:Drivers/STM32H7xx_HAL_Driver/Src/stm32h7xx_ll_usb.c ****   {
 2681              		.loc 1 1088 9 is_stmt 0 view .LVU930
 2682 0002 4A78     		ldrb	r2, [r1, #1]	@ zero_extendqisi2
ARM GAS  C:\Users\ADMINI~1\AppData\Local\Temp\cceMOlfx.s 			page 88


1088:Drivers/STM32H7xx_HAL_Driver/Src/stm32h7xx_ll_usb.c ****   {
 2683              		.loc 1 1088 6 view .LVU931
 2684 0004 012A     		cmp	r2, #1
 2685 0006 0ED0     		beq	.L185
1098:Drivers/STM32H7xx_HAL_Driver/Src/stm32h7xx_ll_usb.c ****     if ((ep->type == EP_TYPE_INTR) || (ep->type == EP_TYPE_BULK))
 2686              		.loc 1 1098 5 is_stmt 1 view .LVU932
1098:Drivers/STM32H7xx_HAL_Driver/Src/stm32h7xx_ll_usb.c ****     if ((ep->type == EP_TYPE_INTR) || (ep->type == EP_TYPE_BULK))
 2687              		.loc 1 1098 22 is_stmt 0 view .LVU933
 2688 0008 00EB4310 		add	r0, r0, r3, lsl #5
 2689              	.LVL186:
1098:Drivers/STM32H7xx_HAL_Driver/Src/stm32h7xx_ll_usb.c ****     if ((ep->type == EP_TYPE_INTR) || (ep->type == EP_TYPE_BULK))
 2690              		.loc 1 1098 22 view .LVU934
 2691 000c D0F8003B 		ldr	r3, [r0, #2816]
 2692              	.LVL187:
1098:Drivers/STM32H7xx_HAL_Driver/Src/stm32h7xx_ll_usb.c ****     if ((ep->type == EP_TYPE_INTR) || (ep->type == EP_TYPE_BULK))
 2693              		.loc 1 1098 32 view .LVU935
 2694 0010 23F40013 		bic	r3, r3, #2097152
 2695 0014 C0F8003B 		str	r3, [r0, #2816]
 2696              	.LVL188:
1099:Drivers/STM32H7xx_HAL_Driver/Src/stm32h7xx_ll_usb.c ****     {
 2697              		.loc 1 1099 5 is_stmt 1 view .LVU936
1099:Drivers/STM32H7xx_HAL_Driver/Src/stm32h7xx_ll_usb.c ****     {
 2698              		.loc 1 1099 12 is_stmt 0 view .LVU937
 2699 0018 0B79     		ldrb	r3, [r1, #4]	@ zero_extendqisi2
1099:Drivers/STM32H7xx_HAL_Driver/Src/stm32h7xx_ll_usb.c ****     {
 2700              		.loc 1 1099 36 view .LVU938
 2701 001a 023B     		subs	r3, r3, #2
 2702 001c DBB2     		uxtb	r3, r3
1099:Drivers/STM32H7xx_HAL_Driver/Src/stm32h7xx_ll_usb.c ****     {
 2703              		.loc 1 1099 8 view .LVU939
 2704 001e 012B     		cmp	r3, #1
 2705 0020 15D9     		bls	.L186
 2706              	.L184:
1104:Drivers/STM32H7xx_HAL_Driver/Src/stm32h7xx_ll_usb.c **** }
 2707              		.loc 1 1104 3 is_stmt 1 view .LVU940
1105:Drivers/STM32H7xx_HAL_Driver/Src/stm32h7xx_ll_usb.c **** 
 2708              		.loc 1 1105 1 is_stmt 0 view .LVU941
 2709 0022 0020     		movs	r0, #0
 2710 0024 7047     		bx	lr
 2711              	.LVL189:
 2712              	.L185:
1090:Drivers/STM32H7xx_HAL_Driver/Src/stm32h7xx_ll_usb.c ****     if ((ep->type == EP_TYPE_INTR) || (ep->type == EP_TYPE_BULK))
 2713              		.loc 1 1090 5 is_stmt 1 view .LVU942
1090:Drivers/STM32H7xx_HAL_Driver/Src/stm32h7xx_ll_usb.c ****     if ((ep->type == EP_TYPE_INTR) || (ep->type == EP_TYPE_BULK))
 2714              		.loc 1 1090 21 is_stmt 0 view .LVU943
 2715 0026 00EB4310 		add	r0, r0, r3, lsl #5
 2716              	.LVL190:
1090:Drivers/STM32H7xx_HAL_Driver/Src/stm32h7xx_ll_usb.c ****     if ((ep->type == EP_TYPE_INTR) || (ep->type == EP_TYPE_BULK))
 2717              		.loc 1 1090 21 view .LVU944
 2718 002a D0F80039 		ldr	r3, [r0, #2304]
 2719              	.LVL191:
1090:Drivers/STM32H7xx_HAL_Driver/Src/stm32h7xx_ll_usb.c ****     if ((ep->type == EP_TYPE_INTR) || (ep->type == EP_TYPE_BULK))
 2720              		.loc 1 1090 31 view .LVU945
 2721 002e 23F40013 		bic	r3, r3, #2097152
 2722 0032 C0F80039 		str	r3, [r0, #2304]
 2723              	.LVL192:
1091:Drivers/STM32H7xx_HAL_Driver/Src/stm32h7xx_ll_usb.c ****     {
ARM GAS  C:\Users\ADMINI~1\AppData\Local\Temp\cceMOlfx.s 			page 89


 2724              		.loc 1 1091 5 is_stmt 1 view .LVU946
1091:Drivers/STM32H7xx_HAL_Driver/Src/stm32h7xx_ll_usb.c ****     {
 2725              		.loc 1 1091 12 is_stmt 0 view .LVU947
 2726 0036 0B79     		ldrb	r3, [r1, #4]	@ zero_extendqisi2
1091:Drivers/STM32H7xx_HAL_Driver/Src/stm32h7xx_ll_usb.c ****     {
 2727              		.loc 1 1091 36 view .LVU948
 2728 0038 023B     		subs	r3, r3, #2
 2729 003a DBB2     		uxtb	r3, r3
1091:Drivers/STM32H7xx_HAL_Driver/Src/stm32h7xx_ll_usb.c ****     {
 2730              		.loc 1 1091 8 view .LVU949
 2731 003c 012B     		cmp	r3, #1
 2732 003e F0D8     		bhi	.L184
1093:Drivers/STM32H7xx_HAL_Driver/Src/stm32h7xx_ll_usb.c ****     }
 2733              		.loc 1 1093 7 is_stmt 1 view .LVU950
1093:Drivers/STM32H7xx_HAL_Driver/Src/stm32h7xx_ll_usb.c ****     }
 2734              		.loc 1 1093 23 is_stmt 0 view .LVU951
 2735 0040 D0F80039 		ldr	r3, [r0, #2304]
1093:Drivers/STM32H7xx_HAL_Driver/Src/stm32h7xx_ll_usb.c ****     }
 2736              		.loc 1 1093 33 view .LVU952
 2737 0044 43F08053 		orr	r3, r3, #268435456
 2738 0048 C0F80039 		str	r3, [r0, #2304]
 2739 004c E9E7     		b	.L184
 2740              	.L186:
1101:Drivers/STM32H7xx_HAL_Driver/Src/stm32h7xx_ll_usb.c ****     }
 2741              		.loc 1 1101 7 is_stmt 1 view .LVU953
1101:Drivers/STM32H7xx_HAL_Driver/Src/stm32h7xx_ll_usb.c ****     }
 2742              		.loc 1 1101 24 is_stmt 0 view .LVU954
 2743 004e D0F8003B 		ldr	r3, [r0, #2816]
1101:Drivers/STM32H7xx_HAL_Driver/Src/stm32h7xx_ll_usb.c ****     }
 2744              		.loc 1 1101 34 view .LVU955
 2745 0052 43F08053 		orr	r3, r3, #268435456
 2746 0056 C0F8003B 		str	r3, [r0, #2816]
 2747 005a E2E7     		b	.L184
 2748              		.cfi_endproc
 2749              	.LFE369:
 2751              		.section	.text.USB_StopDevice,"ax",%progbits
 2752              		.align	1
 2753              		.global	USB_StopDevice
 2754              		.syntax unified
 2755              		.thumb
 2756              		.thumb_func
 2758              	USB_StopDevice:
 2759              	.LVL193:
 2760              	.LFB370:
1113:Drivers/STM32H7xx_HAL_Driver/Src/stm32h7xx_ll_usb.c ****   HAL_StatusTypeDef ret;
 2761              		.loc 1 1113 1 is_stmt 1 view -0
 2762              		.cfi_startproc
 2763              		@ args = 0, pretend = 0, frame = 0
 2764              		@ frame_needed = 0, uses_anonymous_args = 0
1113:Drivers/STM32H7xx_HAL_Driver/Src/stm32h7xx_ll_usb.c ****   HAL_StatusTypeDef ret;
 2765              		.loc 1 1113 1 is_stmt 0 view .LVU957
 2766 0000 10B5     		push	{r4, lr}
 2767              	.LCFI31:
 2768              		.cfi_def_cfa_offset 8
 2769              		.cfi_offset 4, -8
 2770              		.cfi_offset 14, -4
 2771 0002 0446     		mov	r4, r0
ARM GAS  C:\Users\ADMINI~1\AppData\Local\Temp\cceMOlfx.s 			page 90


1114:Drivers/STM32H7xx_HAL_Driver/Src/stm32h7xx_ll_usb.c ****   uint32_t USBx_BASE = (uint32_t)USBx;
 2772              		.loc 1 1114 3 is_stmt 1 view .LVU958
1115:Drivers/STM32H7xx_HAL_Driver/Src/stm32h7xx_ll_usb.c ****   uint32_t i;
 2773              		.loc 1 1115 3 view .LVU959
 2774              	.LVL194:
1116:Drivers/STM32H7xx_HAL_Driver/Src/stm32h7xx_ll_usb.c **** 
 2775              		.loc 1 1116 3 view .LVU960
1119:Drivers/STM32H7xx_HAL_Driver/Src/stm32h7xx_ll_usb.c ****   {
 2776              		.loc 1 1119 3 view .LVU961
1119:Drivers/STM32H7xx_HAL_Driver/Src/stm32h7xx_ll_usb.c ****   {
 2777              		.loc 1 1119 10 is_stmt 0 view .LVU962
 2778 0004 0022     		movs	r2, #0
1119:Drivers/STM32H7xx_HAL_Driver/Src/stm32h7xx_ll_usb.c ****   {
 2779              		.loc 1 1119 3 view .LVU963
 2780 0006 08E0     		b	.L188
 2781              	.LVL195:
 2782              	.L189:
1121:Drivers/STM32H7xx_HAL_Driver/Src/stm32h7xx_ll_usb.c ****     USBx_OUTEP(i)->DOEPINT = 0xFB7FU;
 2783              		.loc 1 1121 5 is_stmt 1 view .LVU964
 2784 0008 04EB4213 		add	r3, r4, r2, lsl #5
1121:Drivers/STM32H7xx_HAL_Driver/Src/stm32h7xx_ll_usb.c ****     USBx_OUTEP(i)->DOEPINT = 0xFB7FU;
 2785              		.loc 1 1121 27 is_stmt 0 view .LVU965
 2786 000c 4FF67F31 		movw	r1, #64383
 2787 0010 C3F80819 		str	r1, [r3, #2312]
1122:Drivers/STM32H7xx_HAL_Driver/Src/stm32h7xx_ll_usb.c ****   }
 2788              		.loc 1 1122 5 is_stmt 1 view .LVU966
1122:Drivers/STM32H7xx_HAL_Driver/Src/stm32h7xx_ll_usb.c ****   }
 2789              		.loc 1 1122 28 is_stmt 0 view .LVU967
 2790 0014 C3F8081B 		str	r1, [r3, #2824]
1119:Drivers/STM32H7xx_HAL_Driver/Src/stm32h7xx_ll_usb.c ****   {
 2791              		.loc 1 1119 26 is_stmt 1 discriminator 3 view .LVU968
 2792 0018 0132     		adds	r2, r2, #1
 2793              	.LVL196:
 2794              	.L188:
1119:Drivers/STM32H7xx_HAL_Driver/Src/stm32h7xx_ll_usb.c ****   {
 2795              		.loc 1 1119 18 discriminator 1 view .LVU969
 2796 001a 0E2A     		cmp	r2, #14
 2797 001c F4D9     		bls	.L189
1126:Drivers/STM32H7xx_HAL_Driver/Src/stm32h7xx_ll_usb.c ****   USBx_DEVICE->DOEPMSK  = 0U;
 2798              		.loc 1 1126 3 view .LVU970
1126:Drivers/STM32H7xx_HAL_Driver/Src/stm32h7xx_ll_usb.c ****   USBx_DEVICE->DOEPMSK  = 0U;
 2799              		.loc 1 1126 25 is_stmt 0 view .LVU971
 2800 001e 0022     		movs	r2, #0
 2801              	.LVL197:
1126:Drivers/STM32H7xx_HAL_Driver/Src/stm32h7xx_ll_usb.c ****   USBx_DEVICE->DOEPMSK  = 0U;
 2802              		.loc 1 1126 25 view .LVU972
 2803 0020 C4F81028 		str	r2, [r4, #2064]
1127:Drivers/STM32H7xx_HAL_Driver/Src/stm32h7xx_ll_usb.c ****   USBx_DEVICE->DAINTMSK = 0U;
 2804              		.loc 1 1127 3 is_stmt 1 view .LVU973
1127:Drivers/STM32H7xx_HAL_Driver/Src/stm32h7xx_ll_usb.c ****   USBx_DEVICE->DAINTMSK = 0U;
 2805              		.loc 1 1127 25 is_stmt 0 view .LVU974
 2806 0024 C4F81428 		str	r2, [r4, #2068]
1128:Drivers/STM32H7xx_HAL_Driver/Src/stm32h7xx_ll_usb.c **** 
 2807              		.loc 1 1128 3 is_stmt 1 view .LVU975
1128:Drivers/STM32H7xx_HAL_Driver/Src/stm32h7xx_ll_usb.c **** 
 2808              		.loc 1 1128 25 is_stmt 0 view .LVU976
 2809 0028 C4F81C28 		str	r2, [r4, #2076]
ARM GAS  C:\Users\ADMINI~1\AppData\Local\Temp\cceMOlfx.s 			page 91


1131:Drivers/STM32H7xx_HAL_Driver/Src/stm32h7xx_ll_usb.c ****   if (ret != HAL_OK)
 2810              		.loc 1 1131 3 is_stmt 1 view .LVU977
1131:Drivers/STM32H7xx_HAL_Driver/Src/stm32h7xx_ll_usb.c ****   if (ret != HAL_OK)
 2811              		.loc 1 1131 9 is_stmt 0 view .LVU978
 2812 002c 2046     		mov	r0, r4
 2813              	.LVL198:
1131:Drivers/STM32H7xx_HAL_Driver/Src/stm32h7xx_ll_usb.c ****   if (ret != HAL_OK)
 2814              		.loc 1 1131 9 view .LVU979
 2815 002e FFF7FEFF 		bl	USB_FlushRxFifo
 2816              	.LVL199:
1132:Drivers/STM32H7xx_HAL_Driver/Src/stm32h7xx_ll_usb.c ****   {
 2817              		.loc 1 1132 3 is_stmt 1 view .LVU980
1132:Drivers/STM32H7xx_HAL_Driver/Src/stm32h7xx_ll_usb.c ****   {
 2818              		.loc 1 1132 6 is_stmt 0 view .LVU981
 2819 0032 00B1     		cbz	r0, .L192
 2820              	.L190:
1144:Drivers/STM32H7xx_HAL_Driver/Src/stm32h7xx_ll_usb.c **** 
 2821              		.loc 1 1144 1 view .LVU982
 2822 0034 10BD     		pop	{r4, pc}
 2823              	.LVL200:
 2824              	.L192:
1137:Drivers/STM32H7xx_HAL_Driver/Src/stm32h7xx_ll_usb.c ****   if (ret != HAL_OK)
 2825              		.loc 1 1137 3 is_stmt 1 view .LVU983
1137:Drivers/STM32H7xx_HAL_Driver/Src/stm32h7xx_ll_usb.c ****   if (ret != HAL_OK)
 2826              		.loc 1 1137 9 is_stmt 0 view .LVU984
 2827 0036 1021     		movs	r1, #16
 2828 0038 2046     		mov	r0, r4
 2829              	.LVL201:
1137:Drivers/STM32H7xx_HAL_Driver/Src/stm32h7xx_ll_usb.c ****   if (ret != HAL_OK)
 2830              		.loc 1 1137 9 view .LVU985
 2831 003a FFF7FEFF 		bl	USB_FlushTxFifo
 2832              	.LVL202:
1138:Drivers/STM32H7xx_HAL_Driver/Src/stm32h7xx_ll_usb.c ****   {
 2833              		.loc 1 1138 3 is_stmt 1 view .LVU986
1140:Drivers/STM32H7xx_HAL_Driver/Src/stm32h7xx_ll_usb.c ****   }
 2834              		.loc 1 1140 5 view .LVU987
 2835 003e F9E7     		b	.L190
 2836              		.cfi_endproc
 2837              	.LFE370:
 2839              		.section	.text.USB_SetDevAddress,"ax",%progbits
 2840              		.align	1
 2841              		.global	USB_SetDevAddress
 2842              		.syntax unified
 2843              		.thumb
 2844              		.thumb_func
 2846              	USB_SetDevAddress:
 2847              	.LVL203:
 2848              	.LFB371:
1154:Drivers/STM32H7xx_HAL_Driver/Src/stm32h7xx_ll_usb.c ****   uint32_t USBx_BASE = (uint32_t)USBx;
 2849              		.loc 1 1154 1 view -0
 2850              		.cfi_startproc
 2851              		@ args = 0, pretend = 0, frame = 0
 2852              		@ frame_needed = 0, uses_anonymous_args = 0
 2853              		@ link register save eliminated.
1155:Drivers/STM32H7xx_HAL_Driver/Src/stm32h7xx_ll_usb.c **** 
 2854              		.loc 1 1155 3 view .LVU989
1157:Drivers/STM32H7xx_HAL_Driver/Src/stm32h7xx_ll_usb.c ****   USBx_DEVICE->DCFG |= ((uint32_t)address << 4) & USB_OTG_DCFG_DAD;
ARM GAS  C:\Users\ADMINI~1\AppData\Local\Temp\cceMOlfx.s 			page 92


 2855              		.loc 1 1157 3 view .LVU990
1157:Drivers/STM32H7xx_HAL_Driver/Src/stm32h7xx_ll_usb.c ****   USBx_DEVICE->DCFG |= ((uint32_t)address << 4) & USB_OTG_DCFG_DAD;
 2856              		.loc 1 1157 14 is_stmt 0 view .LVU991
 2857 0000 D0F80038 		ldr	r3, [r0, #2048]
1157:Drivers/STM32H7xx_HAL_Driver/Src/stm32h7xx_ll_usb.c ****   USBx_DEVICE->DCFG |= ((uint32_t)address << 4) & USB_OTG_DCFG_DAD;
 2858              		.loc 1 1157 21 view .LVU992
 2859 0004 23F4FE63 		bic	r3, r3, #2032
 2860 0008 C0F80038 		str	r3, [r0, #2048]
1158:Drivers/STM32H7xx_HAL_Driver/Src/stm32h7xx_ll_usb.c **** 
 2861              		.loc 1 1158 3 is_stmt 1 view .LVU993
1158:Drivers/STM32H7xx_HAL_Driver/Src/stm32h7xx_ll_usb.c **** 
 2862              		.loc 1 1158 14 is_stmt 0 view .LVU994
 2863 000c D0F80038 		ldr	r3, [r0, #2048]
1158:Drivers/STM32H7xx_HAL_Driver/Src/stm32h7xx_ll_usb.c **** 
 2864              		.loc 1 1158 43 view .LVU995
 2865 0010 0901     		lsls	r1, r1, #4
 2866              	.LVL204:
1158:Drivers/STM32H7xx_HAL_Driver/Src/stm32h7xx_ll_usb.c **** 
 2867              		.loc 1 1158 49 view .LVU996
 2868 0012 01F4FE61 		and	r1, r1, #2032
1158:Drivers/STM32H7xx_HAL_Driver/Src/stm32h7xx_ll_usb.c **** 
 2869              		.loc 1 1158 21 view .LVU997
 2870 0016 0B43     		orrs	r3, r3, r1
 2871 0018 C0F80038 		str	r3, [r0, #2048]
1160:Drivers/STM32H7xx_HAL_Driver/Src/stm32h7xx_ll_usb.c **** }
 2872              		.loc 1 1160 3 is_stmt 1 view .LVU998
1161:Drivers/STM32H7xx_HAL_Driver/Src/stm32h7xx_ll_usb.c **** 
 2873              		.loc 1 1161 1 is_stmt 0 view .LVU999
 2874 001c 0020     		movs	r0, #0
 2875              	.LVL205:
1161:Drivers/STM32H7xx_HAL_Driver/Src/stm32h7xx_ll_usb.c **** 
 2876              		.loc 1 1161 1 view .LVU1000
 2877 001e 7047     		bx	lr
 2878              		.cfi_endproc
 2879              	.LFE371:
 2881              		.section	.text.USB_DevConnect,"ax",%progbits
 2882              		.align	1
 2883              		.global	USB_DevConnect
 2884              		.syntax unified
 2885              		.thumb
 2886              		.thumb_func
 2888              	USB_DevConnect:
 2889              	.LVL206:
 2890              	.LFB372:
1169:Drivers/STM32H7xx_HAL_Driver/Src/stm32h7xx_ll_usb.c ****   uint32_t USBx_BASE = (uint32_t)USBx;
 2891              		.loc 1 1169 1 is_stmt 1 view -0
 2892              		.cfi_startproc
 2893              		@ args = 0, pretend = 0, frame = 0
 2894              		@ frame_needed = 0, uses_anonymous_args = 0
 2895              		@ link register save eliminated.
1170:Drivers/STM32H7xx_HAL_Driver/Src/stm32h7xx_ll_usb.c **** 
 2896              		.loc 1 1170 3 view .LVU1002
1173:Drivers/STM32H7xx_HAL_Driver/Src/stm32h7xx_ll_usb.c **** 
 2897              		.loc 1 1173 3 view .LVU1003
1173:Drivers/STM32H7xx_HAL_Driver/Src/stm32h7xx_ll_usb.c **** 
 2898              		.loc 1 1173 16 is_stmt 0 view .LVU1004
 2899 0000 D0F8003E 		ldr	r3, [r0, #3584]
ARM GAS  C:\Users\ADMINI~1\AppData\Local\Temp\cceMOlfx.s 			page 93


 2900 0004 23F00303 		bic	r3, r3, #3
 2901 0008 C0F8003E 		str	r3, [r0, #3584]
1175:Drivers/STM32H7xx_HAL_Driver/Src/stm32h7xx_ll_usb.c **** 
 2902              		.loc 1 1175 3 is_stmt 1 view .LVU1005
1175:Drivers/STM32H7xx_HAL_Driver/Src/stm32h7xx_ll_usb.c **** 
 2903              		.loc 1 1175 14 is_stmt 0 view .LVU1006
 2904 000c D0F80438 		ldr	r3, [r0, #2052]
1175:Drivers/STM32H7xx_HAL_Driver/Src/stm32h7xx_ll_usb.c **** 
 2905              		.loc 1 1175 21 view .LVU1007
 2906 0010 23F00203 		bic	r3, r3, #2
 2907 0014 C0F80438 		str	r3, [r0, #2052]
1177:Drivers/STM32H7xx_HAL_Driver/Src/stm32h7xx_ll_usb.c **** }
 2908              		.loc 1 1177 3 is_stmt 1 view .LVU1008
1178:Drivers/STM32H7xx_HAL_Driver/Src/stm32h7xx_ll_usb.c **** 
 2909              		.loc 1 1178 1 is_stmt 0 view .LVU1009
 2910 0018 0020     		movs	r0, #0
 2911              	.LVL207:
1178:Drivers/STM32H7xx_HAL_Driver/Src/stm32h7xx_ll_usb.c **** 
 2912              		.loc 1 1178 1 view .LVU1010
 2913 001a 7047     		bx	lr
 2914              		.cfi_endproc
 2915              	.LFE372:
 2917              		.section	.text.USB_DevDisconnect,"ax",%progbits
 2918              		.align	1
 2919              		.global	USB_DevDisconnect
 2920              		.syntax unified
 2921              		.thumb
 2922              		.thumb_func
 2924              	USB_DevDisconnect:
 2925              	.LVL208:
 2926              	.LFB373:
1186:Drivers/STM32H7xx_HAL_Driver/Src/stm32h7xx_ll_usb.c ****   uint32_t USBx_BASE = (uint32_t)USBx;
 2927              		.loc 1 1186 1 is_stmt 1 view -0
 2928              		.cfi_startproc
 2929              		@ args = 0, pretend = 0, frame = 0
 2930              		@ frame_needed = 0, uses_anonymous_args = 0
 2931              		@ link register save eliminated.
1187:Drivers/STM32H7xx_HAL_Driver/Src/stm32h7xx_ll_usb.c **** 
 2932              		.loc 1 1187 3 view .LVU1012
1190:Drivers/STM32H7xx_HAL_Driver/Src/stm32h7xx_ll_usb.c **** 
 2933              		.loc 1 1190 3 view .LVU1013
1190:Drivers/STM32H7xx_HAL_Driver/Src/stm32h7xx_ll_usb.c **** 
 2934              		.loc 1 1190 16 is_stmt 0 view .LVU1014
 2935 0000 D0F8003E 		ldr	r3, [r0, #3584]
 2936 0004 23F00303 		bic	r3, r3, #3
 2937 0008 C0F8003E 		str	r3, [r0, #3584]
1192:Drivers/STM32H7xx_HAL_Driver/Src/stm32h7xx_ll_usb.c **** 
 2938              		.loc 1 1192 3 is_stmt 1 view .LVU1015
1192:Drivers/STM32H7xx_HAL_Driver/Src/stm32h7xx_ll_usb.c **** 
 2939              		.loc 1 1192 14 is_stmt 0 view .LVU1016
 2940 000c D0F80438 		ldr	r3, [r0, #2052]
1192:Drivers/STM32H7xx_HAL_Driver/Src/stm32h7xx_ll_usb.c **** 
 2941              		.loc 1 1192 21 view .LVU1017
 2942 0010 43F00203 		orr	r3, r3, #2
 2943 0014 C0F80438 		str	r3, [r0, #2052]
1194:Drivers/STM32H7xx_HAL_Driver/Src/stm32h7xx_ll_usb.c **** }
 2944              		.loc 1 1194 3 is_stmt 1 view .LVU1018
ARM GAS  C:\Users\ADMINI~1\AppData\Local\Temp\cceMOlfx.s 			page 94


1195:Drivers/STM32H7xx_HAL_Driver/Src/stm32h7xx_ll_usb.c **** 
 2945              		.loc 1 1195 1 is_stmt 0 view .LVU1019
 2946 0018 0020     		movs	r0, #0
 2947              	.LVL209:
1195:Drivers/STM32H7xx_HAL_Driver/Src/stm32h7xx_ll_usb.c **** 
 2948              		.loc 1 1195 1 view .LVU1020
 2949 001a 7047     		bx	lr
 2950              		.cfi_endproc
 2951              	.LFE373:
 2953              		.section	.text.USB_ReadInterrupts,"ax",%progbits
 2954              		.align	1
 2955              		.global	USB_ReadInterrupts
 2956              		.syntax unified
 2957              		.thumb
 2958              		.thumb_func
 2960              	USB_ReadInterrupts:
 2961              	.LVL210:
 2962              	.LFB374:
1203:Drivers/STM32H7xx_HAL_Driver/Src/stm32h7xx_ll_usb.c ****   uint32_t tmpreg;
 2963              		.loc 1 1203 1 is_stmt 1 view -0
 2964              		.cfi_startproc
 2965              		@ args = 0, pretend = 0, frame = 0
 2966              		@ frame_needed = 0, uses_anonymous_args = 0
 2967              		@ link register save eliminated.
1204:Drivers/STM32H7xx_HAL_Driver/Src/stm32h7xx_ll_usb.c **** 
 2968              		.loc 1 1204 3 view .LVU1022
1206:Drivers/STM32H7xx_HAL_Driver/Src/stm32h7xx_ll_usb.c ****   tmpreg &= USBx->GINTMSK;
 2969              		.loc 1 1206 3 view .LVU1023
1206:Drivers/STM32H7xx_HAL_Driver/Src/stm32h7xx_ll_usb.c ****   tmpreg &= USBx->GINTMSK;
 2970              		.loc 1 1206 10 is_stmt 0 view .LVU1024
 2971 0000 4269     		ldr	r2, [r0, #20]
 2972              	.LVL211:
1207:Drivers/STM32H7xx_HAL_Driver/Src/stm32h7xx_ll_usb.c **** 
 2973              		.loc 1 1207 3 is_stmt 1 view .LVU1025
1207:Drivers/STM32H7xx_HAL_Driver/Src/stm32h7xx_ll_usb.c **** 
 2974              		.loc 1 1207 17 is_stmt 0 view .LVU1026
 2975 0002 8069     		ldr	r0, [r0, #24]
 2976              	.LVL212:
1209:Drivers/STM32H7xx_HAL_Driver/Src/stm32h7xx_ll_usb.c **** }
 2977              		.loc 1 1209 3 is_stmt 1 view .LVU1027
1210:Drivers/STM32H7xx_HAL_Driver/Src/stm32h7xx_ll_usb.c **** 
 2978              		.loc 1 1210 1 is_stmt 0 view .LVU1028
 2979 0004 1040     		ands	r0, r0, r2
 2980              	.LVL213:
1210:Drivers/STM32H7xx_HAL_Driver/Src/stm32h7xx_ll_usb.c **** 
 2981              		.loc 1 1210 1 view .LVU1029
 2982 0006 7047     		bx	lr
 2983              		.cfi_endproc
 2984              	.LFE374:
 2986              		.section	.text.USB_ReadChInterrupts,"ax",%progbits
 2987              		.align	1
 2988              		.global	USB_ReadChInterrupts
 2989              		.syntax unified
 2990              		.thumb
 2991              		.thumb_func
 2993              	USB_ReadChInterrupts:
 2994              	.LVL214:
ARM GAS  C:\Users\ADMINI~1\AppData\Local\Temp\cceMOlfx.s 			page 95


 2995              	.LFB375:
1219:Drivers/STM32H7xx_HAL_Driver/Src/stm32h7xx_ll_usb.c ****   uint32_t USBx_BASE = (uint32_t)USBx;
 2996              		.loc 1 1219 1 is_stmt 1 view -0
 2997              		.cfi_startproc
 2998              		@ args = 0, pretend = 0, frame = 0
 2999              		@ frame_needed = 0, uses_anonymous_args = 0
 3000              		@ link register save eliminated.
1220:Drivers/STM32H7xx_HAL_Driver/Src/stm32h7xx_ll_usb.c ****   uint32_t tmpreg;
 3001              		.loc 1 1220 3 view .LVU1031
1221:Drivers/STM32H7xx_HAL_Driver/Src/stm32h7xx_ll_usb.c **** 
 3002              		.loc 1 1221 3 view .LVU1032
1223:Drivers/STM32H7xx_HAL_Driver/Src/stm32h7xx_ll_usb.c ****   tmpreg &= USBx_HC(chnum)->HCINTMSK;
 3003              		.loc 1 1223 3 view .LVU1033
1223:Drivers/STM32H7xx_HAL_Driver/Src/stm32h7xx_ll_usb.c ****   tmpreg &= USBx_HC(chnum)->HCINTMSK;
 3004              		.loc 1 1223 12 is_stmt 0 view .LVU1034
 3005 0000 00EB4110 		add	r0, r0, r1, lsl #5
 3006              	.LVL215:
1223:Drivers/STM32H7xx_HAL_Driver/Src/stm32h7xx_ll_usb.c ****   tmpreg &= USBx_HC(chnum)->HCINTMSK;
 3007              		.loc 1 1223 12 view .LVU1035
 3008 0004 00F5A063 		add	r3, r0, #1280
1223:Drivers/STM32H7xx_HAL_Driver/Src/stm32h7xx_ll_usb.c ****   tmpreg &= USBx_HC(chnum)->HCINTMSK;
 3009              		.loc 1 1223 10 view .LVU1036
 3010 0008 D0F80805 		ldr	r0, [r0, #1288]
 3011              	.LVL216:
1224:Drivers/STM32H7xx_HAL_Driver/Src/stm32h7xx_ll_usb.c **** 
 3012              		.loc 1 1224 3 is_stmt 1 view .LVU1037
1224:Drivers/STM32H7xx_HAL_Driver/Src/stm32h7xx_ll_usb.c **** 
 3013              		.loc 1 1224 27 is_stmt 0 view .LVU1038
 3014 000c DB68     		ldr	r3, [r3, #12]
 3015              	.LVL217:
1226:Drivers/STM32H7xx_HAL_Driver/Src/stm32h7xx_ll_usb.c **** }
 3016              		.loc 1 1226 3 is_stmt 1 view .LVU1039
1227:Drivers/STM32H7xx_HAL_Driver/Src/stm32h7xx_ll_usb.c **** 
 3017              		.loc 1 1227 1 is_stmt 0 view .LVU1040
 3018 000e 1840     		ands	r0, r0, r3
 3019              	.LVL218:
1227:Drivers/STM32H7xx_HAL_Driver/Src/stm32h7xx_ll_usb.c **** 
 3020              		.loc 1 1227 1 view .LVU1041
 3021 0010 7047     		bx	lr
 3022              		.cfi_endproc
 3023              	.LFE375:
 3025              		.section	.text.USB_ReadDevAllOutEpInterrupt,"ax",%progbits
 3026              		.align	1
 3027              		.global	USB_ReadDevAllOutEpInterrupt
 3028              		.syntax unified
 3029              		.thumb
 3030              		.thumb_func
 3032              	USB_ReadDevAllOutEpInterrupt:
 3033              	.LVL219:
 3034              	.LFB376:
1235:Drivers/STM32H7xx_HAL_Driver/Src/stm32h7xx_ll_usb.c ****   uint32_t USBx_BASE = (uint32_t)USBx;
 3035              		.loc 1 1235 1 is_stmt 1 view -0
 3036              		.cfi_startproc
 3037              		@ args = 0, pretend = 0, frame = 0
 3038              		@ frame_needed = 0, uses_anonymous_args = 0
 3039              		@ link register save eliminated.
1236:Drivers/STM32H7xx_HAL_Driver/Src/stm32h7xx_ll_usb.c ****   uint32_t tmpreg;
ARM GAS  C:\Users\ADMINI~1\AppData\Local\Temp\cceMOlfx.s 			page 96


 3040              		.loc 1 1236 3 view .LVU1043
1237:Drivers/STM32H7xx_HAL_Driver/Src/stm32h7xx_ll_usb.c **** 
 3041              		.loc 1 1237 3 view .LVU1044
1239:Drivers/STM32H7xx_HAL_Driver/Src/stm32h7xx_ll_usb.c ****   tmpreg &= USBx_DEVICE->DAINTMSK;
 3042              		.loc 1 1239 3 view .LVU1045
1239:Drivers/STM32H7xx_HAL_Driver/Src/stm32h7xx_ll_usb.c ****   tmpreg &= USBx_DEVICE->DAINTMSK;
 3043              		.loc 1 1239 11 is_stmt 0 view .LVU1046
 3044 0000 D0F81838 		ldr	r3, [r0, #2072]
1239:Drivers/STM32H7xx_HAL_Driver/Src/stm32h7xx_ll_usb.c ****   tmpreg &= USBx_DEVICE->DAINTMSK;
 3045              		.loc 1 1239 13 view .LVU1047
 3046 0004 00F50060 		add	r0, r0, #2048
 3047              	.LVL220:
1240:Drivers/STM32H7xx_HAL_Driver/Src/stm32h7xx_ll_usb.c **** 
 3048              		.loc 1 1240 3 is_stmt 1 view .LVU1048
1240:Drivers/STM32H7xx_HAL_Driver/Src/stm32h7xx_ll_usb.c **** 
 3049              		.loc 1 1240 24 is_stmt 0 view .LVU1049
 3050 0008 C069     		ldr	r0, [r0, #28]
 3051              	.LVL221:
1240:Drivers/STM32H7xx_HAL_Driver/Src/stm32h7xx_ll_usb.c **** 
 3052              		.loc 1 1240 10 view .LVU1050
 3053 000a 1840     		ands	r0, r0, r3
 3054              	.LVL222:
1242:Drivers/STM32H7xx_HAL_Driver/Src/stm32h7xx_ll_usb.c **** }
 3055              		.loc 1 1242 3 is_stmt 1 view .LVU1051
1243:Drivers/STM32H7xx_HAL_Driver/Src/stm32h7xx_ll_usb.c **** 
 3056              		.loc 1 1243 1 is_stmt 0 view .LVU1052
 3057 000c 000C     		lsrs	r0, r0, #16
 3058              	.LVL223:
1243:Drivers/STM32H7xx_HAL_Driver/Src/stm32h7xx_ll_usb.c **** 
 3059              		.loc 1 1243 1 view .LVU1053
 3060 000e 7047     		bx	lr
 3061              		.cfi_endproc
 3062              	.LFE376:
 3064              		.section	.text.USB_ReadDevAllInEpInterrupt,"ax",%progbits
 3065              		.align	1
 3066              		.global	USB_ReadDevAllInEpInterrupt
 3067              		.syntax unified
 3068              		.thumb
 3069              		.thumb_func
 3071              	USB_ReadDevAllInEpInterrupt:
 3072              	.LVL224:
 3073              	.LFB377:
1251:Drivers/STM32H7xx_HAL_Driver/Src/stm32h7xx_ll_usb.c ****   uint32_t USBx_BASE = (uint32_t)USBx;
 3074              		.loc 1 1251 1 is_stmt 1 view -0
 3075              		.cfi_startproc
 3076              		@ args = 0, pretend = 0, frame = 0
 3077              		@ frame_needed = 0, uses_anonymous_args = 0
 3078              		@ link register save eliminated.
1252:Drivers/STM32H7xx_HAL_Driver/Src/stm32h7xx_ll_usb.c ****   uint32_t tmpreg;
 3079              		.loc 1 1252 3 view .LVU1055
1253:Drivers/STM32H7xx_HAL_Driver/Src/stm32h7xx_ll_usb.c **** 
 3080              		.loc 1 1253 3 view .LVU1056
1255:Drivers/STM32H7xx_HAL_Driver/Src/stm32h7xx_ll_usb.c ****   tmpreg &= USBx_DEVICE->DAINTMSK;
 3081              		.loc 1 1255 3 view .LVU1057
1255:Drivers/STM32H7xx_HAL_Driver/Src/stm32h7xx_ll_usb.c ****   tmpreg &= USBx_DEVICE->DAINTMSK;
 3082              		.loc 1 1255 11 is_stmt 0 view .LVU1058
 3083 0000 D0F81838 		ldr	r3, [r0, #2072]
ARM GAS  C:\Users\ADMINI~1\AppData\Local\Temp\cceMOlfx.s 			page 97


1255:Drivers/STM32H7xx_HAL_Driver/Src/stm32h7xx_ll_usb.c ****   tmpreg &= USBx_DEVICE->DAINTMSK;
 3084              		.loc 1 1255 13 view .LVU1059
 3085 0004 00F50060 		add	r0, r0, #2048
 3086              	.LVL225:
1256:Drivers/STM32H7xx_HAL_Driver/Src/stm32h7xx_ll_usb.c **** 
 3087              		.loc 1 1256 3 is_stmt 1 view .LVU1060
1256:Drivers/STM32H7xx_HAL_Driver/Src/stm32h7xx_ll_usb.c **** 
 3088              		.loc 1 1256 24 is_stmt 0 view .LVU1061
 3089 0008 C069     		ldr	r0, [r0, #28]
 3090              	.LVL226:
1256:Drivers/STM32H7xx_HAL_Driver/Src/stm32h7xx_ll_usb.c **** 
 3091              		.loc 1 1256 10 view .LVU1062
 3092 000a 1840     		ands	r0, r0, r3
 3093              	.LVL227:
1258:Drivers/STM32H7xx_HAL_Driver/Src/stm32h7xx_ll_usb.c **** }
 3094              		.loc 1 1258 3 is_stmt 1 view .LVU1063
1259:Drivers/STM32H7xx_HAL_Driver/Src/stm32h7xx_ll_usb.c **** 
 3095              		.loc 1 1259 1 is_stmt 0 view .LVU1064
 3096 000c 80B2     		uxth	r0, r0
 3097              	.LVL228:
1259:Drivers/STM32H7xx_HAL_Driver/Src/stm32h7xx_ll_usb.c **** 
 3098              		.loc 1 1259 1 view .LVU1065
 3099 000e 7047     		bx	lr
 3100              		.cfi_endproc
 3101              	.LFE377:
 3103              		.section	.text.USB_ReadDevOutEPInterrupt,"ax",%progbits
 3104              		.align	1
 3105              		.global	USB_ReadDevOutEPInterrupt
 3106              		.syntax unified
 3107              		.thumb
 3108              		.thumb_func
 3110              	USB_ReadDevOutEPInterrupt:
 3111              	.LVL229:
 3112              	.LFB378:
1269:Drivers/STM32H7xx_HAL_Driver/Src/stm32h7xx_ll_usb.c ****   uint32_t USBx_BASE = (uint32_t)USBx;
 3113              		.loc 1 1269 1 is_stmt 1 view -0
 3114              		.cfi_startproc
 3115              		@ args = 0, pretend = 0, frame = 0
 3116              		@ frame_needed = 0, uses_anonymous_args = 0
 3117              		@ link register save eliminated.
1270:Drivers/STM32H7xx_HAL_Driver/Src/stm32h7xx_ll_usb.c ****   uint32_t tmpreg;
 3118              		.loc 1 1270 3 view .LVU1067
1271:Drivers/STM32H7xx_HAL_Driver/Src/stm32h7xx_ll_usb.c **** 
 3119              		.loc 1 1271 3 view .LVU1068
1273:Drivers/STM32H7xx_HAL_Driver/Src/stm32h7xx_ll_usb.c ****   tmpreg &= USBx_DEVICE->DOEPMSK;
 3120              		.loc 1 1273 3 view .LVU1069
1273:Drivers/STM32H7xx_HAL_Driver/Src/stm32h7xx_ll_usb.c ****   tmpreg &= USBx_DEVICE->DOEPMSK;
 3121              		.loc 1 1273 13 is_stmt 0 view .LVU1070
 3122 0000 00EB4111 		add	r1, r0, r1, lsl #5
 3123              	.LVL230:
1273:Drivers/STM32H7xx_HAL_Driver/Src/stm32h7xx_ll_usb.c ****   tmpreg &= USBx_DEVICE->DOEPMSK;
 3124              		.loc 1 1273 11 view .LVU1071
 3125 0004 D1F8082B 		ldr	r2, [r1, #2824]
 3126              	.LVL231:
1274:Drivers/STM32H7xx_HAL_Driver/Src/stm32h7xx_ll_usb.c **** 
 3127              		.loc 1 1274 3 is_stmt 1 view .LVU1072
1274:Drivers/STM32H7xx_HAL_Driver/Src/stm32h7xx_ll_usb.c **** 
ARM GAS  C:\Users\ADMINI~1\AppData\Local\Temp\cceMOlfx.s 			page 98


 3128              		.loc 1 1274 13 is_stmt 0 view .LVU1073
 3129 0008 00F50060 		add	r0, r0, #2048
 3130              	.LVL232:
1274:Drivers/STM32H7xx_HAL_Driver/Src/stm32h7xx_ll_usb.c **** 
 3131              		.loc 1 1274 24 view .LVU1074
 3132 000c 4069     		ldr	r0, [r0, #20]
 3133              	.LVL233:
1276:Drivers/STM32H7xx_HAL_Driver/Src/stm32h7xx_ll_usb.c **** }
 3134              		.loc 1 1276 3 is_stmt 1 view .LVU1075
1277:Drivers/STM32H7xx_HAL_Driver/Src/stm32h7xx_ll_usb.c **** 
 3135              		.loc 1 1277 1 is_stmt 0 view .LVU1076
 3136 000e 1040     		ands	r0, r0, r2
 3137              	.LVL234:
1277:Drivers/STM32H7xx_HAL_Driver/Src/stm32h7xx_ll_usb.c **** 
 3138              		.loc 1 1277 1 view .LVU1077
 3139 0010 7047     		bx	lr
 3140              		.cfi_endproc
 3141              	.LFE378:
 3143              		.section	.text.USB_ReadDevInEPInterrupt,"ax",%progbits
 3144              		.align	1
 3145              		.global	USB_ReadDevInEPInterrupt
 3146              		.syntax unified
 3147              		.thumb
 3148              		.thumb_func
 3150              	USB_ReadDevInEPInterrupt:
 3151              	.LVL235:
 3152              	.LFB379:
1287:Drivers/STM32H7xx_HAL_Driver/Src/stm32h7xx_ll_usb.c ****   uint32_t USBx_BASE = (uint32_t)USBx;
 3153              		.loc 1 1287 1 is_stmt 1 view -0
 3154              		.cfi_startproc
 3155              		@ args = 0, pretend = 0, frame = 0
 3156              		@ frame_needed = 0, uses_anonymous_args = 0
 3157              		@ link register save eliminated.
1288:Drivers/STM32H7xx_HAL_Driver/Src/stm32h7xx_ll_usb.c ****   uint32_t tmpreg;
 3158              		.loc 1 1288 3 view .LVU1079
1289:Drivers/STM32H7xx_HAL_Driver/Src/stm32h7xx_ll_usb.c ****   uint32_t msk;
 3159              		.loc 1 1289 3 view .LVU1080
1290:Drivers/STM32H7xx_HAL_Driver/Src/stm32h7xx_ll_usb.c ****   uint32_t emp;
 3160              		.loc 1 1290 3 view .LVU1081
1291:Drivers/STM32H7xx_HAL_Driver/Src/stm32h7xx_ll_usb.c **** 
 3161              		.loc 1 1291 3 view .LVU1082
1293:Drivers/STM32H7xx_HAL_Driver/Src/stm32h7xx_ll_usb.c ****   emp = USBx_DEVICE->DIEPEMPMSK;
 3162              		.loc 1 1293 3 view .LVU1083
1293:Drivers/STM32H7xx_HAL_Driver/Src/stm32h7xx_ll_usb.c ****   emp = USBx_DEVICE->DIEPEMPMSK;
 3163              		.loc 1 1293 7 is_stmt 0 view .LVU1084
 3164 0000 D0F81028 		ldr	r2, [r0, #2064]
 3165              	.LVL236:
1294:Drivers/STM32H7xx_HAL_Driver/Src/stm32h7xx_ll_usb.c ****   msk |= ((emp >> (epnum & EP_ADDR_MSK)) & 0x1U) << 7;
 3166              		.loc 1 1294 3 is_stmt 1 view .LVU1085
1294:Drivers/STM32H7xx_HAL_Driver/Src/stm32h7xx_ll_usb.c ****   msk |= ((emp >> (epnum & EP_ADDR_MSK)) & 0x1U) << 7;
 3167              		.loc 1 1294 7 is_stmt 0 view .LVU1086
 3168 0004 D0F83438 		ldr	r3, [r0, #2100]
 3169              	.LVL237:
1295:Drivers/STM32H7xx_HAL_Driver/Src/stm32h7xx_ll_usb.c ****   tmpreg = USBx_INEP((uint32_t)epnum)->DIEPINT & msk;
 3170              		.loc 1 1295 3 is_stmt 1 view .LVU1087
1295:Drivers/STM32H7xx_HAL_Driver/Src/stm32h7xx_ll_usb.c ****   tmpreg = USBx_INEP((uint32_t)epnum)->DIEPINT & msk;
 3171              		.loc 1 1295 26 is_stmt 0 view .LVU1088
ARM GAS  C:\Users\ADMINI~1\AppData\Local\Temp\cceMOlfx.s 			page 99


 3172 0008 01F00F0C 		and	ip, r1, #15
1295:Drivers/STM32H7xx_HAL_Driver/Src/stm32h7xx_ll_usb.c ****   tmpreg = USBx_INEP((uint32_t)epnum)->DIEPINT & msk;
 3173              		.loc 1 1295 16 view .LVU1089
 3174 000c 23FA0CF3 		lsr	r3, r3, ip
 3175              	.LVL238:
1295:Drivers/STM32H7xx_HAL_Driver/Src/stm32h7xx_ll_usb.c ****   tmpreg = USBx_INEP((uint32_t)epnum)->DIEPINT & msk;
 3176              		.loc 1 1295 50 view .LVU1090
 3177 0010 DB01     		lsls	r3, r3, #7
 3178 0012 DBB2     		uxtb	r3, r3
1295:Drivers/STM32H7xx_HAL_Driver/Src/stm32h7xx_ll_usb.c ****   tmpreg = USBx_INEP((uint32_t)epnum)->DIEPINT & msk;
 3179              		.loc 1 1295 7 view .LVU1091
 3180 0014 1343     		orrs	r3, r3, r2
 3181              	.LVL239:
1296:Drivers/STM32H7xx_HAL_Driver/Src/stm32h7xx_ll_usb.c **** 
 3182              		.loc 1 1296 3 is_stmt 1 view .LVU1092
1296:Drivers/STM32H7xx_HAL_Driver/Src/stm32h7xx_ll_usb.c **** 
 3183              		.loc 1 1296 12 is_stmt 0 view .LVU1093
 3184 0016 00EB4110 		add	r0, r0, r1, lsl #5
 3185              	.LVL240:
1296:Drivers/STM32H7xx_HAL_Driver/Src/stm32h7xx_ll_usb.c **** 
 3186              		.loc 1 1296 12 view .LVU1094
 3187 001a 00F51060 		add	r0, r0, #2304
1296:Drivers/STM32H7xx_HAL_Driver/Src/stm32h7xx_ll_usb.c **** 
 3188              		.loc 1 1296 38 view .LVU1095
 3189 001e 8068     		ldr	r0, [r0, #8]
 3190              	.LVL241:
1298:Drivers/STM32H7xx_HAL_Driver/Src/stm32h7xx_ll_usb.c **** }
 3191              		.loc 1 1298 3 is_stmt 1 view .LVU1096
1299:Drivers/STM32H7xx_HAL_Driver/Src/stm32h7xx_ll_usb.c **** 
 3192              		.loc 1 1299 1 is_stmt 0 view .LVU1097
 3193 0020 1840     		ands	r0, r0, r3
 3194              	.LVL242:
1299:Drivers/STM32H7xx_HAL_Driver/Src/stm32h7xx_ll_usb.c **** 
 3195              		.loc 1 1299 1 view .LVU1098
 3196 0022 7047     		bx	lr
 3197              		.cfi_endproc
 3198              	.LFE379:
 3200              		.section	.text.USB_ClearInterrupts,"ax",%progbits
 3201              		.align	1
 3202              		.global	USB_ClearInterrupts
 3203              		.syntax unified
 3204              		.thumb
 3205              		.thumb_func
 3207              	USB_ClearInterrupts:
 3208              	.LVL243:
 3209              	.LFB380:
1308:Drivers/STM32H7xx_HAL_Driver/Src/stm32h7xx_ll_usb.c ****   USBx->GINTSTS &= interrupt;
 3210              		.loc 1 1308 1 is_stmt 1 view -0
 3211              		.cfi_startproc
 3212              		@ args = 0, pretend = 0, frame = 0
 3213              		@ frame_needed = 0, uses_anonymous_args = 0
 3214              		@ link register save eliminated.
1309:Drivers/STM32H7xx_HAL_Driver/Src/stm32h7xx_ll_usb.c **** }
 3215              		.loc 1 1309 3 view .LVU1100
1309:Drivers/STM32H7xx_HAL_Driver/Src/stm32h7xx_ll_usb.c **** }
 3216              		.loc 1 1309 7 is_stmt 0 view .LVU1101
 3217 0000 4369     		ldr	r3, [r0, #20]
ARM GAS  C:\Users\ADMINI~1\AppData\Local\Temp\cceMOlfx.s 			page 100


1309:Drivers/STM32H7xx_HAL_Driver/Src/stm32h7xx_ll_usb.c **** }
 3218              		.loc 1 1309 17 view .LVU1102
 3219 0002 0B40     		ands	r3, r3, r1
 3220 0004 4361     		str	r3, [r0, #20]
1310:Drivers/STM32H7xx_HAL_Driver/Src/stm32h7xx_ll_usb.c **** 
 3221              		.loc 1 1310 1 view .LVU1103
 3222 0006 7047     		bx	lr
 3223              		.cfi_endproc
 3224              	.LFE380:
 3226              		.section	.text.USB_GetMode,"ax",%progbits
 3227              		.align	1
 3228              		.global	USB_GetMode
 3229              		.syntax unified
 3230              		.thumb
 3231              		.thumb_func
 3233              	USB_GetMode:
 3234              	.LVL244:
 3235              	.LFB381:
1321:Drivers/STM32H7xx_HAL_Driver/Src/stm32h7xx_ll_usb.c ****   return ((USBx->GINTSTS) & 0x1U);
 3236              		.loc 1 1321 1 is_stmt 1 view -0
 3237              		.cfi_startproc
 3238              		@ args = 0, pretend = 0, frame = 0
 3239              		@ frame_needed = 0, uses_anonymous_args = 0
 3240              		@ link register save eliminated.
1322:Drivers/STM32H7xx_HAL_Driver/Src/stm32h7xx_ll_usb.c **** }
 3241              		.loc 1 1322 3 view .LVU1105
1322:Drivers/STM32H7xx_HAL_Driver/Src/stm32h7xx_ll_usb.c **** }
 3242              		.loc 1 1322 16 is_stmt 0 view .LVU1106
 3243 0000 4069     		ldr	r0, [r0, #20]
 3244              	.LVL245:
1323:Drivers/STM32H7xx_HAL_Driver/Src/stm32h7xx_ll_usb.c **** 
 3245              		.loc 1 1323 1 view .LVU1107
 3246 0002 00F00100 		and	r0, r0, #1
 3247 0006 7047     		bx	lr
 3248              		.cfi_endproc
 3249              	.LFE381:
 3251              		.section	.text.USB_SetCurrentMode,"ax",%progbits
 3252              		.align	1
 3253              		.global	USB_SetCurrentMode
 3254              		.syntax unified
 3255              		.thumb
 3256              		.thumb_func
 3258              	USB_SetCurrentMode:
 3259              	.LVL246:
 3260              	.LFB354:
 254:Drivers/STM32H7xx_HAL_Driver/Src/stm32h7xx_ll_usb.c ****   uint32_t ms = 0U;
 3261              		.loc 1 254 1 is_stmt 1 view -0
 3262              		.cfi_startproc
 3263              		@ args = 0, pretend = 0, frame = 0
 3264              		@ frame_needed = 0, uses_anonymous_args = 0
 254:Drivers/STM32H7xx_HAL_Driver/Src/stm32h7xx_ll_usb.c ****   uint32_t ms = 0U;
 3265              		.loc 1 254 1 is_stmt 0 view .LVU1109
 3266 0000 38B5     		push	{r3, r4, r5, lr}
 3267              	.LCFI32:
 3268              		.cfi_def_cfa_offset 16
 3269              		.cfi_offset 3, -16
 3270              		.cfi_offset 4, -12
ARM GAS  C:\Users\ADMINI~1\AppData\Local\Temp\cceMOlfx.s 			page 101


 3271              		.cfi_offset 5, -8
 3272              		.cfi_offset 14, -4
 3273 0002 0546     		mov	r5, r0
 255:Drivers/STM32H7xx_HAL_Driver/Src/stm32h7xx_ll_usb.c **** 
 3274              		.loc 1 255 3 is_stmt 1 view .LVU1110
 3275              	.LVL247:
 257:Drivers/STM32H7xx_HAL_Driver/Src/stm32h7xx_ll_usb.c **** 
 3276              		.loc 1 257 3 view .LVU1111
 257:Drivers/STM32H7xx_HAL_Driver/Src/stm32h7xx_ll_usb.c **** 
 3277              		.loc 1 257 7 is_stmt 0 view .LVU1112
 3278 0004 C368     		ldr	r3, [r0, #12]
 257:Drivers/STM32H7xx_HAL_Driver/Src/stm32h7xx_ll_usb.c **** 
 3279              		.loc 1 257 17 view .LVU1113
 3280 0006 23F0C043 		bic	r3, r3, #1610612736
 3281 000a C360     		str	r3, [r0, #12]
 259:Drivers/STM32H7xx_HAL_Driver/Src/stm32h7xx_ll_usb.c ****   {
 3282              		.loc 1 259 3 is_stmt 1 view .LVU1114
 259:Drivers/STM32H7xx_HAL_Driver/Src/stm32h7xx_ll_usb.c ****   {
 3283              		.loc 1 259 6 is_stmt 0 view .LVU1115
 3284 000c 0129     		cmp	r1, #1
 3285 000e 13D0     		beq	.L213
 269:Drivers/STM32H7xx_HAL_Driver/Src/stm32h7xx_ll_usb.c ****   {
 3286              		.loc 1 269 8 is_stmt 1 view .LVU1116
 269:Drivers/STM32H7xx_HAL_Driver/Src/stm32h7xx_ll_usb.c ****   {
 3287              		.loc 1 269 11 is_stmt 0 view .LVU1117
 3288 0010 19BB     		cbnz	r1, .L210
 271:Drivers/STM32H7xx_HAL_Driver/Src/stm32h7xx_ll_usb.c **** 
 3289              		.loc 1 271 5 is_stmt 1 view .LVU1118
 271:Drivers/STM32H7xx_HAL_Driver/Src/stm32h7xx_ll_usb.c **** 
 3290              		.loc 1 271 9 is_stmt 0 view .LVU1119
 3291 0012 C368     		ldr	r3, [r0, #12]
 271:Drivers/STM32H7xx_HAL_Driver/Src/stm32h7xx_ll_usb.c **** 
 3292              		.loc 1 271 19 view .LVU1120
 3293 0014 43F08043 		orr	r3, r3, #1073741824
 3294 0018 C360     		str	r3, [r0, #12]
 255:Drivers/STM32H7xx_HAL_Driver/Src/stm32h7xx_ll_usb.c **** 
 3295              		.loc 1 255 12 view .LVU1121
 3296 001a 0C46     		mov	r4, r1
 3297              	.LVL248:
 3298              	.L209:
 273:Drivers/STM32H7xx_HAL_Driver/Src/stm32h7xx_ll_usb.c ****     {
 3299              		.loc 1 273 5 is_stmt 1 view .LVU1122
 275:Drivers/STM32H7xx_HAL_Driver/Src/stm32h7xx_ll_usb.c ****       ms += 10U;
 3300              		.loc 1 275 7 view .LVU1123
 3301 001c 0A20     		movs	r0, #10
 3302 001e FFF7FEFF 		bl	HAL_Delay
 3303              	.LVL249:
 276:Drivers/STM32H7xx_HAL_Driver/Src/stm32h7xx_ll_usb.c ****     } while ((USB_GetMode(USBx) != (uint32_t)USB_DEVICE_MODE) && (ms < HAL_USB_CURRENT_MODE_MAX_DEL
 3304              		.loc 1 276 7 view .LVU1124
 276:Drivers/STM32H7xx_HAL_Driver/Src/stm32h7xx_ll_usb.c ****     } while ((USB_GetMode(USBx) != (uint32_t)USB_DEVICE_MODE) && (ms < HAL_USB_CURRENT_MODE_MAX_DEL
 3305              		.loc 1 276 10 is_stmt 0 view .LVU1125
 3306 0022 0A34     		adds	r4, r4, #10
 3307              	.LVL250:
 277:Drivers/STM32H7xx_HAL_Driver/Src/stm32h7xx_ll_usb.c ****   }
 3308              		.loc 1 277 63 is_stmt 1 discriminator 3 view .LVU1126
 277:Drivers/STM32H7xx_HAL_Driver/Src/stm32h7xx_ll_usb.c ****   }
 3309              		.loc 1 277 15 is_stmt 0 discriminator 3 view .LVU1127
ARM GAS  C:\Users\ADMINI~1\AppData\Local\Temp\cceMOlfx.s 			page 102


 3310 0024 2846     		mov	r0, r5
 3311 0026 FFF7FEFF 		bl	USB_GetMode
 3312              	.LVL251:
 277:Drivers/STM32H7xx_HAL_Driver/Src/stm32h7xx_ll_usb.c ****   }
 3313              		.loc 1 277 63 discriminator 3 view .LVU1128
 3314 002a 08B1     		cbz	r0, .L206
 277:Drivers/STM32H7xx_HAL_Driver/Src/stm32h7xx_ll_usb.c ****   }
 3315              		.loc 1 277 63 discriminator 2 view .LVU1129
 3316 002c C72C     		cmp	r4, #199
 3317 002e F5D9     		bls	.L209
 3318              	.L206:
 284:Drivers/STM32H7xx_HAL_Driver/Src/stm32h7xx_ll_usb.c ****   {
 3319              		.loc 1 284 3 is_stmt 1 view .LVU1130
 284:Drivers/STM32H7xx_HAL_Driver/Src/stm32h7xx_ll_usb.c ****   {
 3320              		.loc 1 284 6 is_stmt 0 view .LVU1131
 3321 0030 C82C     		cmp	r4, #200
 3322 0032 14D0     		beq	.L211
 289:Drivers/STM32H7xx_HAL_Driver/Src/stm32h7xx_ll_usb.c **** }
 3323              		.loc 1 289 10 view .LVU1132
 3324 0034 0020     		movs	r0, #0
 3325              	.LVL252:
 3326              	.L208:
 290:Drivers/STM32H7xx_HAL_Driver/Src/stm32h7xx_ll_usb.c **** 
 3327              		.loc 1 290 1 view .LVU1133
 3328 0036 38BD     		pop	{r3, r4, r5, pc}
 3329              	.LVL253:
 3330              	.L213:
 261:Drivers/STM32H7xx_HAL_Driver/Src/stm32h7xx_ll_usb.c **** 
 3331              		.loc 1 261 5 is_stmt 1 view .LVU1134
 261:Drivers/STM32H7xx_HAL_Driver/Src/stm32h7xx_ll_usb.c **** 
 3332              		.loc 1 261 9 is_stmt 0 view .LVU1135
 3333 0038 C368     		ldr	r3, [r0, #12]
 261:Drivers/STM32H7xx_HAL_Driver/Src/stm32h7xx_ll_usb.c **** 
 3334              		.loc 1 261 19 view .LVU1136
 3335 003a 43F00053 		orr	r3, r3, #536870912
 3336 003e C360     		str	r3, [r0, #12]
 255:Drivers/STM32H7xx_HAL_Driver/Src/stm32h7xx_ll_usb.c **** 
 3337              		.loc 1 255 12 view .LVU1137
 3338 0040 0024     		movs	r4, #0
 3339              	.LVL254:
 3340              	.L207:
 263:Drivers/STM32H7xx_HAL_Driver/Src/stm32h7xx_ll_usb.c ****     {
 3341              		.loc 1 263 5 is_stmt 1 view .LVU1138
 265:Drivers/STM32H7xx_HAL_Driver/Src/stm32h7xx_ll_usb.c ****       ms += 10U;
 3342              		.loc 1 265 7 view .LVU1139
 3343 0042 0A20     		movs	r0, #10
 3344 0044 FFF7FEFF 		bl	HAL_Delay
 3345              	.LVL255:
 266:Drivers/STM32H7xx_HAL_Driver/Src/stm32h7xx_ll_usb.c ****     } while ((USB_GetMode(USBx) != (uint32_t)USB_HOST_MODE) && (ms < HAL_USB_CURRENT_MODE_MAX_DELAY
 3346              		.loc 1 266 7 view .LVU1140
 266:Drivers/STM32H7xx_HAL_Driver/Src/stm32h7xx_ll_usb.c ****     } while ((USB_GetMode(USBx) != (uint32_t)USB_HOST_MODE) && (ms < HAL_USB_CURRENT_MODE_MAX_DELAY
 3347              		.loc 1 266 10 is_stmt 0 view .LVU1141
 3348 0048 0A34     		adds	r4, r4, #10
 3349              	.LVL256:
 267:Drivers/STM32H7xx_HAL_Driver/Src/stm32h7xx_ll_usb.c ****   }
 3350              		.loc 1 267 61 is_stmt 1 discriminator 3 view .LVU1142
 267:Drivers/STM32H7xx_HAL_Driver/Src/stm32h7xx_ll_usb.c ****   }
ARM GAS  C:\Users\ADMINI~1\AppData\Local\Temp\cceMOlfx.s 			page 103


 3351              		.loc 1 267 15 is_stmt 0 discriminator 3 view .LVU1143
 3352 004a 2846     		mov	r0, r5
 3353 004c FFF7FEFF 		bl	USB_GetMode
 3354              	.LVL257:
 267:Drivers/STM32H7xx_HAL_Driver/Src/stm32h7xx_ll_usb.c ****   }
 3355              		.loc 1 267 61 discriminator 3 view .LVU1144
 3356 0050 0128     		cmp	r0, #1
 3357 0052 EDD0     		beq	.L206
 267:Drivers/STM32H7xx_HAL_Driver/Src/stm32h7xx_ll_usb.c ****   }
 3358              		.loc 1 267 61 discriminator 2 view .LVU1145
 3359 0054 C72C     		cmp	r4, #199
 3360 0056 F4D9     		bls	.L207
 3361 0058 EAE7     		b	.L206
 3362              	.LVL258:
 3363              	.L210:
 281:Drivers/STM32H7xx_HAL_Driver/Src/stm32h7xx_ll_usb.c ****   }
 3364              		.loc 1 281 12 view .LVU1146
 3365 005a 0120     		movs	r0, #1
 3366              	.LVL259:
 281:Drivers/STM32H7xx_HAL_Driver/Src/stm32h7xx_ll_usb.c ****   }
 3367              		.loc 1 281 12 view .LVU1147
 3368 005c EBE7     		b	.L208
 3369              	.LVL260:
 3370              	.L211:
 286:Drivers/STM32H7xx_HAL_Driver/Src/stm32h7xx_ll_usb.c ****   }
 3371              		.loc 1 286 12 view .LVU1148
 3372 005e 0120     		movs	r0, #1
 3373 0060 E9E7     		b	.L208
 3374              		.cfi_endproc
 3375              	.LFE354:
 3377              		.section	.text.USB_ActivateSetup,"ax",%progbits
 3378              		.align	1
 3379              		.global	USB_ActivateSetup
 3380              		.syntax unified
 3381              		.thumb
 3382              		.thumb_func
 3384              	USB_ActivateSetup:
 3385              	.LVL261:
 3386              	.LFB382:
1331:Drivers/STM32H7xx_HAL_Driver/Src/stm32h7xx_ll_usb.c ****   uint32_t USBx_BASE = (uint32_t)USBx;
 3387              		.loc 1 1331 1 is_stmt 1 view -0
 3388              		.cfi_startproc
 3389              		@ args = 0, pretend = 0, frame = 0
 3390              		@ frame_needed = 0, uses_anonymous_args = 0
 3391              		@ link register save eliminated.
1332:Drivers/STM32H7xx_HAL_Driver/Src/stm32h7xx_ll_usb.c **** 
 3392              		.loc 1 1332 3 view .LVU1150
1335:Drivers/STM32H7xx_HAL_Driver/Src/stm32h7xx_ll_usb.c **** 
 3393              		.loc 1 1335 3 view .LVU1151
1335:Drivers/STM32H7xx_HAL_Driver/Src/stm32h7xx_ll_usb.c **** 
 3394              		.loc 1 1335 16 is_stmt 0 view .LVU1152
 3395 0000 D0F80039 		ldr	r3, [r0, #2304]
1335:Drivers/STM32H7xx_HAL_Driver/Src/stm32h7xx_ll_usb.c **** 
 3396              		.loc 1 1335 26 view .LVU1153
 3397 0004 6FF30A03 		bfc	r3, #0, #11
 3398 0008 C0F80039 		str	r3, [r0, #2304]
1337:Drivers/STM32H7xx_HAL_Driver/Src/stm32h7xx_ll_usb.c **** 
ARM GAS  C:\Users\ADMINI~1\AppData\Local\Temp\cceMOlfx.s 			page 104


 3399              		.loc 1 1337 3 is_stmt 1 view .LVU1154
1337:Drivers/STM32H7xx_HAL_Driver/Src/stm32h7xx_ll_usb.c **** 
 3400              		.loc 1 1337 14 is_stmt 0 view .LVU1155
 3401 000c D0F80438 		ldr	r3, [r0, #2052]
1337:Drivers/STM32H7xx_HAL_Driver/Src/stm32h7xx_ll_usb.c **** 
 3402              		.loc 1 1337 21 view .LVU1156
 3403 0010 43F48073 		orr	r3, r3, #256
 3404 0014 C0F80438 		str	r3, [r0, #2052]
1339:Drivers/STM32H7xx_HAL_Driver/Src/stm32h7xx_ll_usb.c **** }
 3405              		.loc 1 1339 3 is_stmt 1 view .LVU1157
1340:Drivers/STM32H7xx_HAL_Driver/Src/stm32h7xx_ll_usb.c **** 
 3406              		.loc 1 1340 1 is_stmt 0 view .LVU1158
 3407 0018 0020     		movs	r0, #0
 3408              	.LVL262:
1340:Drivers/STM32H7xx_HAL_Driver/Src/stm32h7xx_ll_usb.c **** 
 3409              		.loc 1 1340 1 view .LVU1159
 3410 001a 7047     		bx	lr
 3411              		.cfi_endproc
 3412              	.LFE382:
 3414              		.section	.text.USB_EP0_OutStart,"ax",%progbits
 3415              		.align	1
 3416              		.global	USB_EP0_OutStart
 3417              		.syntax unified
 3418              		.thumb
 3419              		.thumb_func
 3421              	USB_EP0_OutStart:
 3422              	.LVL263:
 3423              	.LFB383:
1353:Drivers/STM32H7xx_HAL_Driver/Src/stm32h7xx_ll_usb.c ****   uint32_t USBx_BASE = (uint32_t)USBx;
 3424              		.loc 1 1353 1 is_stmt 1 view -0
 3425              		.cfi_startproc
 3426              		@ args = 0, pretend = 0, frame = 0
 3427              		@ frame_needed = 0, uses_anonymous_args = 0
 3428              		@ link register save eliminated.
1353:Drivers/STM32H7xx_HAL_Driver/Src/stm32h7xx_ll_usb.c ****   uint32_t USBx_BASE = (uint32_t)USBx;
 3429              		.loc 1 1353 1 is_stmt 0 view .LVU1161
 3430 0000 8C46     		mov	ip, r1
1354:Drivers/STM32H7xx_HAL_Driver/Src/stm32h7xx_ll_usb.c ****   uint32_t gSNPSiD = *(__IO const uint32_t *)(&USBx->CID + 0x1U);
 3431              		.loc 1 1354 3 is_stmt 1 view .LVU1162
 3432              	.LVL264:
1355:Drivers/STM32H7xx_HAL_Driver/Src/stm32h7xx_ll_usb.c **** 
 3433              		.loc 1 1355 3 view .LVU1163
1355:Drivers/STM32H7xx_HAL_Driver/Src/stm32h7xx_ll_usb.c **** 
 3434              		.loc 1 1355 12 is_stmt 0 view .LVU1164
 3435 0002 016C     		ldr	r1, [r0, #64]
 3436              	.LVL265:
1357:Drivers/STM32H7xx_HAL_Driver/Src/stm32h7xx_ll_usb.c ****   {
 3437              		.loc 1 1357 3 is_stmt 1 view .LVU1165
1357:Drivers/STM32H7xx_HAL_Driver/Src/stm32h7xx_ll_usb.c ****   {
 3438              		.loc 1 1357 6 is_stmt 0 view .LVU1166
 3439 0004 144B     		ldr	r3, .L219
 3440 0006 9942     		cmp	r1, r3
 3441 0008 03D9     		bls	.L216
1359:Drivers/STM32H7xx_HAL_Driver/Src/stm32h7xx_ll_usb.c ****     {
 3442              		.loc 1 1359 5 is_stmt 1 view .LVU1167
1359:Drivers/STM32H7xx_HAL_Driver/Src/stm32h7xx_ll_usb.c ****     {
 3443              		.loc 1 1359 24 is_stmt 0 view .LVU1168
ARM GAS  C:\Users\ADMINI~1\AppData\Local\Temp\cceMOlfx.s 			page 105


 3444 000a D0F8003B 		ldr	r3, [r0, #2816]
1359:Drivers/STM32H7xx_HAL_Driver/Src/stm32h7xx_ll_usb.c ****     {
 3445              		.loc 1 1359 8 view .LVU1169
 3446 000e 002B     		cmp	r3, #0
 3447 0010 17DB     		blt	.L217
 3448              	.L216:
1365:Drivers/STM32H7xx_HAL_Driver/Src/stm32h7xx_ll_usb.c ****   USBx_OUTEP(0U)->DOEPTSIZ |= (USB_OTG_DOEPTSIZ_PKTCNT & (1U << 19));
 3449              		.loc 1 1365 3 is_stmt 1 view .LVU1170
1365:Drivers/STM32H7xx_HAL_Driver/Src/stm32h7xx_ll_usb.c ****   USBx_OUTEP(0U)->DOEPTSIZ |= (USB_OTG_DOEPTSIZ_PKTCNT & (1U << 19));
 3450              		.loc 1 1365 28 is_stmt 0 view .LVU1171
 3451 0012 0021     		movs	r1, #0
 3452              	.LVL266:
1365:Drivers/STM32H7xx_HAL_Driver/Src/stm32h7xx_ll_usb.c ****   USBx_OUTEP(0U)->DOEPTSIZ |= (USB_OTG_DOEPTSIZ_PKTCNT & (1U << 19));
 3453              		.loc 1 1365 28 view .LVU1172
 3454 0014 C0F8101B 		str	r1, [r0, #2832]
1366:Drivers/STM32H7xx_HAL_Driver/Src/stm32h7xx_ll_usb.c ****   USBx_OUTEP(0U)->DOEPTSIZ |= (3U * 8U);
 3455              		.loc 1 1366 3 is_stmt 1 view .LVU1173
1366:Drivers/STM32H7xx_HAL_Driver/Src/stm32h7xx_ll_usb.c ****   USBx_OUTEP(0U)->DOEPTSIZ |= (3U * 8U);
 3456              		.loc 1 1366 17 is_stmt 0 view .LVU1174
 3457 0018 D0F8101B 		ldr	r1, [r0, #2832]
1366:Drivers/STM32H7xx_HAL_Driver/Src/stm32h7xx_ll_usb.c ****   USBx_OUTEP(0U)->DOEPTSIZ |= (3U * 8U);
 3458              		.loc 1 1366 28 view .LVU1175
 3459 001c 41F40021 		orr	r1, r1, #524288
 3460 0020 C0F8101B 		str	r1, [r0, #2832]
1367:Drivers/STM32H7xx_HAL_Driver/Src/stm32h7xx_ll_usb.c ****   USBx_OUTEP(0U)->DOEPTSIZ |=  USB_OTG_DOEPTSIZ_STUPCNT;
 3461              		.loc 1 1367 3 is_stmt 1 view .LVU1176
1367:Drivers/STM32H7xx_HAL_Driver/Src/stm32h7xx_ll_usb.c ****   USBx_OUTEP(0U)->DOEPTSIZ |=  USB_OTG_DOEPTSIZ_STUPCNT;
 3462              		.loc 1 1367 17 is_stmt 0 view .LVU1177
 3463 0024 D0F8101B 		ldr	r1, [r0, #2832]
1367:Drivers/STM32H7xx_HAL_Driver/Src/stm32h7xx_ll_usb.c ****   USBx_OUTEP(0U)->DOEPTSIZ |=  USB_OTG_DOEPTSIZ_STUPCNT;
 3464              		.loc 1 1367 28 view .LVU1178
 3465 0028 41F01801 		orr	r1, r1, #24
 3466 002c C0F8101B 		str	r1, [r0, #2832]
1368:Drivers/STM32H7xx_HAL_Driver/Src/stm32h7xx_ll_usb.c **** 
 3467              		.loc 1 1368 3 is_stmt 1 view .LVU1179
1368:Drivers/STM32H7xx_HAL_Driver/Src/stm32h7xx_ll_usb.c **** 
 3468              		.loc 1 1368 17 is_stmt 0 view .LVU1180
 3469 0030 D0F8101B 		ldr	r1, [r0, #2832]
1368:Drivers/STM32H7xx_HAL_Driver/Src/stm32h7xx_ll_usb.c **** 
 3470              		.loc 1 1368 28 view .LVU1181
 3471 0034 41F0C041 		orr	r1, r1, #1610612736
 3472 0038 C0F8101B 		str	r1, [r0, #2832]
1370:Drivers/STM32H7xx_HAL_Driver/Src/stm32h7xx_ll_usb.c ****   {
 3473              		.loc 1 1370 3 is_stmt 1 view .LVU1182
1370:Drivers/STM32H7xx_HAL_Driver/Src/stm32h7xx_ll_usb.c ****   {
 3474              		.loc 1 1370 6 is_stmt 0 view .LVU1183
 3475 003c BCF1010F 		cmp	ip, #1
 3476 0040 01D0     		beq	.L218
 3477              	.L217:
1378:Drivers/STM32H7xx_HAL_Driver/Src/stm32h7xx_ll_usb.c **** 
 3478              		.loc 1 1378 1 view .LVU1184
 3479 0042 0020     		movs	r0, #0
 3480              	.LVL267:
1378:Drivers/STM32H7xx_HAL_Driver/Src/stm32h7xx_ll_usb.c **** 
 3481              		.loc 1 1378 1 view .LVU1185
 3482 0044 7047     		bx	lr
 3483              	.LVL268:
ARM GAS  C:\Users\ADMINI~1\AppData\Local\Temp\cceMOlfx.s 			page 106


 3484              	.L218:
1372:Drivers/STM32H7xx_HAL_Driver/Src/stm32h7xx_ll_usb.c ****     /* EP enable */
 3485              		.loc 1 1372 5 is_stmt 1 view .LVU1186
1372:Drivers/STM32H7xx_HAL_Driver/Src/stm32h7xx_ll_usb.c ****     /* EP enable */
 3486              		.loc 1 1372 29 is_stmt 0 view .LVU1187
 3487 0046 C0F8142B 		str	r2, [r0, #2836]
1374:Drivers/STM32H7xx_HAL_Driver/Src/stm32h7xx_ll_usb.c ****   }
 3488              		.loc 1 1374 5 is_stmt 1 view .LVU1188
1374:Drivers/STM32H7xx_HAL_Driver/Src/stm32h7xx_ll_usb.c ****   }
 3489              		.loc 1 1374 19 is_stmt 0 view .LVU1189
 3490 004a D0F8003B 		ldr	r3, [r0, #2816]
1374:Drivers/STM32H7xx_HAL_Driver/Src/stm32h7xx_ll_usb.c ****   }
 3491              		.loc 1 1374 29 view .LVU1190
 3492 004e 43F08023 		orr	r3, r3, #-2147450880
 3493 0052 C0F8003B 		str	r3, [r0, #2816]
 3494 0056 F4E7     		b	.L217
 3495              	.L220:
 3496              		.align	2
 3497              	.L219:
 3498 0058 0A30544F 		.word	1330917386
 3499              		.cfi_endproc
 3500              	.LFE383:
 3502              		.section	.text.USB_HostInit,"ax",%progbits
 3503              		.align	1
 3504              		.global	USB_HostInit
 3505              		.syntax unified
 3506              		.thumb
 3507              		.thumb_func
 3509              	USB_HostInit:
 3510              	.LVL269:
 3511              	.LFB385:
1416:Drivers/STM32H7xx_HAL_Driver/Src/stm32h7xx_ll_usb.c **** 
1417:Drivers/STM32H7xx_HAL_Driver/Src/stm32h7xx_ll_usb.c **** /**
1418:Drivers/STM32H7xx_HAL_Driver/Src/stm32h7xx_ll_usb.c ****   * @brief  USB_HostInit : Initializes the USB OTG controller registers
1419:Drivers/STM32H7xx_HAL_Driver/Src/stm32h7xx_ll_usb.c ****   *         for Host mode
1420:Drivers/STM32H7xx_HAL_Driver/Src/stm32h7xx_ll_usb.c ****   * @param  USBx  Selected device
1421:Drivers/STM32H7xx_HAL_Driver/Src/stm32h7xx_ll_usb.c ****   * @param  cfg   pointer to a USB_OTG_CfgTypeDef structure that contains
1422:Drivers/STM32H7xx_HAL_Driver/Src/stm32h7xx_ll_usb.c ****   *         the configuration information for the specified USBx peripheral.
1423:Drivers/STM32H7xx_HAL_Driver/Src/stm32h7xx_ll_usb.c ****   * @retval HAL status
1424:Drivers/STM32H7xx_HAL_Driver/Src/stm32h7xx_ll_usb.c ****   */
1425:Drivers/STM32H7xx_HAL_Driver/Src/stm32h7xx_ll_usb.c **** HAL_StatusTypeDef USB_HostInit(USB_OTG_GlobalTypeDef *USBx, USB_OTG_CfgTypeDef cfg)
1426:Drivers/STM32H7xx_HAL_Driver/Src/stm32h7xx_ll_usb.c **** {
 3512              		.loc 1 1426 1 is_stmt 1 view -0
 3513              		.cfi_startproc
 3514              		@ args = 20, pretend = 16, frame = 0
 3515              		@ frame_needed = 0, uses_anonymous_args = 0
 3516              		.loc 1 1426 1 is_stmt 0 view .LVU1192
 3517 0000 84B0     		sub	sp, sp, #16
 3518              	.LCFI33:
 3519              		.cfi_def_cfa_offset 16
 3520 0002 38B5     		push	{r3, r4, r5, lr}
 3521              	.LCFI34:
 3522              		.cfi_def_cfa_offset 32
 3523              		.cfi_offset 3, -32
 3524              		.cfi_offset 4, -28
 3525              		.cfi_offset 5, -24
 3526              		.cfi_offset 14, -20
ARM GAS  C:\Users\ADMINI~1\AppData\Local\Temp\cceMOlfx.s 			page 107


 3527 0004 0446     		mov	r4, r0
 3528 0006 05A8     		add	r0, sp, #20
 3529              	.LVL270:
 3530              		.loc 1 1426 1 view .LVU1193
 3531 0008 80E80E00 		stm	r0, {r1, r2, r3}
1427:Drivers/STM32H7xx_HAL_Driver/Src/stm32h7xx_ll_usb.c ****   HAL_StatusTypeDef ret = HAL_OK;
 3532              		.loc 1 1427 3 is_stmt 1 view .LVU1194
 3533              	.LVL271:
1428:Drivers/STM32H7xx_HAL_Driver/Src/stm32h7xx_ll_usb.c ****   uint32_t USBx_BASE = (uint32_t)USBx;
 3534              		.loc 1 1428 3 view .LVU1195
1429:Drivers/STM32H7xx_HAL_Driver/Src/stm32h7xx_ll_usb.c ****   uint32_t i;
 3535              		.loc 1 1429 3 view .LVU1196
1430:Drivers/STM32H7xx_HAL_Driver/Src/stm32h7xx_ll_usb.c **** 
1431:Drivers/STM32H7xx_HAL_Driver/Src/stm32h7xx_ll_usb.c ****   /* Restart the Phy Clock */
1432:Drivers/STM32H7xx_HAL_Driver/Src/stm32h7xx_ll_usb.c ****   USBx_PCGCCTL = 0U;
 3536              		.loc 1 1432 3 view .LVU1197
 3537              		.loc 1 1432 16 is_stmt 0 view .LVU1198
 3538 000c 0023     		movs	r3, #0
 3539 000e C4F8003E 		str	r3, [r4, #3584]
1433:Drivers/STM32H7xx_HAL_Driver/Src/stm32h7xx_ll_usb.c **** 
1434:Drivers/STM32H7xx_HAL_Driver/Src/stm32h7xx_ll_usb.c ****   /* Disable VBUS sensing */
1435:Drivers/STM32H7xx_HAL_Driver/Src/stm32h7xx_ll_usb.c ****   USBx->GCCFG &= ~(USB_OTG_GCCFG_VBDEN);
 3540              		.loc 1 1435 3 is_stmt 1 view .LVU1199
 3541              		.loc 1 1435 7 is_stmt 0 view .LVU1200
 3542 0012 A36B     		ldr	r3, [r4, #56]
 3543              		.loc 1 1435 15 view .LVU1201
 3544 0014 23F40013 		bic	r3, r3, #2097152
 3545 0018 A363     		str	r3, [r4, #56]
1436:Drivers/STM32H7xx_HAL_Driver/Src/stm32h7xx_ll_usb.c **** 
1437:Drivers/STM32H7xx_HAL_Driver/Src/stm32h7xx_ll_usb.c ****   /* Disable Battery chargin detector */
1438:Drivers/STM32H7xx_HAL_Driver/Src/stm32h7xx_ll_usb.c ****   USBx->GCCFG &= ~(USB_OTG_GCCFG_BCDEN);
 3546              		.loc 1 1438 3 is_stmt 1 view .LVU1202
 3547              		.loc 1 1438 7 is_stmt 0 view .LVU1203
 3548 001a A36B     		ldr	r3, [r4, #56]
 3549              		.loc 1 1438 15 view .LVU1204
 3550 001c 23F40033 		bic	r3, r3, #131072
 3551 0020 A363     		str	r3, [r4, #56]
1439:Drivers/STM32H7xx_HAL_Driver/Src/stm32h7xx_ll_usb.c **** 
1440:Drivers/STM32H7xx_HAL_Driver/Src/stm32h7xx_ll_usb.c **** 
1441:Drivers/STM32H7xx_HAL_Driver/Src/stm32h7xx_ll_usb.c ****   if ((USBx->GUSBCFG & USB_OTG_GUSBCFG_PHYSEL) == 0U)
 3552              		.loc 1 1441 3 is_stmt 1 view .LVU1205
 3553              		.loc 1 1441 12 is_stmt 0 view .LVU1206
 3554 0022 E368     		ldr	r3, [r4, #12]
 3555              		.loc 1 1441 6 view .LVU1207
 3556 0024 13F0400F 		tst	r3, #64
 3557 0028 11D1     		bne	.L222
1442:Drivers/STM32H7xx_HAL_Driver/Src/stm32h7xx_ll_usb.c ****   {
1443:Drivers/STM32H7xx_HAL_Driver/Src/stm32h7xx_ll_usb.c ****     if (cfg.speed == USBH_FSLS_SPEED)
 3558              		.loc 1 1443 5 is_stmt 1 view .LVU1208
 3559              		.loc 1 1443 12 is_stmt 0 view .LVU1209
 3560 002a 9DF81730 		ldrb	r3, [sp, #23]	@ zero_extendqisi2
 3561              		.loc 1 1443 8 view .LVU1210
 3562 002e 012B     		cmp	r3, #1
 3563 0030 06D0     		beq	.L233
1444:Drivers/STM32H7xx_HAL_Driver/Src/stm32h7xx_ll_usb.c ****     {
1445:Drivers/STM32H7xx_HAL_Driver/Src/stm32h7xx_ll_usb.c ****       /* Force Device Enumeration to FS/LS mode only */
1446:Drivers/STM32H7xx_HAL_Driver/Src/stm32h7xx_ll_usb.c ****       USBx_HOST->HCFG |= USB_OTG_HCFG_FSLSS;
ARM GAS  C:\Users\ADMINI~1\AppData\Local\Temp\cceMOlfx.s 			page 108


1447:Drivers/STM32H7xx_HAL_Driver/Src/stm32h7xx_ll_usb.c ****     }
1448:Drivers/STM32H7xx_HAL_Driver/Src/stm32h7xx_ll_usb.c ****     else
1449:Drivers/STM32H7xx_HAL_Driver/Src/stm32h7xx_ll_usb.c ****     {
1450:Drivers/STM32H7xx_HAL_Driver/Src/stm32h7xx_ll_usb.c ****       /* Set default Max speed support */
1451:Drivers/STM32H7xx_HAL_Driver/Src/stm32h7xx_ll_usb.c ****       USBx_HOST->HCFG &= ~(USB_OTG_HCFG_FSLSS);
 3564              		.loc 1 1451 7 is_stmt 1 view .LVU1211
 3565              		.loc 1 1451 16 is_stmt 0 view .LVU1212
 3566 0032 D4F80034 		ldr	r3, [r4, #1024]
 3567              		.loc 1 1451 23 view .LVU1213
 3568 0036 23F00403 		bic	r3, r3, #4
 3569 003a C4F80034 		str	r3, [r4, #1024]
 3570 003e 0CE0     		b	.L224
 3571              	.L233:
1446:Drivers/STM32H7xx_HAL_Driver/Src/stm32h7xx_ll_usb.c ****     }
 3572              		.loc 1 1446 7 is_stmt 1 view .LVU1214
1446:Drivers/STM32H7xx_HAL_Driver/Src/stm32h7xx_ll_usb.c ****     }
 3573              		.loc 1 1446 16 is_stmt 0 view .LVU1215
 3574 0040 D4F80034 		ldr	r3, [r4, #1024]
1446:Drivers/STM32H7xx_HAL_Driver/Src/stm32h7xx_ll_usb.c ****     }
 3575              		.loc 1 1446 23 view .LVU1216
 3576 0044 43F00403 		orr	r3, r3, #4
 3577 0048 C4F80034 		str	r3, [r4, #1024]
 3578 004c 05E0     		b	.L224
 3579              	.L222:
1452:Drivers/STM32H7xx_HAL_Driver/Src/stm32h7xx_ll_usb.c ****     }
1453:Drivers/STM32H7xx_HAL_Driver/Src/stm32h7xx_ll_usb.c ****   }
1454:Drivers/STM32H7xx_HAL_Driver/Src/stm32h7xx_ll_usb.c ****   else
1455:Drivers/STM32H7xx_HAL_Driver/Src/stm32h7xx_ll_usb.c ****   {
1456:Drivers/STM32H7xx_HAL_Driver/Src/stm32h7xx_ll_usb.c ****     /* Set default Max speed support */
1457:Drivers/STM32H7xx_HAL_Driver/Src/stm32h7xx_ll_usb.c ****     USBx_HOST->HCFG &= ~(USB_OTG_HCFG_FSLSS);
 3580              		.loc 1 1457 5 is_stmt 1 view .LVU1217
 3581              		.loc 1 1457 14 is_stmt 0 view .LVU1218
 3582 004e D4F80034 		ldr	r3, [r4, #1024]
 3583              		.loc 1 1457 21 view .LVU1219
 3584 0052 23F00403 		bic	r3, r3, #4
 3585 0056 C4F80034 		str	r3, [r4, #1024]
 3586              	.L224:
1458:Drivers/STM32H7xx_HAL_Driver/Src/stm32h7xx_ll_usb.c ****   }
1459:Drivers/STM32H7xx_HAL_Driver/Src/stm32h7xx_ll_usb.c **** 
1460:Drivers/STM32H7xx_HAL_Driver/Src/stm32h7xx_ll_usb.c ****   /* Make sure the FIFOs are flushed. */
1461:Drivers/STM32H7xx_HAL_Driver/Src/stm32h7xx_ll_usb.c ****   if (USB_FlushTxFifo(USBx, 0x10U) != HAL_OK) /* all Tx FIFOs */
 3587              		.loc 1 1461 3 is_stmt 1 view .LVU1220
 3588              		.loc 1 1461 7 is_stmt 0 view .LVU1221
 3589 005a 1021     		movs	r1, #16
 3590 005c 2046     		mov	r0, r4
 3591 005e FFF7FEFF 		bl	USB_FlushTxFifo
 3592              	.LVL272:
 3593              		.loc 1 1461 6 discriminator 1 view .LVU1222
 3594 0062 0546     		mov	r5, r0
 3595 0064 08B1     		cbz	r0, .L225
1462:Drivers/STM32H7xx_HAL_Driver/Src/stm32h7xx_ll_usb.c ****   {
1463:Drivers/STM32H7xx_HAL_Driver/Src/stm32h7xx_ll_usb.c ****     ret = HAL_ERROR;
 3596              		.loc 1 1463 9 view .LVU1223
 3597 0066 0123     		movs	r3, #1
 3598 0068 1D46     		mov	r5, r3
 3599              	.L225:
 3600              	.LVL273:
ARM GAS  C:\Users\ADMINI~1\AppData\Local\Temp\cceMOlfx.s 			page 109


1464:Drivers/STM32H7xx_HAL_Driver/Src/stm32h7xx_ll_usb.c ****   }
1465:Drivers/STM32H7xx_HAL_Driver/Src/stm32h7xx_ll_usb.c **** 
1466:Drivers/STM32H7xx_HAL_Driver/Src/stm32h7xx_ll_usb.c ****   if (USB_FlushRxFifo(USBx) != HAL_OK)
 3601              		.loc 1 1466 3 is_stmt 1 view .LVU1224
 3602              		.loc 1 1466 7 is_stmt 0 view .LVU1225
 3603 006a 2046     		mov	r0, r4
 3604 006c FFF7FEFF 		bl	USB_FlushRxFifo
 3605              	.LVL274:
 3606              		.loc 1 1466 6 discriminator 1 view .LVU1226
 3607 0070 08B1     		cbz	r0, .L226
1467:Drivers/STM32H7xx_HAL_Driver/Src/stm32h7xx_ll_usb.c ****   {
1468:Drivers/STM32H7xx_HAL_Driver/Src/stm32h7xx_ll_usb.c ****     ret = HAL_ERROR;
 3608              		.loc 1 1468 9 view .LVU1227
 3609 0072 0123     		movs	r3, #1
 3610 0074 1D46     		mov	r5, r3
 3611              	.LVL275:
 3612              	.L226:
1469:Drivers/STM32H7xx_HAL_Driver/Src/stm32h7xx_ll_usb.c ****   }
1470:Drivers/STM32H7xx_HAL_Driver/Src/stm32h7xx_ll_usb.c **** 
1471:Drivers/STM32H7xx_HAL_Driver/Src/stm32h7xx_ll_usb.c ****   /* Clear all pending HC Interrupts */
1472:Drivers/STM32H7xx_HAL_Driver/Src/stm32h7xx_ll_usb.c ****   for (i = 0U; i < cfg.Host_channels; i++)
 3613              		.loc 1 1472 3 is_stmt 1 view .LVU1228
 3614              		.loc 1 1472 10 is_stmt 0 view .LVU1229
 3615 0076 0022     		movs	r2, #0
 3616              		.loc 1 1472 3 view .LVU1230
 3617 0078 09E0     		b	.L227
 3618              	.LVL276:
 3619              	.L228:
1473:Drivers/STM32H7xx_HAL_Driver/Src/stm32h7xx_ll_usb.c ****   {
1474:Drivers/STM32H7xx_HAL_Driver/Src/stm32h7xx_ll_usb.c ****     USBx_HC(i)->HCINT = CLEAR_INTERRUPT_MASK;
 3620              		.loc 1 1474 5 is_stmt 1 view .LVU1231
 3621 007a 04EB4213 		add	r3, r4, r2, lsl #5
 3622              		.loc 1 1474 23 is_stmt 0 view .LVU1232
 3623 007e 4FF0FF31 		mov	r1, #-1
 3624 0082 C3F80815 		str	r1, [r3, #1288]
1475:Drivers/STM32H7xx_HAL_Driver/Src/stm32h7xx_ll_usb.c ****     USBx_HC(i)->HCINTMSK = 0U;
 3625              		.loc 1 1475 5 is_stmt 1 view .LVU1233
 3626              		.loc 1 1475 26 is_stmt 0 view .LVU1234
 3627 0086 0021     		movs	r1, #0
 3628 0088 C3F80C15 		str	r1, [r3, #1292]
1472:Drivers/STM32H7xx_HAL_Driver/Src/stm32h7xx_ll_usb.c ****   {
 3629              		.loc 1 1472 40 is_stmt 1 discriminator 3 view .LVU1235
 3630 008c 0132     		adds	r2, r2, #1
 3631              	.LVL277:
 3632              	.L227:
1472:Drivers/STM32H7xx_HAL_Driver/Src/stm32h7xx_ll_usb.c ****   {
 3633              		.loc 1 1472 18 discriminator 1 view .LVU1236
1472:Drivers/STM32H7xx_HAL_Driver/Src/stm32h7xx_ll_usb.c ****   {
 3634              		.loc 1 1472 23 is_stmt 0 discriminator 1 view .LVU1237
 3635 008e 9DF81530 		ldrb	r3, [sp, #21]	@ zero_extendqisi2
1472:Drivers/STM32H7xx_HAL_Driver/Src/stm32h7xx_ll_usb.c ****   {
 3636              		.loc 1 1472 18 discriminator 1 view .LVU1238
 3637 0092 9342     		cmp	r3, r2
 3638 0094 F1D8     		bhi	.L228
1476:Drivers/STM32H7xx_HAL_Driver/Src/stm32h7xx_ll_usb.c ****   }
1477:Drivers/STM32H7xx_HAL_Driver/Src/stm32h7xx_ll_usb.c **** 
1478:Drivers/STM32H7xx_HAL_Driver/Src/stm32h7xx_ll_usb.c ****   /* Disable all interrupts. */
ARM GAS  C:\Users\ADMINI~1\AppData\Local\Temp\cceMOlfx.s 			page 110


1479:Drivers/STM32H7xx_HAL_Driver/Src/stm32h7xx_ll_usb.c ****   USBx->GINTMSK = 0U;
 3639              		.loc 1 1479 3 is_stmt 1 view .LVU1239
 3640              		.loc 1 1479 17 is_stmt 0 view .LVU1240
 3641 0096 0023     		movs	r3, #0
 3642 0098 A361     		str	r3, [r4, #24]
1480:Drivers/STM32H7xx_HAL_Driver/Src/stm32h7xx_ll_usb.c **** 
1481:Drivers/STM32H7xx_HAL_Driver/Src/stm32h7xx_ll_usb.c ****   /* Clear any pending interrupts */
1482:Drivers/STM32H7xx_HAL_Driver/Src/stm32h7xx_ll_usb.c ****   USBx->GINTSTS = CLEAR_INTERRUPT_MASK;
 3643              		.loc 1 1482 3 is_stmt 1 view .LVU1241
 3644              		.loc 1 1482 17 is_stmt 0 view .LVU1242
 3645 009a 4FF0FF33 		mov	r3, #-1
 3646 009e 6361     		str	r3, [r4, #20]
1483:Drivers/STM32H7xx_HAL_Driver/Src/stm32h7xx_ll_usb.c ****   /* set Rx FIFO size */
1484:Drivers/STM32H7xx_HAL_Driver/Src/stm32h7xx_ll_usb.c ****   USBx->GRXFSIZ  = 0x200U;
 3647              		.loc 1 1484 3 is_stmt 1 view .LVU1243
 3648              		.loc 1 1484 18 is_stmt 0 view .LVU1244
 3649 00a0 4FF40073 		mov	r3, #512
 3650 00a4 6362     		str	r3, [r4, #36]
1485:Drivers/STM32H7xx_HAL_Driver/Src/stm32h7xx_ll_usb.c ****   USBx->DIEPTXF0_HNPTXFSIZ = (uint32_t)(((0x100U << 16) & USB_OTG_NPTXFD) | 0x200U);
 3651              		.loc 1 1485 3 is_stmt 1 view .LVU1245
 3652              		.loc 1 1485 28 is_stmt 0 view .LVU1246
 3653 00a6 03F18073 		add	r3, r3, #16777216
 3654 00aa A362     		str	r3, [r4, #40]
1486:Drivers/STM32H7xx_HAL_Driver/Src/stm32h7xx_ll_usb.c ****   USBx->HPTXFSIZ = (uint32_t)(((0xE0U << 16) & USB_OTG_HPTXFSIZ_PTXFD) | 0x300U);
 3655              		.loc 1 1486 3 is_stmt 1 view .LVU1247
 3656              		.loc 1 1486 18 is_stmt 0 view .LVU1248
 3657 00ac 094B     		ldr	r3, .L234
 3658 00ae C4F80031 		str	r3, [r4, #256]
1487:Drivers/STM32H7xx_HAL_Driver/Src/stm32h7xx_ll_usb.c **** 
1488:Drivers/STM32H7xx_HAL_Driver/Src/stm32h7xx_ll_usb.c ****   /* Enable the common interrupts */
1489:Drivers/STM32H7xx_HAL_Driver/Src/stm32h7xx_ll_usb.c ****   if (cfg.dma_enable == 0U)
 3659              		.loc 1 1489 3 is_stmt 1 view .LVU1249
 3660              		.loc 1 1489 10 is_stmt 0 view .LVU1250
 3661 00b2 9DF81630 		ldrb	r3, [sp, #22]	@ zero_extendqisi2
 3662              		.loc 1 1489 6 view .LVU1251
 3663 00b6 1BB9     		cbnz	r3, .L229
1490:Drivers/STM32H7xx_HAL_Driver/Src/stm32h7xx_ll_usb.c ****   {
1491:Drivers/STM32H7xx_HAL_Driver/Src/stm32h7xx_ll_usb.c ****     USBx->GINTMSK |= USB_OTG_GINTMSK_RXFLVLM;
 3664              		.loc 1 1491 5 is_stmt 1 view .LVU1252
 3665              		.loc 1 1491 9 is_stmt 0 view .LVU1253
 3666 00b8 A369     		ldr	r3, [r4, #24]
 3667              		.loc 1 1491 19 view .LVU1254
 3668 00ba 43F01003 		orr	r3, r3, #16
 3669 00be A361     		str	r3, [r4, #24]
 3670              	.L229:
1492:Drivers/STM32H7xx_HAL_Driver/Src/stm32h7xx_ll_usb.c ****   }
1493:Drivers/STM32H7xx_HAL_Driver/Src/stm32h7xx_ll_usb.c **** 
1494:Drivers/STM32H7xx_HAL_Driver/Src/stm32h7xx_ll_usb.c ****   /* Enable interrupts matching to the Host mode ONLY */
1495:Drivers/STM32H7xx_HAL_Driver/Src/stm32h7xx_ll_usb.c ****   USBx->GINTMSK |= (USB_OTG_GINTMSK_PRTIM            | USB_OTG_GINTMSK_HCIM | \
 3671              		.loc 1 1495 3 is_stmt 1 view .LVU1255
 3672              		.loc 1 1495 7 is_stmt 0 view .LVU1256
 3673 00c0 A269     		ldr	r2, [r4, #24]
 3674              	.LVL278:
 3675              		.loc 1 1495 17 view .LVU1257
 3676 00c2 054B     		ldr	r3, .L234+4
 3677 00c4 1343     		orrs	r3, r3, r2
 3678 00c6 A361     		str	r3, [r4, #24]
ARM GAS  C:\Users\ADMINI~1\AppData\Local\Temp\cceMOlfx.s 			page 111


1496:Drivers/STM32H7xx_HAL_Driver/Src/stm32h7xx_ll_usb.c ****                     USB_OTG_GINTMSK_SOFM             | USB_OTG_GINTSTS_DISCINT | \
1497:Drivers/STM32H7xx_HAL_Driver/Src/stm32h7xx_ll_usb.c ****                     USB_OTG_GINTMSK_PXFRM_IISOOXFRM  | USB_OTG_GINTMSK_WUIM);
1498:Drivers/STM32H7xx_HAL_Driver/Src/stm32h7xx_ll_usb.c **** 
1499:Drivers/STM32H7xx_HAL_Driver/Src/stm32h7xx_ll_usb.c ****   return ret;
 3679              		.loc 1 1499 3 is_stmt 1 view .LVU1258
1500:Drivers/STM32H7xx_HAL_Driver/Src/stm32h7xx_ll_usb.c **** }
 3680              		.loc 1 1500 1 is_stmt 0 view .LVU1259
 3681 00c8 2846     		mov	r0, r5
 3682 00ca BDE83840 		pop	{r3, r4, r5, lr}
 3683              	.LCFI35:
 3684              		.cfi_restore 14
 3685              		.cfi_restore 5
 3686              		.cfi_restore 4
 3687              		.cfi_restore 3
 3688              		.cfi_def_cfa_offset 16
 3689              	.LVL279:
 3690              		.loc 1 1500 1 view .LVU1260
 3691 00ce 04B0     		add	sp, sp, #16
 3692              	.LCFI36:
 3693              		.cfi_def_cfa_offset 0
 3694 00d0 7047     		bx	lr
 3695              	.L235:
 3696 00d2 00BF     		.align	2
 3697              	.L234:
 3698 00d4 0003E000 		.word	14680832
 3699 00d8 080020A3 		.word	-1558183928
 3700              		.cfi_endproc
 3701              	.LFE385:
 3703              		.section	.text.USB_InitFSLSPClkSel,"ax",%progbits
 3704              		.align	1
 3705              		.global	USB_InitFSLSPClkSel
 3706              		.syntax unified
 3707              		.thumb
 3708              		.thumb_func
 3710              	USB_InitFSLSPClkSel:
 3711              	.LVL280:
 3712              	.LFB386:
1501:Drivers/STM32H7xx_HAL_Driver/Src/stm32h7xx_ll_usb.c **** 
1502:Drivers/STM32H7xx_HAL_Driver/Src/stm32h7xx_ll_usb.c **** /**
1503:Drivers/STM32H7xx_HAL_Driver/Src/stm32h7xx_ll_usb.c ****   * @brief  USB_InitFSLSPClkSel : Initializes the FSLSPClkSel field of the
1504:Drivers/STM32H7xx_HAL_Driver/Src/stm32h7xx_ll_usb.c ****   *         HCFG register on the PHY type and set the right frame interval
1505:Drivers/STM32H7xx_HAL_Driver/Src/stm32h7xx_ll_usb.c ****   * @param  USBx  Selected device
1506:Drivers/STM32H7xx_HAL_Driver/Src/stm32h7xx_ll_usb.c ****   * @param  freq  clock frequency
1507:Drivers/STM32H7xx_HAL_Driver/Src/stm32h7xx_ll_usb.c ****   *          This parameter can be one of these values:
1508:Drivers/STM32H7xx_HAL_Driver/Src/stm32h7xx_ll_usb.c ****   *           HCFG_48_MHZ : Full Speed 48 MHz Clock
1509:Drivers/STM32H7xx_HAL_Driver/Src/stm32h7xx_ll_usb.c ****   *           HCFG_6_MHZ : Low Speed 6 MHz Clock
1510:Drivers/STM32H7xx_HAL_Driver/Src/stm32h7xx_ll_usb.c ****   * @retval HAL status
1511:Drivers/STM32H7xx_HAL_Driver/Src/stm32h7xx_ll_usb.c ****   */
1512:Drivers/STM32H7xx_HAL_Driver/Src/stm32h7xx_ll_usb.c **** HAL_StatusTypeDef USB_InitFSLSPClkSel(const USB_OTG_GlobalTypeDef *USBx, uint8_t freq)
1513:Drivers/STM32H7xx_HAL_Driver/Src/stm32h7xx_ll_usb.c **** {
 3713              		.loc 1 1513 1 is_stmt 1 view -0
 3714              		.cfi_startproc
 3715              		@ args = 0, pretend = 0, frame = 0
 3716              		@ frame_needed = 0, uses_anonymous_args = 0
 3717              		@ link register save eliminated.
1514:Drivers/STM32H7xx_HAL_Driver/Src/stm32h7xx_ll_usb.c ****   uint32_t USBx_BASE = (uint32_t)USBx;
 3718              		.loc 1 1514 3 view .LVU1262
ARM GAS  C:\Users\ADMINI~1\AppData\Local\Temp\cceMOlfx.s 			page 112


1515:Drivers/STM32H7xx_HAL_Driver/Src/stm32h7xx_ll_usb.c **** 
1516:Drivers/STM32H7xx_HAL_Driver/Src/stm32h7xx_ll_usb.c ****   USBx_HOST->HCFG &= ~(USB_OTG_HCFG_FSLSPCS);
 3719              		.loc 1 1516 3 view .LVU1263
 3720              		.loc 1 1516 12 is_stmt 0 view .LVU1264
 3721 0000 00F5806C 		add	ip, r0, #1024
 3722 0004 D0F80034 		ldr	r3, [r0, #1024]
 3723              		.loc 1 1516 19 view .LVU1265
 3724 0008 23F00303 		bic	r3, r3, #3
 3725 000c C0F80034 		str	r3, [r0, #1024]
1517:Drivers/STM32H7xx_HAL_Driver/Src/stm32h7xx_ll_usb.c ****   USBx_HOST->HCFG |= (uint32_t)freq & USB_OTG_HCFG_FSLSPCS;
 3726              		.loc 1 1517 3 is_stmt 1 view .LVU1266
 3727              		.loc 1 1517 12 is_stmt 0 view .LVU1267
 3728 0010 D0F80034 		ldr	r3, [r0, #1024]
 3729              		.loc 1 1517 37 view .LVU1268
 3730 0014 01F00302 		and	r2, r1, #3
 3731              		.loc 1 1517 19 view .LVU1269
 3732 0018 1343     		orrs	r3, r3, r2
 3733 001a C0F80034 		str	r3, [r0, #1024]
1518:Drivers/STM32H7xx_HAL_Driver/Src/stm32h7xx_ll_usb.c **** 
1519:Drivers/STM32H7xx_HAL_Driver/Src/stm32h7xx_ll_usb.c ****   if (freq == HCFG_48_MHZ)
 3734              		.loc 1 1519 3 is_stmt 1 view .LVU1270
 3735              		.loc 1 1519 6 is_stmt 0 view .LVU1271
 3736 001e 0129     		cmp	r1, #1
 3737 0020 07D0     		beq	.L240
1520:Drivers/STM32H7xx_HAL_Driver/Src/stm32h7xx_ll_usb.c ****   {
1521:Drivers/STM32H7xx_HAL_Driver/Src/stm32h7xx_ll_usb.c ****     USBx_HOST->HFIR = HFIR_48_MHZ;
1522:Drivers/STM32H7xx_HAL_Driver/Src/stm32h7xx_ll_usb.c ****   }
1523:Drivers/STM32H7xx_HAL_Driver/Src/stm32h7xx_ll_usb.c ****   else if (freq == HCFG_6_MHZ)
 3738              		.loc 1 1523 8 is_stmt 1 view .LVU1272
 3739              		.loc 1 1523 11 is_stmt 0 view .LVU1273
 3740 0022 0229     		cmp	r1, #2
 3741 0024 0BD1     		bne	.L239
1524:Drivers/STM32H7xx_HAL_Driver/Src/stm32h7xx_ll_usb.c ****   {
1525:Drivers/STM32H7xx_HAL_Driver/Src/stm32h7xx_ll_usb.c ****     USBx_HOST->HFIR = HFIR_6_MHZ;
 3742              		.loc 1 1525 5 is_stmt 1 view .LVU1274
 3743              		.loc 1 1525 21 is_stmt 0 view .LVU1275
 3744 0026 41F27073 		movw	r3, #6000
 3745 002a CCF80430 		str	r3, [ip, #4]
1526:Drivers/STM32H7xx_HAL_Driver/Src/stm32h7xx_ll_usb.c ****   }
1527:Drivers/STM32H7xx_HAL_Driver/Src/stm32h7xx_ll_usb.c ****   else
1528:Drivers/STM32H7xx_HAL_Driver/Src/stm32h7xx_ll_usb.c ****   {
1529:Drivers/STM32H7xx_HAL_Driver/Src/stm32h7xx_ll_usb.c ****     return HAL_ERROR;
1530:Drivers/STM32H7xx_HAL_Driver/Src/stm32h7xx_ll_usb.c ****   }
1531:Drivers/STM32H7xx_HAL_Driver/Src/stm32h7xx_ll_usb.c **** 
1532:Drivers/STM32H7xx_HAL_Driver/Src/stm32h7xx_ll_usb.c ****   return HAL_OK;
 3746              		.loc 1 1532 10 view .LVU1276
 3747 002e 0020     		movs	r0, #0
 3748              	.LVL281:
 3749              		.loc 1 1532 10 view .LVU1277
 3750 0030 7047     		bx	lr
 3751              	.LVL282:
 3752              	.L240:
1521:Drivers/STM32H7xx_HAL_Driver/Src/stm32h7xx_ll_usb.c ****   }
 3753              		.loc 1 1521 5 is_stmt 1 view .LVU1278
1521:Drivers/STM32H7xx_HAL_Driver/Src/stm32h7xx_ll_usb.c ****   }
 3754              		.loc 1 1521 21 is_stmt 0 view .LVU1279
 3755 0032 4BF68033 		movw	r3, #48000
ARM GAS  C:\Users\ADMINI~1\AppData\Local\Temp\cceMOlfx.s 			page 113


 3756 0036 CCF80430 		str	r3, [ip, #4]
 3757              		.loc 1 1532 10 view .LVU1280
 3758 003a 0020     		movs	r0, #0
 3759              	.LVL283:
 3760              		.loc 1 1532 10 view .LVU1281
 3761 003c 7047     		bx	lr
 3762              	.LVL284:
 3763              	.L239:
1529:Drivers/STM32H7xx_HAL_Driver/Src/stm32h7xx_ll_usb.c ****   }
 3764              		.loc 1 1529 12 view .LVU1282
 3765 003e 0120     		movs	r0, #1
 3766              	.LVL285:
1533:Drivers/STM32H7xx_HAL_Driver/Src/stm32h7xx_ll_usb.c **** }
 3767              		.loc 1 1533 1 view .LVU1283
 3768 0040 7047     		bx	lr
 3769              		.cfi_endproc
 3770              	.LFE386:
 3772              		.section	.text.USB_ResetPort,"ax",%progbits
 3773              		.align	1
 3774              		.global	USB_ResetPort
 3775              		.syntax unified
 3776              		.thumb
 3777              		.thumb_func
 3779              	USB_ResetPort:
 3780              	.LVL286:
 3781              	.LFB387:
1534:Drivers/STM32H7xx_HAL_Driver/Src/stm32h7xx_ll_usb.c **** 
1535:Drivers/STM32H7xx_HAL_Driver/Src/stm32h7xx_ll_usb.c **** /**
1536:Drivers/STM32H7xx_HAL_Driver/Src/stm32h7xx_ll_usb.c ****   * @brief  USB_OTG_ResetPort : Reset Host Port
1537:Drivers/STM32H7xx_HAL_Driver/Src/stm32h7xx_ll_usb.c ****   * @param  USBx  Selected device
1538:Drivers/STM32H7xx_HAL_Driver/Src/stm32h7xx_ll_usb.c ****   * @retval HAL status
1539:Drivers/STM32H7xx_HAL_Driver/Src/stm32h7xx_ll_usb.c ****   * @note (1)The application must wait at least 10 ms
1540:Drivers/STM32H7xx_HAL_Driver/Src/stm32h7xx_ll_usb.c ****   *   before clearing the reset bit.
1541:Drivers/STM32H7xx_HAL_Driver/Src/stm32h7xx_ll_usb.c ****   */
1542:Drivers/STM32H7xx_HAL_Driver/Src/stm32h7xx_ll_usb.c **** HAL_StatusTypeDef USB_ResetPort(const USB_OTG_GlobalTypeDef *USBx)
1543:Drivers/STM32H7xx_HAL_Driver/Src/stm32h7xx_ll_usb.c **** {
 3782              		.loc 1 1543 1 is_stmt 1 view -0
 3783              		.cfi_startproc
 3784              		@ args = 0, pretend = 0, frame = 8
 3785              		@ frame_needed = 0, uses_anonymous_args = 0
 3786              		.loc 1 1543 1 is_stmt 0 view .LVU1285
 3787 0000 30B5     		push	{r4, r5, lr}
 3788              	.LCFI37:
 3789              		.cfi_def_cfa_offset 12
 3790              		.cfi_offset 4, -12
 3791              		.cfi_offset 5, -8
 3792              		.cfi_offset 14, -4
 3793 0002 83B0     		sub	sp, sp, #12
 3794              	.LCFI38:
 3795              		.cfi_def_cfa_offset 24
 3796 0004 0446     		mov	r4, r0
1544:Drivers/STM32H7xx_HAL_Driver/Src/stm32h7xx_ll_usb.c ****   uint32_t USBx_BASE = (uint32_t)USBx;
 3797              		.loc 1 1544 3 is_stmt 1 view .LVU1286
 3798              	.LVL287:
1545:Drivers/STM32H7xx_HAL_Driver/Src/stm32h7xx_ll_usb.c **** 
1546:Drivers/STM32H7xx_HAL_Driver/Src/stm32h7xx_ll_usb.c ****   __IO uint32_t hprt0 = 0U;
 3799              		.loc 1 1546 3 view .LVU1287
ARM GAS  C:\Users\ADMINI~1\AppData\Local\Temp\cceMOlfx.s 			page 114


 3800              		.loc 1 1546 17 is_stmt 0 view .LVU1288
 3801 0006 0025     		movs	r5, #0
 3802 0008 0195     		str	r5, [sp, #4]
1547:Drivers/STM32H7xx_HAL_Driver/Src/stm32h7xx_ll_usb.c **** 
1548:Drivers/STM32H7xx_HAL_Driver/Src/stm32h7xx_ll_usb.c ****   hprt0 = USBx_HPRT0;
 3803              		.loc 1 1548 3 is_stmt 1 view .LVU1289
 3804              		.loc 1 1548 11 is_stmt 0 view .LVU1290
 3805 000a D0F84034 		ldr	r3, [r0, #1088]
 3806              		.loc 1 1548 9 view .LVU1291
 3807 000e 0193     		str	r3, [sp, #4]
1549:Drivers/STM32H7xx_HAL_Driver/Src/stm32h7xx_ll_usb.c **** 
1550:Drivers/STM32H7xx_HAL_Driver/Src/stm32h7xx_ll_usb.c ****   hprt0 &= ~(USB_OTG_HPRT_PENA | USB_OTG_HPRT_PCDET |
 3808              		.loc 1 1550 3 is_stmt 1 view .LVU1292
 3809              		.loc 1 1550 9 is_stmt 0 view .LVU1293
 3810 0010 019B     		ldr	r3, [sp, #4]
 3811 0012 23F02E03 		bic	r3, r3, #46
 3812 0016 0193     		str	r3, [sp, #4]
1551:Drivers/STM32H7xx_HAL_Driver/Src/stm32h7xx_ll_usb.c ****              USB_OTG_HPRT_PENCHNG | USB_OTG_HPRT_POCCHNG);
1552:Drivers/STM32H7xx_HAL_Driver/Src/stm32h7xx_ll_usb.c **** 
1553:Drivers/STM32H7xx_HAL_Driver/Src/stm32h7xx_ll_usb.c ****   USBx_HPRT0 = (USB_OTG_HPRT_PRST | hprt0);
 3813              		.loc 1 1553 3 is_stmt 1 view .LVU1294
 3814              		.loc 1 1553 35 is_stmt 0 view .LVU1295
 3815 0018 019B     		ldr	r3, [sp, #4]
 3816 001a 43F48073 		orr	r3, r3, #256
 3817              		.loc 1 1553 14 view .LVU1296
 3818 001e C0F84034 		str	r3, [r0, #1088]
1554:Drivers/STM32H7xx_HAL_Driver/Src/stm32h7xx_ll_usb.c ****   HAL_Delay(100U);                                 /* See Note #1 */
 3819              		.loc 1 1554 3 is_stmt 1 view .LVU1297
 3820 0022 6420     		movs	r0, #100
 3821              	.LVL288:
 3822              		.loc 1 1554 3 is_stmt 0 view .LVU1298
 3823 0024 FFF7FEFF 		bl	HAL_Delay
 3824              	.LVL289:
1555:Drivers/STM32H7xx_HAL_Driver/Src/stm32h7xx_ll_usb.c ****   USBx_HPRT0 = ((~USB_OTG_HPRT_PRST) & hprt0);
 3825              		.loc 1 1555 3 is_stmt 1 view .LVU1299
 3826              		.loc 1 1555 38 is_stmt 0 view .LVU1300
 3827 0028 019B     		ldr	r3, [sp, #4]
 3828 002a 23F48073 		bic	r3, r3, #256
 3829              		.loc 1 1555 14 view .LVU1301
 3830 002e C4F84034 		str	r3, [r4, #1088]
1556:Drivers/STM32H7xx_HAL_Driver/Src/stm32h7xx_ll_usb.c ****   HAL_Delay(10U);
 3831              		.loc 1 1556 3 is_stmt 1 view .LVU1302
 3832 0032 0A20     		movs	r0, #10
 3833 0034 FFF7FEFF 		bl	HAL_Delay
 3834              	.LVL290:
1557:Drivers/STM32H7xx_HAL_Driver/Src/stm32h7xx_ll_usb.c **** 
1558:Drivers/STM32H7xx_HAL_Driver/Src/stm32h7xx_ll_usb.c ****   return HAL_OK;
 3835              		.loc 1 1558 3 view .LVU1303
1559:Drivers/STM32H7xx_HAL_Driver/Src/stm32h7xx_ll_usb.c **** }
 3836              		.loc 1 1559 1 is_stmt 0 view .LVU1304
 3837 0038 2846     		mov	r0, r5
 3838 003a 03B0     		add	sp, sp, #12
 3839              	.LCFI39:
 3840              		.cfi_def_cfa_offset 12
 3841              		@ sp needed
 3842 003c 30BD     		pop	{r4, r5, pc}
 3843              		.loc 1 1559 1 view .LVU1305
ARM GAS  C:\Users\ADMINI~1\AppData\Local\Temp\cceMOlfx.s 			page 115


 3844              		.cfi_endproc
 3845              	.LFE387:
 3847              		.section	.text.USB_DriveVbus,"ax",%progbits
 3848              		.align	1
 3849              		.global	USB_DriveVbus
 3850              		.syntax unified
 3851              		.thumb
 3852              		.thumb_func
 3854              	USB_DriveVbus:
 3855              	.LVL291:
 3856              	.LFB388:
1560:Drivers/STM32H7xx_HAL_Driver/Src/stm32h7xx_ll_usb.c **** 
1561:Drivers/STM32H7xx_HAL_Driver/Src/stm32h7xx_ll_usb.c **** /**
1562:Drivers/STM32H7xx_HAL_Driver/Src/stm32h7xx_ll_usb.c ****   * @brief  USB_DriveVbus : activate or de-activate vbus
1563:Drivers/STM32H7xx_HAL_Driver/Src/stm32h7xx_ll_usb.c ****   * @param  state  VBUS state
1564:Drivers/STM32H7xx_HAL_Driver/Src/stm32h7xx_ll_usb.c ****   *          This parameter can be one of these values:
1565:Drivers/STM32H7xx_HAL_Driver/Src/stm32h7xx_ll_usb.c ****   *           0 : Deactivate VBUS
1566:Drivers/STM32H7xx_HAL_Driver/Src/stm32h7xx_ll_usb.c ****   *           1 : Activate VBUS
1567:Drivers/STM32H7xx_HAL_Driver/Src/stm32h7xx_ll_usb.c ****   * @retval HAL status
1568:Drivers/STM32H7xx_HAL_Driver/Src/stm32h7xx_ll_usb.c ****   */
1569:Drivers/STM32H7xx_HAL_Driver/Src/stm32h7xx_ll_usb.c **** HAL_StatusTypeDef USB_DriveVbus(const USB_OTG_GlobalTypeDef *USBx, uint8_t state)
1570:Drivers/STM32H7xx_HAL_Driver/Src/stm32h7xx_ll_usb.c **** {
 3857              		.loc 1 1570 1 is_stmt 1 view -0
 3858              		.cfi_startproc
 3859              		@ args = 0, pretend = 0, frame = 8
 3860              		@ frame_needed = 0, uses_anonymous_args = 0
 3861              		@ link register save eliminated.
 3862              		.loc 1 1570 1 is_stmt 0 view .LVU1307
 3863 0000 82B0     		sub	sp, sp, #8
 3864              	.LCFI40:
 3865              		.cfi_def_cfa_offset 8
1571:Drivers/STM32H7xx_HAL_Driver/Src/stm32h7xx_ll_usb.c ****   uint32_t USBx_BASE = (uint32_t)USBx;
 3866              		.loc 1 1571 3 is_stmt 1 view .LVU1308
 3867              	.LVL292:
1572:Drivers/STM32H7xx_HAL_Driver/Src/stm32h7xx_ll_usb.c ****   __IO uint32_t hprt0 = 0U;
 3868              		.loc 1 1572 3 view .LVU1309
 3869              		.loc 1 1572 17 is_stmt 0 view .LVU1310
 3870 0002 0023     		movs	r3, #0
 3871 0004 0193     		str	r3, [sp, #4]
1573:Drivers/STM32H7xx_HAL_Driver/Src/stm32h7xx_ll_usb.c **** 
1574:Drivers/STM32H7xx_HAL_Driver/Src/stm32h7xx_ll_usb.c ****   hprt0 = USBx_HPRT0;
 3872              		.loc 1 1574 3 is_stmt 1 view .LVU1311
 3873              		.loc 1 1574 11 is_stmt 0 view .LVU1312
 3874 0006 D0F84034 		ldr	r3, [r0, #1088]
 3875              		.loc 1 1574 9 view .LVU1313
 3876 000a 0193     		str	r3, [sp, #4]
1575:Drivers/STM32H7xx_HAL_Driver/Src/stm32h7xx_ll_usb.c **** 
1576:Drivers/STM32H7xx_HAL_Driver/Src/stm32h7xx_ll_usb.c ****   hprt0 &= ~(USB_OTG_HPRT_PENA | USB_OTG_HPRT_PCDET |
 3877              		.loc 1 1576 3 is_stmt 1 view .LVU1314
 3878              		.loc 1 1576 9 is_stmt 0 view .LVU1315
 3879 000c 019B     		ldr	r3, [sp, #4]
 3880 000e 23F02E03 		bic	r3, r3, #46
 3881 0012 0193     		str	r3, [sp, #4]
1577:Drivers/STM32H7xx_HAL_Driver/Src/stm32h7xx_ll_usb.c ****              USB_OTG_HPRT_PENCHNG | USB_OTG_HPRT_POCCHNG);
1578:Drivers/STM32H7xx_HAL_Driver/Src/stm32h7xx_ll_usb.c **** 
1579:Drivers/STM32H7xx_HAL_Driver/Src/stm32h7xx_ll_usb.c ****   if (((hprt0 & USB_OTG_HPRT_PPWR) == 0U) && (state == 1U))
 3882              		.loc 1 1579 3 is_stmt 1 view .LVU1316
ARM GAS  C:\Users\ADMINI~1\AppData\Local\Temp\cceMOlfx.s 			page 116


 3883              		.loc 1 1579 15 is_stmt 0 view .LVU1317
 3884 0014 019B     		ldr	r3, [sp, #4]
 3885              		.loc 1 1579 6 view .LVU1318
 3886 0016 13F4805F 		tst	r3, #4096
 3887 001a 01D1     		bne	.L244
 3888              		.loc 1 1579 43 discriminator 1 view .LVU1319
 3889 001c 0129     		cmp	r1, #1
 3890 001e 0CD0     		beq	.L247
 3891              	.L244:
1580:Drivers/STM32H7xx_HAL_Driver/Src/stm32h7xx_ll_usb.c ****   {
1581:Drivers/STM32H7xx_HAL_Driver/Src/stm32h7xx_ll_usb.c ****     USBx_HPRT0 = (USB_OTG_HPRT_PPWR | hprt0);
1582:Drivers/STM32H7xx_HAL_Driver/Src/stm32h7xx_ll_usb.c ****   }
1583:Drivers/STM32H7xx_HAL_Driver/Src/stm32h7xx_ll_usb.c ****   if (((hprt0 & USB_OTG_HPRT_PPWR) == USB_OTG_HPRT_PPWR) && (state == 0U))
 3892              		.loc 1 1583 3 is_stmt 1 view .LVU1320
 3893              		.loc 1 1583 15 is_stmt 0 view .LVU1321
 3894 0020 019B     		ldr	r3, [sp, #4]
 3895              		.loc 1 1583 6 view .LVU1322
 3896 0022 13F4805F 		tst	r3, #4096
 3897 0026 05D0     		beq	.L245
 3898              		.loc 1 1583 58 discriminator 1 view .LVU1323
 3899 0028 21B9     		cbnz	r1, .L245
1584:Drivers/STM32H7xx_HAL_Driver/Src/stm32h7xx_ll_usb.c ****   {
1585:Drivers/STM32H7xx_HAL_Driver/Src/stm32h7xx_ll_usb.c ****     USBx_HPRT0 = ((~USB_OTG_HPRT_PPWR) & hprt0);
 3900              		.loc 1 1585 5 is_stmt 1 view .LVU1324
 3901              		.loc 1 1585 40 is_stmt 0 view .LVU1325
 3902 002a 019B     		ldr	r3, [sp, #4]
 3903 002c 23F48053 		bic	r3, r3, #4096
 3904              		.loc 1 1585 16 view .LVU1326
 3905 0030 C0F84034 		str	r3, [r0, #1088]
 3906              	.L245:
1586:Drivers/STM32H7xx_HAL_Driver/Src/stm32h7xx_ll_usb.c ****   }
1587:Drivers/STM32H7xx_HAL_Driver/Src/stm32h7xx_ll_usb.c ****   return HAL_OK;
 3907              		.loc 1 1587 3 is_stmt 1 view .LVU1327
1588:Drivers/STM32H7xx_HAL_Driver/Src/stm32h7xx_ll_usb.c **** }
 3908              		.loc 1 1588 1 is_stmt 0 view .LVU1328
 3909 0034 0020     		movs	r0, #0
 3910              	.LVL293:
 3911              		.loc 1 1588 1 view .LVU1329
 3912 0036 02B0     		add	sp, sp, #8
 3913              	.LCFI41:
 3914              		.cfi_remember_state
 3915              		.cfi_def_cfa_offset 0
 3916              		@ sp needed
 3917 0038 7047     		bx	lr
 3918              	.LVL294:
 3919              	.L247:
 3920              	.LCFI42:
 3921              		.cfi_restore_state
1581:Drivers/STM32H7xx_HAL_Driver/Src/stm32h7xx_ll_usb.c ****   }
 3922              		.loc 1 1581 5 is_stmt 1 view .LVU1330
1581:Drivers/STM32H7xx_HAL_Driver/Src/stm32h7xx_ll_usb.c ****   }
 3923              		.loc 1 1581 37 is_stmt 0 view .LVU1331
 3924 003a 019B     		ldr	r3, [sp, #4]
 3925 003c 43F48053 		orr	r3, r3, #4096
1581:Drivers/STM32H7xx_HAL_Driver/Src/stm32h7xx_ll_usb.c ****   }
 3926              		.loc 1 1581 16 view .LVU1332
 3927 0040 C0F84034 		str	r3, [r0, #1088]
ARM GAS  C:\Users\ADMINI~1\AppData\Local\Temp\cceMOlfx.s 			page 117


 3928 0044 ECE7     		b	.L244
 3929              		.cfi_endproc
 3930              	.LFE388:
 3932              		.section	.text.USB_GetHostSpeed,"ax",%progbits
 3933              		.align	1
 3934              		.global	USB_GetHostSpeed
 3935              		.syntax unified
 3936              		.thumb
 3937              		.thumb_func
 3939              	USB_GetHostSpeed:
 3940              	.LVL295:
 3941              	.LFB389:
1589:Drivers/STM32H7xx_HAL_Driver/Src/stm32h7xx_ll_usb.c **** 
1590:Drivers/STM32H7xx_HAL_Driver/Src/stm32h7xx_ll_usb.c **** /**
1591:Drivers/STM32H7xx_HAL_Driver/Src/stm32h7xx_ll_usb.c ****   * @brief  Return Host Core speed
1592:Drivers/STM32H7xx_HAL_Driver/Src/stm32h7xx_ll_usb.c ****   * @param  USBx  Selected device
1593:Drivers/STM32H7xx_HAL_Driver/Src/stm32h7xx_ll_usb.c ****   * @retval speed : Host speed
1594:Drivers/STM32H7xx_HAL_Driver/Src/stm32h7xx_ll_usb.c ****   *          This parameter can be one of these values:
1595:Drivers/STM32H7xx_HAL_Driver/Src/stm32h7xx_ll_usb.c ****   *            @arg HCD_SPEED_HIGH: High speed mode
1596:Drivers/STM32H7xx_HAL_Driver/Src/stm32h7xx_ll_usb.c ****   *            @arg HCD_SPEED_FULL: Full speed mode
1597:Drivers/STM32H7xx_HAL_Driver/Src/stm32h7xx_ll_usb.c ****   *            @arg HCD_SPEED_LOW: Low speed mode
1598:Drivers/STM32H7xx_HAL_Driver/Src/stm32h7xx_ll_usb.c ****   */
1599:Drivers/STM32H7xx_HAL_Driver/Src/stm32h7xx_ll_usb.c **** uint32_t USB_GetHostSpeed(USB_OTG_GlobalTypeDef const *USBx)
1600:Drivers/STM32H7xx_HAL_Driver/Src/stm32h7xx_ll_usb.c **** {
 3942              		.loc 1 1600 1 is_stmt 1 view -0
 3943              		.cfi_startproc
 3944              		@ args = 0, pretend = 0, frame = 8
 3945              		@ frame_needed = 0, uses_anonymous_args = 0
 3946              		@ link register save eliminated.
 3947              		.loc 1 1600 1 is_stmt 0 view .LVU1334
 3948 0000 82B0     		sub	sp, sp, #8
 3949              	.LCFI43:
 3950              		.cfi_def_cfa_offset 8
1601:Drivers/STM32H7xx_HAL_Driver/Src/stm32h7xx_ll_usb.c ****   uint32_t USBx_BASE = (uint32_t)USBx;
 3951              		.loc 1 1601 3 is_stmt 1 view .LVU1335
 3952              	.LVL296:
1602:Drivers/STM32H7xx_HAL_Driver/Src/stm32h7xx_ll_usb.c ****   __IO uint32_t hprt0 = 0U;
 3953              		.loc 1 1602 3 view .LVU1336
 3954              		.loc 1 1602 17 is_stmt 0 view .LVU1337
 3955 0002 0023     		movs	r3, #0
 3956 0004 0193     		str	r3, [sp, #4]
1603:Drivers/STM32H7xx_HAL_Driver/Src/stm32h7xx_ll_usb.c **** 
1604:Drivers/STM32H7xx_HAL_Driver/Src/stm32h7xx_ll_usb.c ****   hprt0 = USBx_HPRT0;
 3957              		.loc 1 1604 3 is_stmt 1 view .LVU1338
 3958              		.loc 1 1604 11 is_stmt 0 view .LVU1339
 3959 0006 D0F84034 		ldr	r3, [r0, #1088]
 3960              		.loc 1 1604 9 view .LVU1340
 3961 000a 0193     		str	r3, [sp, #4]
1605:Drivers/STM32H7xx_HAL_Driver/Src/stm32h7xx_ll_usb.c ****   return ((hprt0 & USB_OTG_HPRT_PSPD) >> 17);
 3962              		.loc 1 1605 3 is_stmt 1 view .LVU1341
 3963              		.loc 1 1605 39 is_stmt 0 view .LVU1342
 3964 000c 0198     		ldr	r0, [sp, #4]
 3965              	.LVL297:
1606:Drivers/STM32H7xx_HAL_Driver/Src/stm32h7xx_ll_usb.c **** }
 3966              		.loc 1 1606 1 view .LVU1343
 3967 000e C0F34140 		ubfx	r0, r0, #17, #2
 3968 0012 02B0     		add	sp, sp, #8
ARM GAS  C:\Users\ADMINI~1\AppData\Local\Temp\cceMOlfx.s 			page 118


 3969              	.LCFI44:
 3970              		.cfi_def_cfa_offset 0
 3971              		@ sp needed
 3972 0014 7047     		bx	lr
 3973              		.cfi_endproc
 3974              	.LFE389:
 3976              		.section	.text.USB_GetCurrentFrame,"ax",%progbits
 3977              		.align	1
 3978              		.global	USB_GetCurrentFrame
 3979              		.syntax unified
 3980              		.thumb
 3981              		.thumb_func
 3983              	USB_GetCurrentFrame:
 3984              	.LVL298:
 3985              	.LFB390:
1607:Drivers/STM32H7xx_HAL_Driver/Src/stm32h7xx_ll_usb.c **** 
1608:Drivers/STM32H7xx_HAL_Driver/Src/stm32h7xx_ll_usb.c **** /**
1609:Drivers/STM32H7xx_HAL_Driver/Src/stm32h7xx_ll_usb.c ****   * @brief  Return Host Current Frame number
1610:Drivers/STM32H7xx_HAL_Driver/Src/stm32h7xx_ll_usb.c ****   * @param  USBx  Selected device
1611:Drivers/STM32H7xx_HAL_Driver/Src/stm32h7xx_ll_usb.c ****   * @retval current frame number
1612:Drivers/STM32H7xx_HAL_Driver/Src/stm32h7xx_ll_usb.c ****   */
1613:Drivers/STM32H7xx_HAL_Driver/Src/stm32h7xx_ll_usb.c **** uint32_t USB_GetCurrentFrame(USB_OTG_GlobalTypeDef const *USBx)
1614:Drivers/STM32H7xx_HAL_Driver/Src/stm32h7xx_ll_usb.c **** {
 3986              		.loc 1 1614 1 is_stmt 1 view -0
 3987              		.cfi_startproc
 3988              		@ args = 0, pretend = 0, frame = 0
 3989              		@ frame_needed = 0, uses_anonymous_args = 0
 3990              		@ link register save eliminated.
1615:Drivers/STM32H7xx_HAL_Driver/Src/stm32h7xx_ll_usb.c ****   uint32_t USBx_BASE = (uint32_t)USBx;
 3991              		.loc 1 1615 3 view .LVU1345
1616:Drivers/STM32H7xx_HAL_Driver/Src/stm32h7xx_ll_usb.c **** 
1617:Drivers/STM32H7xx_HAL_Driver/Src/stm32h7xx_ll_usb.c ****   return (USBx_HOST->HFNUM & USB_OTG_HFNUM_FRNUM);
 3992              		.loc 1 1617 3 view .LVU1346
 3993              		.loc 1 1617 11 is_stmt 0 view .LVU1347
 3994 0000 00F58060 		add	r0, r0, #1024
 3995              	.LVL299:
 3996              		.loc 1 1617 20 view .LVU1348
 3997 0004 8068     		ldr	r0, [r0, #8]
 3998              	.LVL300:
1618:Drivers/STM32H7xx_HAL_Driver/Src/stm32h7xx_ll_usb.c **** }
 3999              		.loc 1 1618 1 view .LVU1349
 4000 0006 80B2     		uxth	r0, r0
 4001 0008 7047     		bx	lr
 4002              		.cfi_endproc
 4003              	.LFE390:
 4005              		.section	.text.USB_HC_Init,"ax",%progbits
 4006              		.align	1
 4007              		.global	USB_HC_Init
 4008              		.syntax unified
 4009              		.thumb
 4010              		.thumb_func
 4012              	USB_HC_Init:
 4013              	.LVL301:
 4014              	.LFB391:
1619:Drivers/STM32H7xx_HAL_Driver/Src/stm32h7xx_ll_usb.c **** 
1620:Drivers/STM32H7xx_HAL_Driver/Src/stm32h7xx_ll_usb.c **** /**
1621:Drivers/STM32H7xx_HAL_Driver/Src/stm32h7xx_ll_usb.c ****   * @brief  Initialize a host channel
ARM GAS  C:\Users\ADMINI~1\AppData\Local\Temp\cceMOlfx.s 			page 119


1622:Drivers/STM32H7xx_HAL_Driver/Src/stm32h7xx_ll_usb.c ****   * @param  USBx  Selected device
1623:Drivers/STM32H7xx_HAL_Driver/Src/stm32h7xx_ll_usb.c ****   * @param  ch_num  Channel number
1624:Drivers/STM32H7xx_HAL_Driver/Src/stm32h7xx_ll_usb.c ****   *         This parameter can be a value from 1 to 15
1625:Drivers/STM32H7xx_HAL_Driver/Src/stm32h7xx_ll_usb.c ****   * @param  epnum  Endpoint number
1626:Drivers/STM32H7xx_HAL_Driver/Src/stm32h7xx_ll_usb.c ****   *          This parameter can be a value from 1 to 15
1627:Drivers/STM32H7xx_HAL_Driver/Src/stm32h7xx_ll_usb.c ****   * @param  dev_address  Current device address
1628:Drivers/STM32H7xx_HAL_Driver/Src/stm32h7xx_ll_usb.c ****   *          This parameter can be a value from 0 to 255
1629:Drivers/STM32H7xx_HAL_Driver/Src/stm32h7xx_ll_usb.c ****   * @param  speed  Current device speed
1630:Drivers/STM32H7xx_HAL_Driver/Src/stm32h7xx_ll_usb.c ****   *          This parameter can be one of these values:
1631:Drivers/STM32H7xx_HAL_Driver/Src/stm32h7xx_ll_usb.c ****   *            @arg USB_OTG_SPEED_HIGH: High speed mode
1632:Drivers/STM32H7xx_HAL_Driver/Src/stm32h7xx_ll_usb.c ****   *            @arg USB_OTG_SPEED_FULL: Full speed mode
1633:Drivers/STM32H7xx_HAL_Driver/Src/stm32h7xx_ll_usb.c ****   *            @arg USB_OTG_SPEED_LOW: Low speed mode
1634:Drivers/STM32H7xx_HAL_Driver/Src/stm32h7xx_ll_usb.c ****   * @param  ep_type  Endpoint Type
1635:Drivers/STM32H7xx_HAL_Driver/Src/stm32h7xx_ll_usb.c ****   *          This parameter can be one of these values:
1636:Drivers/STM32H7xx_HAL_Driver/Src/stm32h7xx_ll_usb.c ****   *            @arg EP_TYPE_CTRL: Control type
1637:Drivers/STM32H7xx_HAL_Driver/Src/stm32h7xx_ll_usb.c ****   *            @arg EP_TYPE_ISOC: Isochronous type
1638:Drivers/STM32H7xx_HAL_Driver/Src/stm32h7xx_ll_usb.c ****   *            @arg EP_TYPE_BULK: Bulk type
1639:Drivers/STM32H7xx_HAL_Driver/Src/stm32h7xx_ll_usb.c ****   *            @arg EP_TYPE_INTR: Interrupt type
1640:Drivers/STM32H7xx_HAL_Driver/Src/stm32h7xx_ll_usb.c ****   * @param  mps  Max Packet Size
1641:Drivers/STM32H7xx_HAL_Driver/Src/stm32h7xx_ll_usb.c ****   *          This parameter can be a value from 0 to 32K
1642:Drivers/STM32H7xx_HAL_Driver/Src/stm32h7xx_ll_usb.c ****   * @retval HAL state
1643:Drivers/STM32H7xx_HAL_Driver/Src/stm32h7xx_ll_usb.c ****   */
1644:Drivers/STM32H7xx_HAL_Driver/Src/stm32h7xx_ll_usb.c **** HAL_StatusTypeDef USB_HC_Init(USB_OTG_GlobalTypeDef *USBx, uint8_t ch_num,
1645:Drivers/STM32H7xx_HAL_Driver/Src/stm32h7xx_ll_usb.c ****                               uint8_t epnum, uint8_t dev_address, uint8_t speed,
1646:Drivers/STM32H7xx_HAL_Driver/Src/stm32h7xx_ll_usb.c ****                               uint8_t ep_type, uint16_t mps)
1647:Drivers/STM32H7xx_HAL_Driver/Src/stm32h7xx_ll_usb.c **** {
 4015              		.loc 1 1647 1 is_stmt 1 view -0
 4016              		.cfi_startproc
 4017              		@ args = 12, pretend = 0, frame = 0
 4018              		@ frame_needed = 0, uses_anonymous_args = 0
 4019              		.loc 1 1647 1 is_stmt 0 view .LVU1351
 4020 0000 2DE9F843 		push	{r3, r4, r5, r6, r7, r8, r9, lr}
 4021              	.LCFI45:
 4022              		.cfi_def_cfa_offset 32
 4023              		.cfi_offset 3, -32
 4024              		.cfi_offset 4, -28
 4025              		.cfi_offset 5, -24
 4026              		.cfi_offset 6, -20
 4027              		.cfi_offset 7, -16
 4028              		.cfi_offset 8, -12
 4029              		.cfi_offset 9, -8
 4030              		.cfi_offset 14, -4
 4031 0004 1646     		mov	r6, r2
 4032 0006 9846     		mov	r8, r3
 4033 0008 9DF82440 		ldrb	r4, [sp, #36]	@ zero_extendqisi2
1648:Drivers/STM32H7xx_HAL_Driver/Src/stm32h7xx_ll_usb.c ****   HAL_StatusTypeDef ret = HAL_OK;
 4034              		.loc 1 1648 3 is_stmt 1 view .LVU1352
 4035              	.LVL302:
1649:Drivers/STM32H7xx_HAL_Driver/Src/stm32h7xx_ll_usb.c ****   uint32_t USBx_BASE = (uint32_t)USBx;
 4036              		.loc 1 1649 3 view .LVU1353
1650:Drivers/STM32H7xx_HAL_Driver/Src/stm32h7xx_ll_usb.c ****   uint32_t HCcharEpDir;
 4037              		.loc 1 1650 3 view .LVU1354
1651:Drivers/STM32H7xx_HAL_Driver/Src/stm32h7xx_ll_usb.c ****   uint32_t HCcharLowSpeed;
 4038              		.loc 1 1651 3 view .LVU1355
1652:Drivers/STM32H7xx_HAL_Driver/Src/stm32h7xx_ll_usb.c ****   uint32_t HostCoreSpeed;
 4039              		.loc 1 1652 3 view .LVU1356
1653:Drivers/STM32H7xx_HAL_Driver/Src/stm32h7xx_ll_usb.c **** 
ARM GAS  C:\Users\ADMINI~1\AppData\Local\Temp\cceMOlfx.s 			page 120


1654:Drivers/STM32H7xx_HAL_Driver/Src/stm32h7xx_ll_usb.c ****   /* Clear old interrupt conditions for this host channel. */
1655:Drivers/STM32H7xx_HAL_Driver/Src/stm32h7xx_ll_usb.c ****   USBx_HC((uint32_t)ch_num)->HCINT = CLEAR_INTERRUPT_MASK;
 4040              		.loc 1 1655 3 view .LVU1357
 4041 000c 00EB4115 		add	r5, r0, r1, lsl #5
 4042 0010 05F5A063 		add	r3, r5, #1280
 4043              	.LVL303:
 4044              		.loc 1 1655 36 is_stmt 0 view .LVU1358
 4045 0014 4FF0FF32 		mov	r2, #-1
 4046              	.LVL304:
 4047              		.loc 1 1655 36 view .LVU1359
 4048 0018 9A60     		str	r2, [r3, #8]
1656:Drivers/STM32H7xx_HAL_Driver/Src/stm32h7xx_ll_usb.c **** 
1657:Drivers/STM32H7xx_HAL_Driver/Src/stm32h7xx_ll_usb.c ****   /* Enable channel interrupts required for this transfer. */
1658:Drivers/STM32H7xx_HAL_Driver/Src/stm32h7xx_ll_usb.c ****   switch (ep_type)
 4049              		.loc 1 1658 3 is_stmt 1 view .LVU1360
 4050 001a 022C     		cmp	r4, #2
 4051 001c 1DD0     		beq	.L252
 4052 001e 0ED8     		bhi	.L253
 4053 0020 DCB1     		cbz	r4, .L252
 4054 0022 012C     		cmp	r4, #1
 4055 0024 08D1     		bne	.L266
1659:Drivers/STM32H7xx_HAL_Driver/Src/stm32h7xx_ll_usb.c ****   {
1660:Drivers/STM32H7xx_HAL_Driver/Src/stm32h7xx_ll_usb.c ****     case EP_TYPE_CTRL:
1661:Drivers/STM32H7xx_HAL_Driver/Src/stm32h7xx_ll_usb.c ****     case EP_TYPE_BULK:
1662:Drivers/STM32H7xx_HAL_Driver/Src/stm32h7xx_ll_usb.c ****       USBx_HC((uint32_t)ch_num)->HCINTMSK = USB_OTG_HCINTMSK_XFRCM  |
1663:Drivers/STM32H7xx_HAL_Driver/Src/stm32h7xx_ll_usb.c ****                                             USB_OTG_HCINTMSK_STALLM |
1664:Drivers/STM32H7xx_HAL_Driver/Src/stm32h7xx_ll_usb.c ****                                             USB_OTG_HCINTMSK_TXERRM |
1665:Drivers/STM32H7xx_HAL_Driver/Src/stm32h7xx_ll_usb.c ****                                             USB_OTG_HCINTMSK_DTERRM |
1666:Drivers/STM32H7xx_HAL_Driver/Src/stm32h7xx_ll_usb.c ****                                             USB_OTG_HCINTMSK_AHBERR |
1667:Drivers/STM32H7xx_HAL_Driver/Src/stm32h7xx_ll_usb.c ****                                             USB_OTG_HCINTMSK_NAKM;
1668:Drivers/STM32H7xx_HAL_Driver/Src/stm32h7xx_ll_usb.c **** 
1669:Drivers/STM32H7xx_HAL_Driver/Src/stm32h7xx_ll_usb.c ****       if ((epnum & 0x80U) == 0x80U)
1670:Drivers/STM32H7xx_HAL_Driver/Src/stm32h7xx_ll_usb.c ****       {
1671:Drivers/STM32H7xx_HAL_Driver/Src/stm32h7xx_ll_usb.c ****         USBx_HC((uint32_t)ch_num)->HCINTMSK |= USB_OTG_HCINTMSK_BBERRM;
1672:Drivers/STM32H7xx_HAL_Driver/Src/stm32h7xx_ll_usb.c ****       }
1673:Drivers/STM32H7xx_HAL_Driver/Src/stm32h7xx_ll_usb.c ****       else
1674:Drivers/STM32H7xx_HAL_Driver/Src/stm32h7xx_ll_usb.c ****       {
1675:Drivers/STM32H7xx_HAL_Driver/Src/stm32h7xx_ll_usb.c ****         USBx_HC((uint32_t)ch_num)->HCINTMSK |= USB_OTG_HCINTMSK_NYET |
1676:Drivers/STM32H7xx_HAL_Driver/Src/stm32h7xx_ll_usb.c ****                                                USB_OTG_HCINTMSK_ACKM;
1677:Drivers/STM32H7xx_HAL_Driver/Src/stm32h7xx_ll_usb.c ****       }
1678:Drivers/STM32H7xx_HAL_Driver/Src/stm32h7xx_ll_usb.c ****       break;
1679:Drivers/STM32H7xx_HAL_Driver/Src/stm32h7xx_ll_usb.c **** 
1680:Drivers/STM32H7xx_HAL_Driver/Src/stm32h7xx_ll_usb.c ****     case EP_TYPE_INTR:
1681:Drivers/STM32H7xx_HAL_Driver/Src/stm32h7xx_ll_usb.c ****       USBx_HC((uint32_t)ch_num)->HCINTMSK = USB_OTG_HCINTMSK_XFRCM  |
1682:Drivers/STM32H7xx_HAL_Driver/Src/stm32h7xx_ll_usb.c ****                                             USB_OTG_HCINTMSK_STALLM |
1683:Drivers/STM32H7xx_HAL_Driver/Src/stm32h7xx_ll_usb.c ****                                             USB_OTG_HCINTMSK_TXERRM |
1684:Drivers/STM32H7xx_HAL_Driver/Src/stm32h7xx_ll_usb.c ****                                             USB_OTG_HCINTMSK_DTERRM |
1685:Drivers/STM32H7xx_HAL_Driver/Src/stm32h7xx_ll_usb.c ****                                             USB_OTG_HCINTMSK_NAKM   |
1686:Drivers/STM32H7xx_HAL_Driver/Src/stm32h7xx_ll_usb.c ****                                             USB_OTG_HCINTMSK_AHBERR |
1687:Drivers/STM32H7xx_HAL_Driver/Src/stm32h7xx_ll_usb.c ****                                             USB_OTG_HCINTMSK_FRMORM;
1688:Drivers/STM32H7xx_HAL_Driver/Src/stm32h7xx_ll_usb.c **** 
1689:Drivers/STM32H7xx_HAL_Driver/Src/stm32h7xx_ll_usb.c ****       if ((epnum & 0x80U) == 0x80U)
1690:Drivers/STM32H7xx_HAL_Driver/Src/stm32h7xx_ll_usb.c ****       {
1691:Drivers/STM32H7xx_HAL_Driver/Src/stm32h7xx_ll_usb.c ****         USBx_HC((uint32_t)ch_num)->HCINTMSK |= USB_OTG_HCINTMSK_BBERRM;
1692:Drivers/STM32H7xx_HAL_Driver/Src/stm32h7xx_ll_usb.c ****       }
1693:Drivers/STM32H7xx_HAL_Driver/Src/stm32h7xx_ll_usb.c **** 
1694:Drivers/STM32H7xx_HAL_Driver/Src/stm32h7xx_ll_usb.c ****       break;
ARM GAS  C:\Users\ADMINI~1\AppData\Local\Temp\cceMOlfx.s 			page 121


1695:Drivers/STM32H7xx_HAL_Driver/Src/stm32h7xx_ll_usb.c **** 
1696:Drivers/STM32H7xx_HAL_Driver/Src/stm32h7xx_ll_usb.c ****     case EP_TYPE_ISOC:
1697:Drivers/STM32H7xx_HAL_Driver/Src/stm32h7xx_ll_usb.c ****       USBx_HC((uint32_t)ch_num)->HCINTMSK = USB_OTG_HCINTMSK_XFRCM  |
 4056              		.loc 1 1697 7 view .LVU1361
 4057              		.loc 1 1697 43 is_stmt 0 view .LVU1362
 4058 0026 40F22522 		movw	r2, #549
 4059 002a DA60     		str	r2, [r3, #12]
1698:Drivers/STM32H7xx_HAL_Driver/Src/stm32h7xx_ll_usb.c ****                                             USB_OTG_HCINTMSK_ACKM   |
1699:Drivers/STM32H7xx_HAL_Driver/Src/stm32h7xx_ll_usb.c ****                                             USB_OTG_HCINTMSK_AHBERR |
1700:Drivers/STM32H7xx_HAL_Driver/Src/stm32h7xx_ll_usb.c ****                                             USB_OTG_HCINTMSK_FRMORM;
1701:Drivers/STM32H7xx_HAL_Driver/Src/stm32h7xx_ll_usb.c **** 
1702:Drivers/STM32H7xx_HAL_Driver/Src/stm32h7xx_ll_usb.c ****       if ((epnum & 0x80U) == 0x80U)
 4060              		.loc 1 1702 7 is_stmt 1 view .LVU1363
 4061              		.loc 1 1702 10 is_stmt 0 view .LVU1364
 4062 002c 16F0800F 		tst	r6, #128
 4063 0030 78D1     		bne	.L267
1648:Drivers/STM32H7xx_HAL_Driver/Src/stm32h7xx_ll_usb.c ****   uint32_t USBx_BASE = (uint32_t)USBx;
 4064              		.loc 1 1648 21 view .LVU1365
 4065 0032 0022     		movs	r2, #0
 4066 0034 9146     		mov	r9, r2
 4067 0036 1CE0     		b	.L255
 4068              	.L266:
1658:Drivers/STM32H7xx_HAL_Driver/Src/stm32h7xx_ll_usb.c ****   {
 4069              		.loc 1 1658 3 view .LVU1366
 4070 0038 0122     		movs	r2, #1
 4071 003a 9146     		mov	r9, r2
 4072 003c 19E0     		b	.L255
 4073              	.L253:
 4074 003e 032C     		cmp	r4, #3
 4075 0040 08D1     		bne	.L268
1681:Drivers/STM32H7xx_HAL_Driver/Src/stm32h7xx_ll_usb.c ****                                             USB_OTG_HCINTMSK_STALLM |
 4076              		.loc 1 1681 7 is_stmt 1 view .LVU1367
1681:Drivers/STM32H7xx_HAL_Driver/Src/stm32h7xx_ll_usb.c ****                                             USB_OTG_HCINTMSK_STALLM |
 4077              		.loc 1 1681 43 is_stmt 0 view .LVU1368
 4078 0042 40F29D62 		movw	r2, #1693
 4079 0046 DA60     		str	r2, [r3, #12]
1689:Drivers/STM32H7xx_HAL_Driver/Src/stm32h7xx_ll_usb.c ****       {
 4080              		.loc 1 1689 7 is_stmt 1 view .LVU1369
1689:Drivers/STM32H7xx_HAL_Driver/Src/stm32h7xx_ll_usb.c ****       {
 4081              		.loc 1 1689 10 is_stmt 0 view .LVU1370
 4082 0048 16F0800F 		tst	r6, #128
 4083 004c 63D1     		bne	.L269
1648:Drivers/STM32H7xx_HAL_Driver/Src/stm32h7xx_ll_usb.c ****   uint32_t USBx_BASE = (uint32_t)USBx;
 4084              		.loc 1 1648 21 view .LVU1371
 4085 004e 0022     		movs	r2, #0
 4086 0050 9146     		mov	r9, r2
 4087 0052 0EE0     		b	.L255
 4088              	.L268:
1658:Drivers/STM32H7xx_HAL_Driver/Src/stm32h7xx_ll_usb.c ****   {
 4089              		.loc 1 1658 3 view .LVU1372
 4090 0054 0122     		movs	r2, #1
 4091 0056 9146     		mov	r9, r2
 4092 0058 0BE0     		b	.L255
 4093              	.L252:
1662:Drivers/STM32H7xx_HAL_Driver/Src/stm32h7xx_ll_usb.c ****                                             USB_OTG_HCINTMSK_STALLM |
 4094              		.loc 1 1662 7 is_stmt 1 view .LVU1373
1662:Drivers/STM32H7xx_HAL_Driver/Src/stm32h7xx_ll_usb.c ****                                             USB_OTG_HCINTMSK_STALLM |
ARM GAS  C:\Users\ADMINI~1\AppData\Local\Temp\cceMOlfx.s 			page 122


 4095              		.loc 1 1662 43 is_stmt 0 view .LVU1374
 4096 005a 40F29D42 		movw	r2, #1181
 4097 005e DA60     		str	r2, [r3, #12]
1669:Drivers/STM32H7xx_HAL_Driver/Src/stm32h7xx_ll_usb.c ****       {
 4098              		.loc 1 1669 7 is_stmt 1 view .LVU1375
1669:Drivers/STM32H7xx_HAL_Driver/Src/stm32h7xx_ll_usb.c ****       {
 4099              		.loc 1 1669 10 is_stmt 0 view .LVU1376
 4100 0060 16F0800F 		tst	r6, #128
 4101 0064 50D1     		bne	.L270
1675:Drivers/STM32H7xx_HAL_Driver/Src/stm32h7xx_ll_usb.c ****                                                USB_OTG_HCINTMSK_ACKM;
 4102              		.loc 1 1675 9 is_stmt 1 view .LVU1377
1675:Drivers/STM32H7xx_HAL_Driver/Src/stm32h7xx_ll_usb.c ****                                                USB_OTG_HCINTMSK_ACKM;
 4103              		.loc 1 1675 34 is_stmt 0 view .LVU1378
 4104 0066 DA68     		ldr	r2, [r3, #12]
1675:Drivers/STM32H7xx_HAL_Driver/Src/stm32h7xx_ll_usb.c ****                                                USB_OTG_HCINTMSK_ACKM;
 4105              		.loc 1 1675 45 view .LVU1379
 4106 0068 42F06002 		orr	r2, r2, #96
 4107 006c DA60     		str	r2, [r3, #12]
1648:Drivers/STM32H7xx_HAL_Driver/Src/stm32h7xx_ll_usb.c ****   uint32_t USBx_BASE = (uint32_t)USBx;
 4108              		.loc 1 1648 21 view .LVU1380
 4109 006e 0022     		movs	r2, #0
 4110 0070 9146     		mov	r9, r2
 4111              	.L255:
 4112              	.LVL305:
1703:Drivers/STM32H7xx_HAL_Driver/Src/stm32h7xx_ll_usb.c ****       {
1704:Drivers/STM32H7xx_HAL_Driver/Src/stm32h7xx_ll_usb.c ****         USBx_HC((uint32_t)ch_num)->HCINTMSK |= (USB_OTG_HCINTMSK_TXERRM | USB_OTG_HCINTMSK_BBERRM);
1705:Drivers/STM32H7xx_HAL_Driver/Src/stm32h7xx_ll_usb.c ****       }
1706:Drivers/STM32H7xx_HAL_Driver/Src/stm32h7xx_ll_usb.c ****       break;
1707:Drivers/STM32H7xx_HAL_Driver/Src/stm32h7xx_ll_usb.c **** 
1708:Drivers/STM32H7xx_HAL_Driver/Src/stm32h7xx_ll_usb.c ****     default:
1709:Drivers/STM32H7xx_HAL_Driver/Src/stm32h7xx_ll_usb.c ****       ret = HAL_ERROR;
1710:Drivers/STM32H7xx_HAL_Driver/Src/stm32h7xx_ll_usb.c ****       break;
1711:Drivers/STM32H7xx_HAL_Driver/Src/stm32h7xx_ll_usb.c ****   }
1712:Drivers/STM32H7xx_HAL_Driver/Src/stm32h7xx_ll_usb.c **** 
1713:Drivers/STM32H7xx_HAL_Driver/Src/stm32h7xx_ll_usb.c ****   /* Clear Hub Start Split transaction */
1714:Drivers/STM32H7xx_HAL_Driver/Src/stm32h7xx_ll_usb.c ****   USBx_HC((uint32_t)ch_num)->HCSPLT = 0U;
 4113              		.loc 1 1714 3 is_stmt 1 view .LVU1381
 4114              		.loc 1 1714 37 is_stmt 0 view .LVU1382
 4115 0072 0022     		movs	r2, #0
 4116 0074 5A60     		str	r2, [r3, #4]
1715:Drivers/STM32H7xx_HAL_Driver/Src/stm32h7xx_ll_usb.c **** 
1716:Drivers/STM32H7xx_HAL_Driver/Src/stm32h7xx_ll_usb.c ****   /* Enable host channel Halt interrupt */
1717:Drivers/STM32H7xx_HAL_Driver/Src/stm32h7xx_ll_usb.c ****   USBx_HC((uint32_t)ch_num)->HCINTMSK |= USB_OTG_HCINTMSK_CHHM;
 4117              		.loc 1 1717 3 is_stmt 1 view .LVU1383
 4118              		.loc 1 1717 28 is_stmt 0 view .LVU1384
 4119 0076 DA68     		ldr	r2, [r3, #12]
 4120              		.loc 1 1717 39 view .LVU1385
 4121 0078 42F00202 		orr	r2, r2, #2
 4122 007c DA60     		str	r2, [r3, #12]
1718:Drivers/STM32H7xx_HAL_Driver/Src/stm32h7xx_ll_usb.c **** 
1719:Drivers/STM32H7xx_HAL_Driver/Src/stm32h7xx_ll_usb.c ****   /* Enable the top level host channel interrupt. */
1720:Drivers/STM32H7xx_HAL_Driver/Src/stm32h7xx_ll_usb.c ****   USBx_HOST->HAINTMSK |= 1UL << (ch_num & 0xFU);
 4123              		.loc 1 1720 3 is_stmt 1 view .LVU1386
 4124              		.loc 1 1720 12 is_stmt 0 view .LVU1387
 4125 007e D0F81834 		ldr	r3, [r0, #1048]
 4126              		.loc 1 1720 41 view .LVU1388
 4127 0082 01F00F01 		and	r1, r1, #15
ARM GAS  C:\Users\ADMINI~1\AppData\Local\Temp\cceMOlfx.s 			page 123


 4128              	.LVL306:
 4129              		.loc 1 1720 30 view .LVU1389
 4130 0086 0122     		movs	r2, #1
 4131 0088 8A40     		lsls	r2, r2, r1
 4132              		.loc 1 1720 23 view .LVU1390
 4133 008a 1343     		orrs	r3, r3, r2
 4134 008c C0F81834 		str	r3, [r0, #1048]
1721:Drivers/STM32H7xx_HAL_Driver/Src/stm32h7xx_ll_usb.c **** 
1722:Drivers/STM32H7xx_HAL_Driver/Src/stm32h7xx_ll_usb.c ****   /* Make sure host channel interrupts are enabled. */
1723:Drivers/STM32H7xx_HAL_Driver/Src/stm32h7xx_ll_usb.c ****   USBx->GINTMSK |= USB_OTG_GINTMSK_HCIM;
 4135              		.loc 1 1723 3 is_stmt 1 view .LVU1391
 4136              		.loc 1 1723 7 is_stmt 0 view .LVU1392
 4137 0090 8369     		ldr	r3, [r0, #24]
 4138              		.loc 1 1723 17 view .LVU1393
 4139 0092 43F00073 		orr	r3, r3, #33554432
 4140 0096 8361     		str	r3, [r0, #24]
1724:Drivers/STM32H7xx_HAL_Driver/Src/stm32h7xx_ll_usb.c **** 
1725:Drivers/STM32H7xx_HAL_Driver/Src/stm32h7xx_ll_usb.c ****   /* Program the HCCHAR register */
1726:Drivers/STM32H7xx_HAL_Driver/Src/stm32h7xx_ll_usb.c ****   if ((epnum & 0x80U) == 0x80U)
 4141              		.loc 1 1726 3 is_stmt 1 view .LVU1394
 4142              		.loc 1 1726 6 is_stmt 0 view .LVU1395
 4143 0098 16F0800F 		tst	r6, #128
 4144 009c 49D1     		bne	.L271
1727:Drivers/STM32H7xx_HAL_Driver/Src/stm32h7xx_ll_usb.c ****   {
1728:Drivers/STM32H7xx_HAL_Driver/Src/stm32h7xx_ll_usb.c ****     HCcharEpDir = (0x1U << 15) & USB_OTG_HCCHAR_EPDIR;
1729:Drivers/STM32H7xx_HAL_Driver/Src/stm32h7xx_ll_usb.c ****   }
1730:Drivers/STM32H7xx_HAL_Driver/Src/stm32h7xx_ll_usb.c ****   else
1731:Drivers/STM32H7xx_HAL_Driver/Src/stm32h7xx_ll_usb.c ****   {
1732:Drivers/STM32H7xx_HAL_Driver/Src/stm32h7xx_ll_usb.c ****     HCcharEpDir = 0U;
 4145              		.loc 1 1732 17 view .LVU1396
 4146 009e 0023     		movs	r3, #0
 4147 00a0 1F46     		mov	r7, r3
 4148              	.L258:
 4149              	.LVL307:
1733:Drivers/STM32H7xx_HAL_Driver/Src/stm32h7xx_ll_usb.c ****   }
1734:Drivers/STM32H7xx_HAL_Driver/Src/stm32h7xx_ll_usb.c **** 
1735:Drivers/STM32H7xx_HAL_Driver/Src/stm32h7xx_ll_usb.c ****   HostCoreSpeed = USB_GetHostSpeed(USBx);
 4150              		.loc 1 1735 3 is_stmt 1 view .LVU1397
 4151              		.loc 1 1735 19 is_stmt 0 view .LVU1398
 4152 00a2 FFF7FEFF 		bl	USB_GetHostSpeed
 4153              	.LVL308:
1736:Drivers/STM32H7xx_HAL_Driver/Src/stm32h7xx_ll_usb.c **** 
1737:Drivers/STM32H7xx_HAL_Driver/Src/stm32h7xx_ll_usb.c ****   /* LS device plugged to HUB */
1738:Drivers/STM32H7xx_HAL_Driver/Src/stm32h7xx_ll_usb.c ****   if ((speed == HPRT0_PRTSPD_LOW_SPEED) && (HostCoreSpeed != HPRT0_PRTSPD_LOW_SPEED))
 4154              		.loc 1 1738 3 is_stmt 1 view .LVU1399
 4155              		.loc 1 1738 41 is_stmt 0 view .LVU1400
 4156 00a6 9DF82030 		ldrb	r3, [sp, #32]	@ zero_extendqisi2
 4157 00aa 022B     		cmp	r3, #2
 4158 00ac 14BF     		ite	ne
 4159 00ae 0023     		movne	r3, #0
 4160 00b0 0123     		moveq	r3, #1
 4161 00b2 0228     		cmp	r0, #2
 4162 00b4 08BF     		it	eq
 4163 00b6 0023     		moveq	r3, #0
 4164              		.loc 1 1738 6 view .LVU1401
 4165 00b8 002B     		cmp	r3, #0
 4166 00ba 3ED0     		beq	.L264
ARM GAS  C:\Users\ADMINI~1\AppData\Local\Temp\cceMOlfx.s 			page 124


1739:Drivers/STM32H7xx_HAL_Driver/Src/stm32h7xx_ll_usb.c ****   {
1740:Drivers/STM32H7xx_HAL_Driver/Src/stm32h7xx_ll_usb.c ****     HCcharLowSpeed = (0x1U << 17) & USB_OTG_HCCHAR_LSDEV;
 4167              		.loc 1 1740 20 view .LVU1402
 4168 00bc 4FF40032 		mov	r2, #131072
 4169              	.L259:
 4170              	.LVL309:
1741:Drivers/STM32H7xx_HAL_Driver/Src/stm32h7xx_ll_usb.c ****   }
1742:Drivers/STM32H7xx_HAL_Driver/Src/stm32h7xx_ll_usb.c ****   else
1743:Drivers/STM32H7xx_HAL_Driver/Src/stm32h7xx_ll_usb.c ****   {
1744:Drivers/STM32H7xx_HAL_Driver/Src/stm32h7xx_ll_usb.c ****     HCcharLowSpeed = 0U;
1745:Drivers/STM32H7xx_HAL_Driver/Src/stm32h7xx_ll_usb.c ****   }
1746:Drivers/STM32H7xx_HAL_Driver/Src/stm32h7xx_ll_usb.c **** 
1747:Drivers/STM32H7xx_HAL_Driver/Src/stm32h7xx_ll_usb.c ****   USBx_HC((uint32_t)ch_num)->HCCHAR = (((uint32_t)dev_address << 22) & USB_OTG_HCCHAR_DAD) |
 4171              		.loc 1 1747 3 is_stmt 1 view .LVU1403
 4172              		.loc 1 1747 63 is_stmt 0 view .LVU1404
 4173 00c0 4346     		mov	r3, r8
 4174 00c2 9B05     		lsls	r3, r3, #22
 4175              		.loc 1 1747 70 view .LVU1405
 4176 00c4 03F0FE53 		and	r3, r3, #532676608
1748:Drivers/STM32H7xx_HAL_Driver/Src/stm32h7xx_ll_usb.c ****                                       ((((uint32_t)epnum & 0x7FU) << 11) & USB_OTG_HCCHAR_EPNUM) |
 4177              		.loc 1 1748 67 view .LVU1406
 4178 00c8 F602     		lsls	r6, r6, #11
 4179              	.LVL310:
 4180              		.loc 1 1748 74 view .LVU1407
 4181 00ca 06F4F046 		and	r6, r6, #30720
1747:Drivers/STM32H7xx_HAL_Driver/Src/stm32h7xx_ll_usb.c ****                                       ((((uint32_t)epnum & 0x7FU) << 11) & USB_OTG_HCCHAR_EPNUM) |
 4182              		.loc 1 1747 92 view .LVU1408
 4183 00ce 3343     		orrs	r3, r3, r6
1749:Drivers/STM32H7xx_HAL_Driver/Src/stm32h7xx_ll_usb.c ****                                       (((uint32_t)ep_type << 18) & USB_OTG_HCCHAR_EPTYP) |
 4184              		.loc 1 1749 59 view .LVU1409
 4185 00d0 A104     		lsls	r1, r4, #18
 4186              		.loc 1 1749 66 view .LVU1410
 4187 00d2 01F44021 		and	r1, r1, #786432
1748:Drivers/STM32H7xx_HAL_Driver/Src/stm32h7xx_ll_usb.c ****                                       ((((uint32_t)epnum & 0x7FU) << 11) & USB_OTG_HCCHAR_EPNUM) |
 4188              		.loc 1 1748 98 view .LVU1411
 4189 00d6 0B43     		orrs	r3, r3, r1
1750:Drivers/STM32H7xx_HAL_Driver/Src/stm32h7xx_ll_usb.c ****                                       ((uint32_t)mps & USB_OTG_HCCHAR_MPSIZ) |
 4190              		.loc 1 1750 54 view .LVU1412
 4191 00d8 BDF82810 		ldrh	r1, [sp, #40]
 4192 00dc C1F30A01 		ubfx	r1, r1, #0, #11
1749:Drivers/STM32H7xx_HAL_Driver/Src/stm32h7xx_ll_usb.c ****                                       (((uint32_t)ep_type << 18) & USB_OTG_HCCHAR_EPTYP) |
 4193              		.loc 1 1749 90 view .LVU1413
 4194 00e0 0B43     		orrs	r3, r3, r1
1751:Drivers/STM32H7xx_HAL_Driver/Src/stm32h7xx_ll_usb.c ****                                       USB_OTG_HCCHAR_MC_0 | HCcharEpDir | HCcharLowSpeed;
 4195              		.loc 1 1751 59 view .LVU1414
 4196 00e2 3B43     		orrs	r3, r3, r7
 4197              		.loc 1 1751 73 view .LVU1415
 4198 00e4 1343     		orrs	r3, r3, r2
 4199 00e6 43F48013 		orr	r3, r3, #1048576
1747:Drivers/STM32H7xx_HAL_Driver/Src/stm32h7xx_ll_usb.c ****                                       ((((uint32_t)epnum & 0x7FU) << 11) & USB_OTG_HCCHAR_EPNUM) |
 4200              		.loc 1 1747 37 view .LVU1416
 4201 00ea C5F80035 		str	r3, [r5, #1280]
1752:Drivers/STM32H7xx_HAL_Driver/Src/stm32h7xx_ll_usb.c **** 
1753:Drivers/STM32H7xx_HAL_Driver/Src/stm32h7xx_ll_usb.c ****   if ((ep_type == EP_TYPE_INTR) || (ep_type == EP_TYPE_ISOC))
 4202              		.loc 1 1753 3 is_stmt 1 view .LVU1417
 4203              		.loc 1 1753 6 is_stmt 0 view .LVU1418
 4204 00ee 012C     		cmp	r4, #1
ARM GAS  C:\Users\ADMINI~1\AppData\Local\Temp\cceMOlfx.s 			page 125


 4205 00f0 18BF     		it	ne
 4206 00f2 032C     		cmpne	r4, #3
 4207 00f4 05D1     		bne	.L260
1754:Drivers/STM32H7xx_HAL_Driver/Src/stm32h7xx_ll_usb.c ****   {
1755:Drivers/STM32H7xx_HAL_Driver/Src/stm32h7xx_ll_usb.c ****     USBx_HC((uint32_t)ch_num)->HCCHAR |= USB_OTG_HCCHAR_ODDFRM;
 4208              		.loc 1 1755 5 is_stmt 1 view .LVU1419
 4209              		.loc 1 1755 30 is_stmt 0 view .LVU1420
 4210 00f6 D5F80035 		ldr	r3, [r5, #1280]
 4211              		.loc 1 1755 39 view .LVU1421
 4212 00fa 43F00053 		orr	r3, r3, #536870912
 4213 00fe C5F80035 		str	r3, [r5, #1280]
 4214              	.L260:
1756:Drivers/STM32H7xx_HAL_Driver/Src/stm32h7xx_ll_usb.c ****   }
1757:Drivers/STM32H7xx_HAL_Driver/Src/stm32h7xx_ll_usb.c **** 
1758:Drivers/STM32H7xx_HAL_Driver/Src/stm32h7xx_ll_usb.c ****   return ret;
 4215              		.loc 1 1758 3 is_stmt 1 view .LVU1422
1759:Drivers/STM32H7xx_HAL_Driver/Src/stm32h7xx_ll_usb.c **** }
 4216              		.loc 1 1759 1 is_stmt 0 view .LVU1423
 4217 0102 4846     		mov	r0, r9
 4218              	.LVL311:
 4219              		.loc 1 1759 1 view .LVU1424
 4220 0104 BDE8F883 		pop	{r3, r4, r5, r6, r7, r8, r9, pc}
 4221              	.LVL312:
 4222              	.L270:
1671:Drivers/STM32H7xx_HAL_Driver/Src/stm32h7xx_ll_usb.c ****       }
 4223              		.loc 1 1671 9 is_stmt 1 view .LVU1425
1671:Drivers/STM32H7xx_HAL_Driver/Src/stm32h7xx_ll_usb.c ****       }
 4224              		.loc 1 1671 34 is_stmt 0 view .LVU1426
 4225 0108 DA68     		ldr	r2, [r3, #12]
1671:Drivers/STM32H7xx_HAL_Driver/Src/stm32h7xx_ll_usb.c ****       }
 4226              		.loc 1 1671 45 view .LVU1427
 4227 010a 42F48072 		orr	r2, r2, #256
 4228 010e DA60     		str	r2, [r3, #12]
1648:Drivers/STM32H7xx_HAL_Driver/Src/stm32h7xx_ll_usb.c ****   uint32_t USBx_BASE = (uint32_t)USBx;
 4229              		.loc 1 1648 21 view .LVU1428
 4230 0110 0022     		movs	r2, #0
 4231 0112 9146     		mov	r9, r2
 4232 0114 ADE7     		b	.L255
 4233              	.L269:
1691:Drivers/STM32H7xx_HAL_Driver/Src/stm32h7xx_ll_usb.c ****       }
 4234              		.loc 1 1691 9 is_stmt 1 view .LVU1429
1691:Drivers/STM32H7xx_HAL_Driver/Src/stm32h7xx_ll_usb.c ****       }
 4235              		.loc 1 1691 34 is_stmt 0 view .LVU1430
 4236 0116 DA68     		ldr	r2, [r3, #12]
1691:Drivers/STM32H7xx_HAL_Driver/Src/stm32h7xx_ll_usb.c ****       }
 4237              		.loc 1 1691 45 view .LVU1431
 4238 0118 42F48072 		orr	r2, r2, #256
 4239 011c DA60     		str	r2, [r3, #12]
1648:Drivers/STM32H7xx_HAL_Driver/Src/stm32h7xx_ll_usb.c ****   uint32_t USBx_BASE = (uint32_t)USBx;
 4240              		.loc 1 1648 21 view .LVU1432
 4241 011e 0022     		movs	r2, #0
 4242 0120 9146     		mov	r9, r2
 4243 0122 A6E7     		b	.L255
 4244              	.L267:
1704:Drivers/STM32H7xx_HAL_Driver/Src/stm32h7xx_ll_usb.c ****       }
 4245              		.loc 1 1704 9 is_stmt 1 view .LVU1433
1704:Drivers/STM32H7xx_HAL_Driver/Src/stm32h7xx_ll_usb.c ****       }
ARM GAS  C:\Users\ADMINI~1\AppData\Local\Temp\cceMOlfx.s 			page 126


 4246              		.loc 1 1704 34 is_stmt 0 view .LVU1434
 4247 0124 DA68     		ldr	r2, [r3, #12]
1704:Drivers/STM32H7xx_HAL_Driver/Src/stm32h7xx_ll_usb.c ****       }
 4248              		.loc 1 1704 45 view .LVU1435
 4249 0126 42F4C072 		orr	r2, r2, #384
 4250 012a DA60     		str	r2, [r3, #12]
1648:Drivers/STM32H7xx_HAL_Driver/Src/stm32h7xx_ll_usb.c ****   uint32_t USBx_BASE = (uint32_t)USBx;
 4251              		.loc 1 1648 21 view .LVU1436
 4252 012c 0022     		movs	r2, #0
 4253 012e 9146     		mov	r9, r2
 4254 0130 9FE7     		b	.L255
 4255              	.LVL313:
 4256              	.L271:
1728:Drivers/STM32H7xx_HAL_Driver/Src/stm32h7xx_ll_usb.c ****   }
 4257              		.loc 1 1728 17 view .LVU1437
 4258 0132 4FF40043 		mov	r3, #32768
 4259 0136 1F46     		mov	r7, r3
 4260 0138 B3E7     		b	.L258
 4261              	.LVL314:
 4262              	.L264:
1744:Drivers/STM32H7xx_HAL_Driver/Src/stm32h7xx_ll_usb.c ****   }
 4263              		.loc 1 1744 20 view .LVU1438
 4264 013a 1A46     		mov	r2, r3
 4265 013c C0E7     		b	.L259
 4266              		.cfi_endproc
 4267              	.LFE391:
 4269              		.section	.text.USB_HC_ReadInterrupt,"ax",%progbits
 4270              		.align	1
 4271              		.global	USB_HC_ReadInterrupt
 4272              		.syntax unified
 4273              		.thumb
 4274              		.thumb_func
 4276              	USB_HC_ReadInterrupt:
 4277              	.LVL315:
 4278              	.LFB393:
1760:Drivers/STM32H7xx_HAL_Driver/Src/stm32h7xx_ll_usb.c **** 
1761:Drivers/STM32H7xx_HAL_Driver/Src/stm32h7xx_ll_usb.c **** /**
1762:Drivers/STM32H7xx_HAL_Driver/Src/stm32h7xx_ll_usb.c ****   * @brief  Start a transfer over a host channel
1763:Drivers/STM32H7xx_HAL_Driver/Src/stm32h7xx_ll_usb.c ****   * @param  USBx  Selected device
1764:Drivers/STM32H7xx_HAL_Driver/Src/stm32h7xx_ll_usb.c ****   * @param  hc  pointer to host channel structure
1765:Drivers/STM32H7xx_HAL_Driver/Src/stm32h7xx_ll_usb.c ****   * @param  dma USB dma enabled or disabled
1766:Drivers/STM32H7xx_HAL_Driver/Src/stm32h7xx_ll_usb.c ****   *          This parameter can be one of these values:
1767:Drivers/STM32H7xx_HAL_Driver/Src/stm32h7xx_ll_usb.c ****   *           0 : DMA feature not used
1768:Drivers/STM32H7xx_HAL_Driver/Src/stm32h7xx_ll_usb.c ****   *           1 : DMA feature used
1769:Drivers/STM32H7xx_HAL_Driver/Src/stm32h7xx_ll_usb.c ****   * @retval HAL state
1770:Drivers/STM32H7xx_HAL_Driver/Src/stm32h7xx_ll_usb.c ****   */
1771:Drivers/STM32H7xx_HAL_Driver/Src/stm32h7xx_ll_usb.c **** HAL_StatusTypeDef USB_HC_StartXfer(USB_OTG_GlobalTypeDef *USBx, USB_OTG_HCTypeDef *hc, uint8_t dma)
1772:Drivers/STM32H7xx_HAL_Driver/Src/stm32h7xx_ll_usb.c **** {
1773:Drivers/STM32H7xx_HAL_Driver/Src/stm32h7xx_ll_usb.c ****   uint32_t USBx_BASE = (uint32_t)USBx;
1774:Drivers/STM32H7xx_HAL_Driver/Src/stm32h7xx_ll_usb.c ****   uint32_t ch_num = (uint32_t)hc->ch_num;
1775:Drivers/STM32H7xx_HAL_Driver/Src/stm32h7xx_ll_usb.c ****   __IO uint32_t tmpreg;
1776:Drivers/STM32H7xx_HAL_Driver/Src/stm32h7xx_ll_usb.c ****   uint8_t  is_oddframe;
1777:Drivers/STM32H7xx_HAL_Driver/Src/stm32h7xx_ll_usb.c ****   uint16_t len_words;
1778:Drivers/STM32H7xx_HAL_Driver/Src/stm32h7xx_ll_usb.c ****   uint16_t num_packets;
1779:Drivers/STM32H7xx_HAL_Driver/Src/stm32h7xx_ll_usb.c ****   uint16_t max_hc_pkt_count = HC_MAX_PKT_CNT;
1780:Drivers/STM32H7xx_HAL_Driver/Src/stm32h7xx_ll_usb.c **** 
1781:Drivers/STM32H7xx_HAL_Driver/Src/stm32h7xx_ll_usb.c ****   /* in DMA mode host Core automatically issues ping in case of NYET/NAK */
ARM GAS  C:\Users\ADMINI~1\AppData\Local\Temp\cceMOlfx.s 			page 127


1782:Drivers/STM32H7xx_HAL_Driver/Src/stm32h7xx_ll_usb.c ****   if (dma == 1U)
1783:Drivers/STM32H7xx_HAL_Driver/Src/stm32h7xx_ll_usb.c ****   {
1784:Drivers/STM32H7xx_HAL_Driver/Src/stm32h7xx_ll_usb.c ****     if ((hc->ep_type == EP_TYPE_CTRL) || (hc->ep_type == EP_TYPE_BULK))
1785:Drivers/STM32H7xx_HAL_Driver/Src/stm32h7xx_ll_usb.c ****     {
1786:Drivers/STM32H7xx_HAL_Driver/Src/stm32h7xx_ll_usb.c **** 
1787:Drivers/STM32H7xx_HAL_Driver/Src/stm32h7xx_ll_usb.c ****       USBx_HC((uint32_t)ch_num)->HCINTMSK &= ~(USB_OTG_HCINTMSK_NYET |
1788:Drivers/STM32H7xx_HAL_Driver/Src/stm32h7xx_ll_usb.c ****                                                USB_OTG_HCINTMSK_ACKM |
1789:Drivers/STM32H7xx_HAL_Driver/Src/stm32h7xx_ll_usb.c ****                                                USB_OTG_HCINTMSK_NAKM);
1790:Drivers/STM32H7xx_HAL_Driver/Src/stm32h7xx_ll_usb.c ****     }
1791:Drivers/STM32H7xx_HAL_Driver/Src/stm32h7xx_ll_usb.c ****   }
1792:Drivers/STM32H7xx_HAL_Driver/Src/stm32h7xx_ll_usb.c ****   else
1793:Drivers/STM32H7xx_HAL_Driver/Src/stm32h7xx_ll_usb.c ****   {
1794:Drivers/STM32H7xx_HAL_Driver/Src/stm32h7xx_ll_usb.c ****     if ((hc->speed == USBH_HS_SPEED) && (hc->do_ping == 1U))
1795:Drivers/STM32H7xx_HAL_Driver/Src/stm32h7xx_ll_usb.c ****     {
1796:Drivers/STM32H7xx_HAL_Driver/Src/stm32h7xx_ll_usb.c ****       (void)USB_DoPing(USBx, hc->ch_num);
1797:Drivers/STM32H7xx_HAL_Driver/Src/stm32h7xx_ll_usb.c ****       return HAL_OK;
1798:Drivers/STM32H7xx_HAL_Driver/Src/stm32h7xx_ll_usb.c ****     }
1799:Drivers/STM32H7xx_HAL_Driver/Src/stm32h7xx_ll_usb.c ****   }
1800:Drivers/STM32H7xx_HAL_Driver/Src/stm32h7xx_ll_usb.c **** 
1801:Drivers/STM32H7xx_HAL_Driver/Src/stm32h7xx_ll_usb.c ****   if (hc->do_ssplit == 1U)
1802:Drivers/STM32H7xx_HAL_Driver/Src/stm32h7xx_ll_usb.c ****   {
1803:Drivers/STM32H7xx_HAL_Driver/Src/stm32h7xx_ll_usb.c ****     /* Set number of packet to 1 for Split transaction */
1804:Drivers/STM32H7xx_HAL_Driver/Src/stm32h7xx_ll_usb.c ****     num_packets = 1U;
1805:Drivers/STM32H7xx_HAL_Driver/Src/stm32h7xx_ll_usb.c **** 
1806:Drivers/STM32H7xx_HAL_Driver/Src/stm32h7xx_ll_usb.c ****     if (hc->ep_is_in != 0U)
1807:Drivers/STM32H7xx_HAL_Driver/Src/stm32h7xx_ll_usb.c ****     {
1808:Drivers/STM32H7xx_HAL_Driver/Src/stm32h7xx_ll_usb.c ****       hc->XferSize = (uint32_t)num_packets * hc->max_packet;
1809:Drivers/STM32H7xx_HAL_Driver/Src/stm32h7xx_ll_usb.c ****     }
1810:Drivers/STM32H7xx_HAL_Driver/Src/stm32h7xx_ll_usb.c ****     else
1811:Drivers/STM32H7xx_HAL_Driver/Src/stm32h7xx_ll_usb.c ****     {
1812:Drivers/STM32H7xx_HAL_Driver/Src/stm32h7xx_ll_usb.c ****       if (hc->ep_type == EP_TYPE_ISOC)
1813:Drivers/STM32H7xx_HAL_Driver/Src/stm32h7xx_ll_usb.c ****       {
1814:Drivers/STM32H7xx_HAL_Driver/Src/stm32h7xx_ll_usb.c ****         if (hc->xfer_len > ISO_SPLT_MPS)
1815:Drivers/STM32H7xx_HAL_Driver/Src/stm32h7xx_ll_usb.c ****         {
1816:Drivers/STM32H7xx_HAL_Driver/Src/stm32h7xx_ll_usb.c ****           /* Isochrone Max Packet Size for Split mode */
1817:Drivers/STM32H7xx_HAL_Driver/Src/stm32h7xx_ll_usb.c ****           hc->XferSize = hc->max_packet;
1818:Drivers/STM32H7xx_HAL_Driver/Src/stm32h7xx_ll_usb.c ****           hc->xfer_len = hc->XferSize;
1819:Drivers/STM32H7xx_HAL_Driver/Src/stm32h7xx_ll_usb.c **** 
1820:Drivers/STM32H7xx_HAL_Driver/Src/stm32h7xx_ll_usb.c ****           if ((hc->iso_splt_xactPos == HCSPLT_BEGIN) || (hc->iso_splt_xactPos == HCSPLT_MIDDLE))
1821:Drivers/STM32H7xx_HAL_Driver/Src/stm32h7xx_ll_usb.c ****           {
1822:Drivers/STM32H7xx_HAL_Driver/Src/stm32h7xx_ll_usb.c ****             hc->iso_splt_xactPos = HCSPLT_MIDDLE;
1823:Drivers/STM32H7xx_HAL_Driver/Src/stm32h7xx_ll_usb.c ****           }
1824:Drivers/STM32H7xx_HAL_Driver/Src/stm32h7xx_ll_usb.c ****           else
1825:Drivers/STM32H7xx_HAL_Driver/Src/stm32h7xx_ll_usb.c ****           {
1826:Drivers/STM32H7xx_HAL_Driver/Src/stm32h7xx_ll_usb.c ****             hc->iso_splt_xactPos = HCSPLT_BEGIN;
1827:Drivers/STM32H7xx_HAL_Driver/Src/stm32h7xx_ll_usb.c ****           }
1828:Drivers/STM32H7xx_HAL_Driver/Src/stm32h7xx_ll_usb.c ****         }
1829:Drivers/STM32H7xx_HAL_Driver/Src/stm32h7xx_ll_usb.c ****         else
1830:Drivers/STM32H7xx_HAL_Driver/Src/stm32h7xx_ll_usb.c ****         {
1831:Drivers/STM32H7xx_HAL_Driver/Src/stm32h7xx_ll_usb.c ****           hc->XferSize = hc->xfer_len;
1832:Drivers/STM32H7xx_HAL_Driver/Src/stm32h7xx_ll_usb.c **** 
1833:Drivers/STM32H7xx_HAL_Driver/Src/stm32h7xx_ll_usb.c ****           if ((hc->iso_splt_xactPos != HCSPLT_BEGIN) && (hc->iso_splt_xactPos != HCSPLT_MIDDLE))
1834:Drivers/STM32H7xx_HAL_Driver/Src/stm32h7xx_ll_usb.c ****           {
1835:Drivers/STM32H7xx_HAL_Driver/Src/stm32h7xx_ll_usb.c ****             hc->iso_splt_xactPos = HCSPLT_FULL;
1836:Drivers/STM32H7xx_HAL_Driver/Src/stm32h7xx_ll_usb.c ****           }
1837:Drivers/STM32H7xx_HAL_Driver/Src/stm32h7xx_ll_usb.c ****           else
1838:Drivers/STM32H7xx_HAL_Driver/Src/stm32h7xx_ll_usb.c ****           {
ARM GAS  C:\Users\ADMINI~1\AppData\Local\Temp\cceMOlfx.s 			page 128


1839:Drivers/STM32H7xx_HAL_Driver/Src/stm32h7xx_ll_usb.c ****             hc->iso_splt_xactPos = HCSPLT_END;
1840:Drivers/STM32H7xx_HAL_Driver/Src/stm32h7xx_ll_usb.c ****           }
1841:Drivers/STM32H7xx_HAL_Driver/Src/stm32h7xx_ll_usb.c ****         }
1842:Drivers/STM32H7xx_HAL_Driver/Src/stm32h7xx_ll_usb.c ****       }
1843:Drivers/STM32H7xx_HAL_Driver/Src/stm32h7xx_ll_usb.c ****       else
1844:Drivers/STM32H7xx_HAL_Driver/Src/stm32h7xx_ll_usb.c ****       {
1845:Drivers/STM32H7xx_HAL_Driver/Src/stm32h7xx_ll_usb.c ****         if ((dma == 1U) && (hc->xfer_len > hc->max_packet))
1846:Drivers/STM32H7xx_HAL_Driver/Src/stm32h7xx_ll_usb.c ****         {
1847:Drivers/STM32H7xx_HAL_Driver/Src/stm32h7xx_ll_usb.c ****           hc->XferSize = (uint32_t)num_packets * hc->max_packet;
1848:Drivers/STM32H7xx_HAL_Driver/Src/stm32h7xx_ll_usb.c ****         }
1849:Drivers/STM32H7xx_HAL_Driver/Src/stm32h7xx_ll_usb.c ****         else
1850:Drivers/STM32H7xx_HAL_Driver/Src/stm32h7xx_ll_usb.c ****         {
1851:Drivers/STM32H7xx_HAL_Driver/Src/stm32h7xx_ll_usb.c ****           hc->XferSize = hc->xfer_len;
1852:Drivers/STM32H7xx_HAL_Driver/Src/stm32h7xx_ll_usb.c ****         }
1853:Drivers/STM32H7xx_HAL_Driver/Src/stm32h7xx_ll_usb.c ****       }
1854:Drivers/STM32H7xx_HAL_Driver/Src/stm32h7xx_ll_usb.c ****     }
1855:Drivers/STM32H7xx_HAL_Driver/Src/stm32h7xx_ll_usb.c ****   }
1856:Drivers/STM32H7xx_HAL_Driver/Src/stm32h7xx_ll_usb.c ****   else
1857:Drivers/STM32H7xx_HAL_Driver/Src/stm32h7xx_ll_usb.c ****   {
1858:Drivers/STM32H7xx_HAL_Driver/Src/stm32h7xx_ll_usb.c ****     /* Compute the expected number of packets associated to the transfer */
1859:Drivers/STM32H7xx_HAL_Driver/Src/stm32h7xx_ll_usb.c ****     if (hc->xfer_len > 0U)
1860:Drivers/STM32H7xx_HAL_Driver/Src/stm32h7xx_ll_usb.c ****     {
1861:Drivers/STM32H7xx_HAL_Driver/Src/stm32h7xx_ll_usb.c ****       num_packets = (uint16_t)((hc->xfer_len + hc->max_packet - 1U) / hc->max_packet);
1862:Drivers/STM32H7xx_HAL_Driver/Src/stm32h7xx_ll_usb.c **** 
1863:Drivers/STM32H7xx_HAL_Driver/Src/stm32h7xx_ll_usb.c ****       if (num_packets > max_hc_pkt_count)
1864:Drivers/STM32H7xx_HAL_Driver/Src/stm32h7xx_ll_usb.c ****       {
1865:Drivers/STM32H7xx_HAL_Driver/Src/stm32h7xx_ll_usb.c ****         num_packets = max_hc_pkt_count;
1866:Drivers/STM32H7xx_HAL_Driver/Src/stm32h7xx_ll_usb.c ****         hc->XferSize = (uint32_t)num_packets * hc->max_packet;
1867:Drivers/STM32H7xx_HAL_Driver/Src/stm32h7xx_ll_usb.c ****       }
1868:Drivers/STM32H7xx_HAL_Driver/Src/stm32h7xx_ll_usb.c ****     }
1869:Drivers/STM32H7xx_HAL_Driver/Src/stm32h7xx_ll_usb.c ****     else
1870:Drivers/STM32H7xx_HAL_Driver/Src/stm32h7xx_ll_usb.c ****     {
1871:Drivers/STM32H7xx_HAL_Driver/Src/stm32h7xx_ll_usb.c ****       num_packets = 1U;
1872:Drivers/STM32H7xx_HAL_Driver/Src/stm32h7xx_ll_usb.c ****     }
1873:Drivers/STM32H7xx_HAL_Driver/Src/stm32h7xx_ll_usb.c **** 
1874:Drivers/STM32H7xx_HAL_Driver/Src/stm32h7xx_ll_usb.c ****     /*
1875:Drivers/STM32H7xx_HAL_Driver/Src/stm32h7xx_ll_usb.c ****     * For IN channel HCTSIZ.XferSize is expected to be an integer multiple of
1876:Drivers/STM32H7xx_HAL_Driver/Src/stm32h7xx_ll_usb.c ****     * max_packet size.
1877:Drivers/STM32H7xx_HAL_Driver/Src/stm32h7xx_ll_usb.c ****     */
1878:Drivers/STM32H7xx_HAL_Driver/Src/stm32h7xx_ll_usb.c ****     if (hc->ep_is_in != 0U)
1879:Drivers/STM32H7xx_HAL_Driver/Src/stm32h7xx_ll_usb.c ****     {
1880:Drivers/STM32H7xx_HAL_Driver/Src/stm32h7xx_ll_usb.c ****       hc->XferSize = (uint32_t)num_packets * hc->max_packet;
1881:Drivers/STM32H7xx_HAL_Driver/Src/stm32h7xx_ll_usb.c ****     }
1882:Drivers/STM32H7xx_HAL_Driver/Src/stm32h7xx_ll_usb.c ****     else
1883:Drivers/STM32H7xx_HAL_Driver/Src/stm32h7xx_ll_usb.c ****     {
1884:Drivers/STM32H7xx_HAL_Driver/Src/stm32h7xx_ll_usb.c ****       hc->XferSize = hc->xfer_len;
1885:Drivers/STM32H7xx_HAL_Driver/Src/stm32h7xx_ll_usb.c ****     }
1886:Drivers/STM32H7xx_HAL_Driver/Src/stm32h7xx_ll_usb.c ****   }
1887:Drivers/STM32H7xx_HAL_Driver/Src/stm32h7xx_ll_usb.c **** 
1888:Drivers/STM32H7xx_HAL_Driver/Src/stm32h7xx_ll_usb.c ****   /* Initialize the HCTSIZn register */
1889:Drivers/STM32H7xx_HAL_Driver/Src/stm32h7xx_ll_usb.c ****   USBx_HC(ch_num)->HCTSIZ = (hc->XferSize & USB_OTG_HCTSIZ_XFRSIZ) |
1890:Drivers/STM32H7xx_HAL_Driver/Src/stm32h7xx_ll_usb.c ****                             (((uint32_t)num_packets << 19) & USB_OTG_HCTSIZ_PKTCNT) |
1891:Drivers/STM32H7xx_HAL_Driver/Src/stm32h7xx_ll_usb.c ****                             (((uint32_t)hc->data_pid << 29) & USB_OTG_HCTSIZ_DPID);
1892:Drivers/STM32H7xx_HAL_Driver/Src/stm32h7xx_ll_usb.c **** 
1893:Drivers/STM32H7xx_HAL_Driver/Src/stm32h7xx_ll_usb.c ****   if (dma != 0U)
1894:Drivers/STM32H7xx_HAL_Driver/Src/stm32h7xx_ll_usb.c ****   {
1895:Drivers/STM32H7xx_HAL_Driver/Src/stm32h7xx_ll_usb.c ****     /* xfer_buff MUST be 32-bits aligned */
ARM GAS  C:\Users\ADMINI~1\AppData\Local\Temp\cceMOlfx.s 			page 129


1896:Drivers/STM32H7xx_HAL_Driver/Src/stm32h7xx_ll_usb.c ****     USBx_HC(ch_num)->HCDMA = (uint32_t)hc->xfer_buff;
1897:Drivers/STM32H7xx_HAL_Driver/Src/stm32h7xx_ll_usb.c ****   }
1898:Drivers/STM32H7xx_HAL_Driver/Src/stm32h7xx_ll_usb.c **** 
1899:Drivers/STM32H7xx_HAL_Driver/Src/stm32h7xx_ll_usb.c ****   is_oddframe = (((uint32_t)USBx_HOST->HFNUM & 0x01U) != 0U) ? 0U : 1U;
1900:Drivers/STM32H7xx_HAL_Driver/Src/stm32h7xx_ll_usb.c ****   USBx_HC(ch_num)->HCCHAR &= ~USB_OTG_HCCHAR_ODDFRM;
1901:Drivers/STM32H7xx_HAL_Driver/Src/stm32h7xx_ll_usb.c ****   USBx_HC(ch_num)->HCCHAR |= (uint32_t)is_oddframe << 29;
1902:Drivers/STM32H7xx_HAL_Driver/Src/stm32h7xx_ll_usb.c **** 
1903:Drivers/STM32H7xx_HAL_Driver/Src/stm32h7xx_ll_usb.c ****   if (hc->do_ssplit == 1U)
1904:Drivers/STM32H7xx_HAL_Driver/Src/stm32h7xx_ll_usb.c ****   {
1905:Drivers/STM32H7xx_HAL_Driver/Src/stm32h7xx_ll_usb.c ****     /* Set Hub start Split transaction */
1906:Drivers/STM32H7xx_HAL_Driver/Src/stm32h7xx_ll_usb.c ****     USBx_HC((uint32_t)ch_num)->HCSPLT = ((uint32_t)hc->hub_addr << USB_OTG_HCSPLT_HUBADDR_Pos) |
1907:Drivers/STM32H7xx_HAL_Driver/Src/stm32h7xx_ll_usb.c ****                                         (uint32_t)hc->hub_port_nbr | USB_OTG_HCSPLT_SPLITEN;
1908:Drivers/STM32H7xx_HAL_Driver/Src/stm32h7xx_ll_usb.c **** 
1909:Drivers/STM32H7xx_HAL_Driver/Src/stm32h7xx_ll_usb.c ****     /* unmask ack & nyet for IN/OUT transactions */
1910:Drivers/STM32H7xx_HAL_Driver/Src/stm32h7xx_ll_usb.c ****     USBx_HC((uint32_t)ch_num)->HCINTMSK |= (USB_OTG_HCINTMSK_ACKM |
1911:Drivers/STM32H7xx_HAL_Driver/Src/stm32h7xx_ll_usb.c ****                                             USB_OTG_HCINTMSK_NYET);
1912:Drivers/STM32H7xx_HAL_Driver/Src/stm32h7xx_ll_usb.c **** 
1913:Drivers/STM32H7xx_HAL_Driver/Src/stm32h7xx_ll_usb.c ****     if ((hc->do_csplit == 1U) && (hc->ep_is_in == 0U))
1914:Drivers/STM32H7xx_HAL_Driver/Src/stm32h7xx_ll_usb.c ****     {
1915:Drivers/STM32H7xx_HAL_Driver/Src/stm32h7xx_ll_usb.c ****       USBx_HC((uint32_t)ch_num)->HCSPLT |= USB_OTG_HCSPLT_COMPLSPLT;
1916:Drivers/STM32H7xx_HAL_Driver/Src/stm32h7xx_ll_usb.c ****       USBx_HC((uint32_t)ch_num)->HCINTMSK |= USB_OTG_HCINTMSK_NYET;
1917:Drivers/STM32H7xx_HAL_Driver/Src/stm32h7xx_ll_usb.c ****     }
1918:Drivers/STM32H7xx_HAL_Driver/Src/stm32h7xx_ll_usb.c **** 
1919:Drivers/STM32H7xx_HAL_Driver/Src/stm32h7xx_ll_usb.c ****     if (((hc->ep_type == EP_TYPE_ISOC) || (hc->ep_type == EP_TYPE_INTR)) &&
1920:Drivers/STM32H7xx_HAL_Driver/Src/stm32h7xx_ll_usb.c ****         (hc->do_csplit == 1U) && (hc->ep_is_in == 1U))
1921:Drivers/STM32H7xx_HAL_Driver/Src/stm32h7xx_ll_usb.c ****     {
1922:Drivers/STM32H7xx_HAL_Driver/Src/stm32h7xx_ll_usb.c ****       USBx_HC((uint32_t)ch_num)->HCSPLT |= USB_OTG_HCSPLT_COMPLSPLT;
1923:Drivers/STM32H7xx_HAL_Driver/Src/stm32h7xx_ll_usb.c ****     }
1924:Drivers/STM32H7xx_HAL_Driver/Src/stm32h7xx_ll_usb.c **** 
1925:Drivers/STM32H7xx_HAL_Driver/Src/stm32h7xx_ll_usb.c ****     /* Position management for iso out transaction on split mode */
1926:Drivers/STM32H7xx_HAL_Driver/Src/stm32h7xx_ll_usb.c ****     if ((hc->ep_type == EP_TYPE_ISOC) && (hc->ep_is_in == 0U))
1927:Drivers/STM32H7xx_HAL_Driver/Src/stm32h7xx_ll_usb.c ****     {
1928:Drivers/STM32H7xx_HAL_Driver/Src/stm32h7xx_ll_usb.c ****       /* Set data payload position */
1929:Drivers/STM32H7xx_HAL_Driver/Src/stm32h7xx_ll_usb.c ****       switch (hc->iso_splt_xactPos)
1930:Drivers/STM32H7xx_HAL_Driver/Src/stm32h7xx_ll_usb.c ****       {
1931:Drivers/STM32H7xx_HAL_Driver/Src/stm32h7xx_ll_usb.c ****         case HCSPLT_BEGIN:
1932:Drivers/STM32H7xx_HAL_Driver/Src/stm32h7xx_ll_usb.c ****           /* First data payload for OUT Transaction */
1933:Drivers/STM32H7xx_HAL_Driver/Src/stm32h7xx_ll_usb.c ****           USBx_HC((uint32_t)ch_num)->HCSPLT |= USB_OTG_HCSPLT_XACTPOS_1;
1934:Drivers/STM32H7xx_HAL_Driver/Src/stm32h7xx_ll_usb.c ****           break;
1935:Drivers/STM32H7xx_HAL_Driver/Src/stm32h7xx_ll_usb.c **** 
1936:Drivers/STM32H7xx_HAL_Driver/Src/stm32h7xx_ll_usb.c ****         case HCSPLT_MIDDLE:
1937:Drivers/STM32H7xx_HAL_Driver/Src/stm32h7xx_ll_usb.c ****           /* Middle data payload for OUT Transaction */
1938:Drivers/STM32H7xx_HAL_Driver/Src/stm32h7xx_ll_usb.c ****           USBx_HC((uint32_t)ch_num)->HCSPLT |= USB_OTG_HCSPLT_XACTPOS_Pos;
1939:Drivers/STM32H7xx_HAL_Driver/Src/stm32h7xx_ll_usb.c ****           break;
1940:Drivers/STM32H7xx_HAL_Driver/Src/stm32h7xx_ll_usb.c **** 
1941:Drivers/STM32H7xx_HAL_Driver/Src/stm32h7xx_ll_usb.c ****         case HCSPLT_END:
1942:Drivers/STM32H7xx_HAL_Driver/Src/stm32h7xx_ll_usb.c ****           /* End data payload for OUT Transaction */
1943:Drivers/STM32H7xx_HAL_Driver/Src/stm32h7xx_ll_usb.c ****           USBx_HC((uint32_t)ch_num)->HCSPLT |= USB_OTG_HCSPLT_XACTPOS_0;
1944:Drivers/STM32H7xx_HAL_Driver/Src/stm32h7xx_ll_usb.c ****           break;
1945:Drivers/STM32H7xx_HAL_Driver/Src/stm32h7xx_ll_usb.c **** 
1946:Drivers/STM32H7xx_HAL_Driver/Src/stm32h7xx_ll_usb.c ****         case HCSPLT_FULL:
1947:Drivers/STM32H7xx_HAL_Driver/Src/stm32h7xx_ll_usb.c ****           /* Entire data payload for OUT Transaction */
1948:Drivers/STM32H7xx_HAL_Driver/Src/stm32h7xx_ll_usb.c ****           USBx_HC((uint32_t)ch_num)->HCSPLT |= USB_OTG_HCSPLT_XACTPOS;
1949:Drivers/STM32H7xx_HAL_Driver/Src/stm32h7xx_ll_usb.c ****           break;
1950:Drivers/STM32H7xx_HAL_Driver/Src/stm32h7xx_ll_usb.c **** 
1951:Drivers/STM32H7xx_HAL_Driver/Src/stm32h7xx_ll_usb.c ****         default:
1952:Drivers/STM32H7xx_HAL_Driver/Src/stm32h7xx_ll_usb.c ****           break;
ARM GAS  C:\Users\ADMINI~1\AppData\Local\Temp\cceMOlfx.s 			page 130


1953:Drivers/STM32H7xx_HAL_Driver/Src/stm32h7xx_ll_usb.c ****       }
1954:Drivers/STM32H7xx_HAL_Driver/Src/stm32h7xx_ll_usb.c ****     }
1955:Drivers/STM32H7xx_HAL_Driver/Src/stm32h7xx_ll_usb.c ****   }
1956:Drivers/STM32H7xx_HAL_Driver/Src/stm32h7xx_ll_usb.c ****   else
1957:Drivers/STM32H7xx_HAL_Driver/Src/stm32h7xx_ll_usb.c ****   {
1958:Drivers/STM32H7xx_HAL_Driver/Src/stm32h7xx_ll_usb.c ****     /* Clear Hub Start Split transaction */
1959:Drivers/STM32H7xx_HAL_Driver/Src/stm32h7xx_ll_usb.c ****     USBx_HC((uint32_t)ch_num)->HCSPLT = 0U;
1960:Drivers/STM32H7xx_HAL_Driver/Src/stm32h7xx_ll_usb.c ****   }
1961:Drivers/STM32H7xx_HAL_Driver/Src/stm32h7xx_ll_usb.c **** 
1962:Drivers/STM32H7xx_HAL_Driver/Src/stm32h7xx_ll_usb.c ****   /* Set host channel enable */
1963:Drivers/STM32H7xx_HAL_Driver/Src/stm32h7xx_ll_usb.c ****   tmpreg = USBx_HC(ch_num)->HCCHAR;
1964:Drivers/STM32H7xx_HAL_Driver/Src/stm32h7xx_ll_usb.c ****   tmpreg &= ~USB_OTG_HCCHAR_CHDIS;
1965:Drivers/STM32H7xx_HAL_Driver/Src/stm32h7xx_ll_usb.c **** 
1966:Drivers/STM32H7xx_HAL_Driver/Src/stm32h7xx_ll_usb.c ****   /* make sure to set the correct ep direction */
1967:Drivers/STM32H7xx_HAL_Driver/Src/stm32h7xx_ll_usb.c ****   if (hc->ep_is_in != 0U)
1968:Drivers/STM32H7xx_HAL_Driver/Src/stm32h7xx_ll_usb.c ****   {
1969:Drivers/STM32H7xx_HAL_Driver/Src/stm32h7xx_ll_usb.c ****     tmpreg |= USB_OTG_HCCHAR_EPDIR;
1970:Drivers/STM32H7xx_HAL_Driver/Src/stm32h7xx_ll_usb.c ****   }
1971:Drivers/STM32H7xx_HAL_Driver/Src/stm32h7xx_ll_usb.c ****   else
1972:Drivers/STM32H7xx_HAL_Driver/Src/stm32h7xx_ll_usb.c ****   {
1973:Drivers/STM32H7xx_HAL_Driver/Src/stm32h7xx_ll_usb.c ****     tmpreg &= ~USB_OTG_HCCHAR_EPDIR;
1974:Drivers/STM32H7xx_HAL_Driver/Src/stm32h7xx_ll_usb.c ****   }
1975:Drivers/STM32H7xx_HAL_Driver/Src/stm32h7xx_ll_usb.c ****   tmpreg |= USB_OTG_HCCHAR_CHENA;
1976:Drivers/STM32H7xx_HAL_Driver/Src/stm32h7xx_ll_usb.c ****   USBx_HC(ch_num)->HCCHAR = tmpreg;
1977:Drivers/STM32H7xx_HAL_Driver/Src/stm32h7xx_ll_usb.c **** 
1978:Drivers/STM32H7xx_HAL_Driver/Src/stm32h7xx_ll_usb.c ****   if (dma != 0U) /* dma mode */
1979:Drivers/STM32H7xx_HAL_Driver/Src/stm32h7xx_ll_usb.c ****   {
1980:Drivers/STM32H7xx_HAL_Driver/Src/stm32h7xx_ll_usb.c ****     return HAL_OK;
1981:Drivers/STM32H7xx_HAL_Driver/Src/stm32h7xx_ll_usb.c ****   }
1982:Drivers/STM32H7xx_HAL_Driver/Src/stm32h7xx_ll_usb.c **** 
1983:Drivers/STM32H7xx_HAL_Driver/Src/stm32h7xx_ll_usb.c ****   if ((hc->ep_is_in == 0U) && (hc->xfer_len > 0U) && (hc->do_csplit == 0U))
1984:Drivers/STM32H7xx_HAL_Driver/Src/stm32h7xx_ll_usb.c ****   {
1985:Drivers/STM32H7xx_HAL_Driver/Src/stm32h7xx_ll_usb.c ****     switch (hc->ep_type)
1986:Drivers/STM32H7xx_HAL_Driver/Src/stm32h7xx_ll_usb.c ****     {
1987:Drivers/STM32H7xx_HAL_Driver/Src/stm32h7xx_ll_usb.c ****       /* Non periodic transfer */
1988:Drivers/STM32H7xx_HAL_Driver/Src/stm32h7xx_ll_usb.c ****       case EP_TYPE_CTRL:
1989:Drivers/STM32H7xx_HAL_Driver/Src/stm32h7xx_ll_usb.c ****       case EP_TYPE_BULK:
1990:Drivers/STM32H7xx_HAL_Driver/Src/stm32h7xx_ll_usb.c **** 
1991:Drivers/STM32H7xx_HAL_Driver/Src/stm32h7xx_ll_usb.c ****         len_words = (uint16_t)((hc->xfer_len + 3U) / 4U);
1992:Drivers/STM32H7xx_HAL_Driver/Src/stm32h7xx_ll_usb.c **** 
1993:Drivers/STM32H7xx_HAL_Driver/Src/stm32h7xx_ll_usb.c ****         /* check if there is enough space in FIFO space */
1994:Drivers/STM32H7xx_HAL_Driver/Src/stm32h7xx_ll_usb.c ****         if (len_words > (USBx->HNPTXSTS & 0xFFFFU))
1995:Drivers/STM32H7xx_HAL_Driver/Src/stm32h7xx_ll_usb.c ****         {
1996:Drivers/STM32H7xx_HAL_Driver/Src/stm32h7xx_ll_usb.c ****           /* need to process data in nptxfempty interrupt */
1997:Drivers/STM32H7xx_HAL_Driver/Src/stm32h7xx_ll_usb.c ****           USBx->GINTMSK |= USB_OTG_GINTMSK_NPTXFEM;
1998:Drivers/STM32H7xx_HAL_Driver/Src/stm32h7xx_ll_usb.c ****         }
1999:Drivers/STM32H7xx_HAL_Driver/Src/stm32h7xx_ll_usb.c ****         break;
2000:Drivers/STM32H7xx_HAL_Driver/Src/stm32h7xx_ll_usb.c **** 
2001:Drivers/STM32H7xx_HAL_Driver/Src/stm32h7xx_ll_usb.c ****       /* Periodic transfer */
2002:Drivers/STM32H7xx_HAL_Driver/Src/stm32h7xx_ll_usb.c ****       case EP_TYPE_INTR:
2003:Drivers/STM32H7xx_HAL_Driver/Src/stm32h7xx_ll_usb.c ****       case EP_TYPE_ISOC:
2004:Drivers/STM32H7xx_HAL_Driver/Src/stm32h7xx_ll_usb.c ****         len_words = (uint16_t)((hc->xfer_len + 3U) / 4U);
2005:Drivers/STM32H7xx_HAL_Driver/Src/stm32h7xx_ll_usb.c ****         /* check if there is enough space in FIFO space */
2006:Drivers/STM32H7xx_HAL_Driver/Src/stm32h7xx_ll_usb.c ****         if (len_words > (USBx_HOST->HPTXSTS & 0xFFFFU)) /* split the transfer */
2007:Drivers/STM32H7xx_HAL_Driver/Src/stm32h7xx_ll_usb.c ****         {
2008:Drivers/STM32H7xx_HAL_Driver/Src/stm32h7xx_ll_usb.c ****           /* need to process data in ptxfempty interrupt */
2009:Drivers/STM32H7xx_HAL_Driver/Src/stm32h7xx_ll_usb.c ****           USBx->GINTMSK |= USB_OTG_GINTMSK_PTXFEM;
ARM GAS  C:\Users\ADMINI~1\AppData\Local\Temp\cceMOlfx.s 			page 131


2010:Drivers/STM32H7xx_HAL_Driver/Src/stm32h7xx_ll_usb.c ****         }
2011:Drivers/STM32H7xx_HAL_Driver/Src/stm32h7xx_ll_usb.c ****         break;
2012:Drivers/STM32H7xx_HAL_Driver/Src/stm32h7xx_ll_usb.c **** 
2013:Drivers/STM32H7xx_HAL_Driver/Src/stm32h7xx_ll_usb.c ****       default:
2014:Drivers/STM32H7xx_HAL_Driver/Src/stm32h7xx_ll_usb.c ****         break;
2015:Drivers/STM32H7xx_HAL_Driver/Src/stm32h7xx_ll_usb.c ****     }
2016:Drivers/STM32H7xx_HAL_Driver/Src/stm32h7xx_ll_usb.c **** 
2017:Drivers/STM32H7xx_HAL_Driver/Src/stm32h7xx_ll_usb.c ****     /* Write packet into the Tx FIFO. */
2018:Drivers/STM32H7xx_HAL_Driver/Src/stm32h7xx_ll_usb.c ****     (void)USB_WritePacket(USBx, hc->xfer_buff, hc->ch_num, (uint16_t)hc->xfer_len, 0);
2019:Drivers/STM32H7xx_HAL_Driver/Src/stm32h7xx_ll_usb.c ****   }
2020:Drivers/STM32H7xx_HAL_Driver/Src/stm32h7xx_ll_usb.c **** 
2021:Drivers/STM32H7xx_HAL_Driver/Src/stm32h7xx_ll_usb.c ****   return HAL_OK;
2022:Drivers/STM32H7xx_HAL_Driver/Src/stm32h7xx_ll_usb.c **** }
2023:Drivers/STM32H7xx_HAL_Driver/Src/stm32h7xx_ll_usb.c **** 
2024:Drivers/STM32H7xx_HAL_Driver/Src/stm32h7xx_ll_usb.c **** /**
2025:Drivers/STM32H7xx_HAL_Driver/Src/stm32h7xx_ll_usb.c ****   * @brief Read all host channel interrupts status
2026:Drivers/STM32H7xx_HAL_Driver/Src/stm32h7xx_ll_usb.c ****   * @param  USBx  Selected device
2027:Drivers/STM32H7xx_HAL_Driver/Src/stm32h7xx_ll_usb.c ****   * @retval HAL state
2028:Drivers/STM32H7xx_HAL_Driver/Src/stm32h7xx_ll_usb.c ****   */
2029:Drivers/STM32H7xx_HAL_Driver/Src/stm32h7xx_ll_usb.c **** uint32_t USB_HC_ReadInterrupt(const USB_OTG_GlobalTypeDef *USBx)
2030:Drivers/STM32H7xx_HAL_Driver/Src/stm32h7xx_ll_usb.c **** {
 4279              		.loc 1 2030 1 is_stmt 1 view -0
 4280              		.cfi_startproc
 4281              		@ args = 0, pretend = 0, frame = 0
 4282              		@ frame_needed = 0, uses_anonymous_args = 0
 4283              		@ link register save eliminated.
2031:Drivers/STM32H7xx_HAL_Driver/Src/stm32h7xx_ll_usb.c ****   uint32_t USBx_BASE = (uint32_t)USBx;
 4284              		.loc 1 2031 3 view .LVU1440
2032:Drivers/STM32H7xx_HAL_Driver/Src/stm32h7xx_ll_usb.c **** 
2033:Drivers/STM32H7xx_HAL_Driver/Src/stm32h7xx_ll_usb.c ****   return ((USBx_HOST->HAINT) & 0xFFFFU);
 4285              		.loc 1 2033 3 view .LVU1441
 4286              		.loc 1 2033 12 is_stmt 0 view .LVU1442
 4287 0000 00F58060 		add	r0, r0, #1024
 4288              	.LVL316:
 4289              		.loc 1 2033 21 view .LVU1443
 4290 0004 4069     		ldr	r0, [r0, #20]
 4291              	.LVL317:
2034:Drivers/STM32H7xx_HAL_Driver/Src/stm32h7xx_ll_usb.c **** }
 4292              		.loc 1 2034 1 view .LVU1444
 4293 0006 80B2     		uxth	r0, r0
 4294 0008 7047     		bx	lr
 4295              		.cfi_endproc
 4296              	.LFE393:
 4298              		.section	.text.USB_HC_Halt,"ax",%progbits
 4299              		.align	1
 4300              		.global	USB_HC_Halt
 4301              		.syntax unified
 4302              		.thumb
 4303              		.thumb_func
 4305              	USB_HC_Halt:
 4306              	.LVL318:
 4307              	.LFB394:
2035:Drivers/STM32H7xx_HAL_Driver/Src/stm32h7xx_ll_usb.c **** 
2036:Drivers/STM32H7xx_HAL_Driver/Src/stm32h7xx_ll_usb.c **** /**
2037:Drivers/STM32H7xx_HAL_Driver/Src/stm32h7xx_ll_usb.c ****   * @brief  Halt a host channel
2038:Drivers/STM32H7xx_HAL_Driver/Src/stm32h7xx_ll_usb.c ****   * @param  USBx  Selected device
2039:Drivers/STM32H7xx_HAL_Driver/Src/stm32h7xx_ll_usb.c ****   * @param  hc_num  Host Channel number
ARM GAS  C:\Users\ADMINI~1\AppData\Local\Temp\cceMOlfx.s 			page 132


2040:Drivers/STM32H7xx_HAL_Driver/Src/stm32h7xx_ll_usb.c ****   *         This parameter can be a value from 1 to 15
2041:Drivers/STM32H7xx_HAL_Driver/Src/stm32h7xx_ll_usb.c ****   * @retval HAL state
2042:Drivers/STM32H7xx_HAL_Driver/Src/stm32h7xx_ll_usb.c ****   */
2043:Drivers/STM32H7xx_HAL_Driver/Src/stm32h7xx_ll_usb.c **** HAL_StatusTypeDef USB_HC_Halt(const USB_OTG_GlobalTypeDef *USBx, uint8_t hc_num)
2044:Drivers/STM32H7xx_HAL_Driver/Src/stm32h7xx_ll_usb.c **** {
 4308              		.loc 1 2044 1 is_stmt 1 view -0
 4309              		.cfi_startproc
 4310              		@ args = 0, pretend = 0, frame = 8
 4311              		@ frame_needed = 0, uses_anonymous_args = 0
 4312              		.loc 1 2044 1 is_stmt 0 view .LVU1446
 4313 0000 10B5     		push	{r4, lr}
 4314              	.LCFI46:
 4315              		.cfi_def_cfa_offset 8
 4316              		.cfi_offset 4, -8
 4317              		.cfi_offset 14, -4
 4318 0002 82B0     		sub	sp, sp, #8
 4319              	.LCFI47:
 4320              		.cfi_def_cfa_offset 16
 4321 0004 0446     		mov	r4, r0
2045:Drivers/STM32H7xx_HAL_Driver/Src/stm32h7xx_ll_usb.c ****   uint32_t USBx_BASE = (uint32_t)USBx;
 4322              		.loc 1 2045 3 is_stmt 1 view .LVU1447
 4323              	.LVL319:
2046:Drivers/STM32H7xx_HAL_Driver/Src/stm32h7xx_ll_usb.c ****   uint32_t hcnum = (uint32_t)hc_num;
 4324              		.loc 1 2046 3 view .LVU1448
2047:Drivers/STM32H7xx_HAL_Driver/Src/stm32h7xx_ll_usb.c ****   __IO uint32_t count = 0U;
 4325              		.loc 1 2047 3 view .LVU1449
 4326              		.loc 1 2047 17 is_stmt 0 view .LVU1450
 4327 0006 0023     		movs	r3, #0
 4328 0008 0193     		str	r3, [sp, #4]
2048:Drivers/STM32H7xx_HAL_Driver/Src/stm32h7xx_ll_usb.c ****   uint32_t HcEpType = (USBx_HC(hcnum)->HCCHAR & USB_OTG_HCCHAR_EPTYP) >> 18;
 4329              		.loc 1 2048 3 is_stmt 1 view .LVU1451
 4330              		.loc 1 2048 24 is_stmt 0 view .LVU1452
 4331 000a 00EB4111 		add	r1, r0, r1, lsl #5
 4332              	.LVL320:
 4333              		.loc 1 2048 24 view .LVU1453
 4334 000e 01F5A062 		add	r2, r1, #1280
 4335              		.loc 1 2048 38 view .LVU1454
 4336 0012 D1F80035 		ldr	r3, [r1, #1280]
 4337              		.loc 1 2048 12 view .LVU1455
 4338 0016 C3F38143 		ubfx	r3, r3, #18, #2
 4339              	.LVL321:
2049:Drivers/STM32H7xx_HAL_Driver/Src/stm32h7xx_ll_usb.c ****   uint32_t ChannelEna = (USBx_HC(hcnum)->HCCHAR & USB_OTG_HCCHAR_CHENA) >> 31;
 4340              		.loc 1 2049 3 is_stmt 1 view .LVU1456
 4341              		.loc 1 2049 40 is_stmt 0 view .LVU1457
 4342 001a D1F80005 		ldr	r0, [r1, #1280]
 4343              	.LVL322:
 4344              		.loc 1 2049 73 view .LVU1458
 4345 001e 4FEAD07C 		lsr	ip, r0, #31
 4346              	.LVL323:
2050:Drivers/STM32H7xx_HAL_Driver/Src/stm32h7xx_ll_usb.c ****   uint32_t SplitEna = (USBx_HC(hcnum)->HCSPLT & USB_OTG_HCSPLT_SPLITEN) >> 31;
 4347              		.loc 1 2050 3 is_stmt 1 view .LVU1459
 4348              		.loc 1 2050 38 is_stmt 0 view .LVU1460
 4349 0022 5068     		ldr	r0, [r2, #4]
 4350              	.LVL324:
2051:Drivers/STM32H7xx_HAL_Driver/Src/stm32h7xx_ll_usb.c **** 
2052:Drivers/STM32H7xx_HAL_Driver/Src/stm32h7xx_ll_usb.c ****   /* In buffer DMA, Channel disable must not be programmed for non-split periodic channels.
2053:Drivers/STM32H7xx_HAL_Driver/Src/stm32h7xx_ll_usb.c ****      At the end of the next uframe/frame (in the worst case), the core generates a channel halted
ARM GAS  C:\Users\ADMINI~1\AppData\Local\Temp\cceMOlfx.s 			page 133


2054:Drivers/STM32H7xx_HAL_Driver/Src/stm32h7xx_ll_usb.c ****      and disables the channel automatically. */
2055:Drivers/STM32H7xx_HAL_Driver/Src/stm32h7xx_ll_usb.c **** 
2056:Drivers/STM32H7xx_HAL_Driver/Src/stm32h7xx_ll_usb.c ****   if ((((USBx->GAHBCFG & USB_OTG_GAHBCFG_DMAEN) == USB_OTG_GAHBCFG_DMAEN) && (SplitEna == 0U)) &&
 4351              		.loc 1 2056 3 is_stmt 1 view .LVU1461
 4352              		.loc 1 2056 14 is_stmt 0 view .LVU1462
 4353 0024 D4F808E0 		ldr	lr, [r4, #8]
 4354              		.loc 1 2056 6 view .LVU1463
 4355 0028 1EF0200F 		tst	lr, #32
 4356 002c 08D0     		beq	.L274
 4357 002e C00F     		lsrs	r0, r0, #31
 4358              	.LVL325:
 4359              		.loc 1 2056 75 discriminator 1 view .LVU1464
 4360 0030 30B9     		cbnz	r0, .L274
 4361              		.loc 1 2056 96 discriminator 2 view .LVU1465
 4362 0032 BCF1000F 		cmp	ip, #0
 4363 0036 39D0     		beq	.L275
2057:Drivers/STM32H7xx_HAL_Driver/Src/stm32h7xx_ll_usb.c ****       ((ChannelEna == 0U) || (((HcEpType == HCCHAR_ISOC) || (HcEpType == HCCHAR_INTR)))))
 4364              		.loc 1 2057 27 view .LVU1466
 4365 0038 032B     		cmp	r3, #3
 4366 003a 18BF     		it	ne
 4367 003c 012B     		cmpne	r3, #1
 4368 003e 35D0     		beq	.L275
 4369              	.LVL326:
 4370              	.L274:
2058:Drivers/STM32H7xx_HAL_Driver/Src/stm32h7xx_ll_usb.c ****   {
2059:Drivers/STM32H7xx_HAL_Driver/Src/stm32h7xx_ll_usb.c ****     return HAL_OK;
2060:Drivers/STM32H7xx_HAL_Driver/Src/stm32h7xx_ll_usb.c ****   }
2061:Drivers/STM32H7xx_HAL_Driver/Src/stm32h7xx_ll_usb.c **** 
2062:Drivers/STM32H7xx_HAL_Driver/Src/stm32h7xx_ll_usb.c ****   /* Check for space in the request queue to issue the halt. */
2063:Drivers/STM32H7xx_HAL_Driver/Src/stm32h7xx_ll_usb.c ****   if ((HcEpType == HCCHAR_CTRL) || (HcEpType == HCCHAR_BULK))
 4371              		.loc 1 2063 3 is_stmt 1 view .LVU1467
 4372              		.loc 1 2063 6 is_stmt 0 view .LVU1468
 4373 0040 022B     		cmp	r3, #2
 4374 0042 18BF     		it	ne
 4375 0044 002B     		cmpne	r3, #0
 4376 0046 34D1     		bne	.L276
2064:Drivers/STM32H7xx_HAL_Driver/Src/stm32h7xx_ll_usb.c ****   {
2065:Drivers/STM32H7xx_HAL_Driver/Src/stm32h7xx_ll_usb.c ****     USBx_HC(hcnum)->HCCHAR |= USB_OTG_HCCHAR_CHDIS;
 4377              		.loc 1 2065 5 is_stmt 1 view .LVU1469
 4378              		.loc 1 2065 19 is_stmt 0 view .LVU1470
 4379 0048 D1F80035 		ldr	r3, [r1, #1280]
 4380              	.LVL327:
 4381              		.loc 1 2065 28 view .LVU1471
 4382 004c 43F08043 		orr	r3, r3, #1073741824
 4383 0050 C1F80035 		str	r3, [r1, #1280]
2066:Drivers/STM32H7xx_HAL_Driver/Src/stm32h7xx_ll_usb.c **** 
2067:Drivers/STM32H7xx_HAL_Driver/Src/stm32h7xx_ll_usb.c ****     if ((USBx->GAHBCFG & USB_OTG_GAHBCFG_DMAEN) == 0U)
 4384              		.loc 1 2067 5 is_stmt 1 view .LVU1472
 4385              		.loc 1 2067 14 is_stmt 0 view .LVU1473
 4386 0054 A368     		ldr	r3, [r4, #8]
 4387              		.loc 1 2067 8 view .LVU1474
 4388 0056 13F0200F 		tst	r3, #32
 4389 005a 21D1     		bne	.L277
2068:Drivers/STM32H7xx_HAL_Driver/Src/stm32h7xx_ll_usb.c ****     {
2069:Drivers/STM32H7xx_HAL_Driver/Src/stm32h7xx_ll_usb.c ****       if ((USBx->HNPTXSTS & (0xFFU << 16)) == 0U)
 4390              		.loc 1 2069 7 is_stmt 1 view .LVU1475
 4391              		.loc 1 2069 16 is_stmt 0 view .LVU1476
ARM GAS  C:\Users\ADMINI~1\AppData\Local\Temp\cceMOlfx.s 			page 134


 4392 005c E36A     		ldr	r3, [r4, #44]
 4393              		.loc 1 2069 10 view .LVU1477
 4394 005e 13F47F0F 		tst	r3, #16711680
 4395 0062 16D1     		bne	.L278
2070:Drivers/STM32H7xx_HAL_Driver/Src/stm32h7xx_ll_usb.c ****       {
2071:Drivers/STM32H7xx_HAL_Driver/Src/stm32h7xx_ll_usb.c ****         USBx_HC(hcnum)->HCCHAR &= ~USB_OTG_HCCHAR_CHENA;
 4396              		.loc 1 2071 9 is_stmt 1 view .LVU1478
 4397              		.loc 1 2071 23 is_stmt 0 view .LVU1479
 4398 0064 D1F80035 		ldr	r3, [r1, #1280]
 4399              		.loc 1 2071 32 view .LVU1480
 4400 0068 23F00043 		bic	r3, r3, #-2147483648
 4401 006c C1F80035 		str	r3, [r1, #1280]
2072:Drivers/STM32H7xx_HAL_Driver/Src/stm32h7xx_ll_usb.c ****         USBx_HC(hcnum)->HCCHAR |= USB_OTG_HCCHAR_CHENA;
 4402              		.loc 1 2072 9 is_stmt 1 view .LVU1481
 4403              		.loc 1 2072 23 is_stmt 0 view .LVU1482
 4404 0070 D1F80035 		ldr	r3, [r1, #1280]
 4405              		.loc 1 2072 32 view .LVU1483
 4406 0074 43F00043 		orr	r3, r3, #-2147483648
 4407 0078 C1F80035 		str	r3, [r1, #1280]
 4408              	.L279:
2073:Drivers/STM32H7xx_HAL_Driver/Src/stm32h7xx_ll_usb.c ****         do
 4409              		.loc 1 2073 9 is_stmt 1 view .LVU1484
2074:Drivers/STM32H7xx_HAL_Driver/Src/stm32h7xx_ll_usb.c ****         {
2075:Drivers/STM32H7xx_HAL_Driver/Src/stm32h7xx_ll_usb.c ****           count++;
 4410              		.loc 1 2075 11 view .LVU1485
 4411              		.loc 1 2075 16 is_stmt 0 view .LVU1486
 4412 007c 019B     		ldr	r3, [sp, #4]
 4413 007e 0133     		adds	r3, r3, #1
 4414 0080 0193     		str	r3, [sp, #4]
2076:Drivers/STM32H7xx_HAL_Driver/Src/stm32h7xx_ll_usb.c **** 
2077:Drivers/STM32H7xx_HAL_Driver/Src/stm32h7xx_ll_usb.c ****           if (count > 1000U)
 4415              		.loc 1 2077 11 is_stmt 1 view .LVU1487
 4416              		.loc 1 2077 21 is_stmt 0 view .LVU1488
 4417 0082 019B     		ldr	r3, [sp, #4]
 4418              		.loc 1 2077 14 view .LVU1489
 4419 0084 B3F57A7F 		cmp	r3, #1000
 4420 0088 10D8     		bhi	.L275
2078:Drivers/STM32H7xx_HAL_Driver/Src/stm32h7xx_ll_usb.c ****           {
2079:Drivers/STM32H7xx_HAL_Driver/Src/stm32h7xx_ll_usb.c ****             break;
2080:Drivers/STM32H7xx_HAL_Driver/Src/stm32h7xx_ll_usb.c ****           }
2081:Drivers/STM32H7xx_HAL_Driver/Src/stm32h7xx_ll_usb.c ****         } while ((USBx_HC(hcnum)->HCCHAR & USB_OTG_HCCHAR_CHENA) == USB_OTG_HCCHAR_CHENA);
 4421              		.loc 1 2081 66 is_stmt 1 view .LVU1490
 4422              		.loc 1 2081 33 is_stmt 0 view .LVU1491
 4423 008a 1368     		ldr	r3, [r2]
 4424              		.loc 1 2081 66 view .LVU1492
 4425 008c 002B     		cmp	r3, #0
 4426 008e F5DB     		blt	.L279
 4427 0090 0CE0     		b	.L275
 4428              	.L278:
2082:Drivers/STM32H7xx_HAL_Driver/Src/stm32h7xx_ll_usb.c ****       }
2083:Drivers/STM32H7xx_HAL_Driver/Src/stm32h7xx_ll_usb.c ****       else
2084:Drivers/STM32H7xx_HAL_Driver/Src/stm32h7xx_ll_usb.c ****       {
2085:Drivers/STM32H7xx_HAL_Driver/Src/stm32h7xx_ll_usb.c ****         USBx_HC(hcnum)->HCCHAR |= USB_OTG_HCCHAR_CHENA;
 4429              		.loc 1 2085 9 is_stmt 1 view .LVU1493
 4430              		.loc 1 2085 23 is_stmt 0 view .LVU1494
 4431 0092 D1F80035 		ldr	r3, [r1, #1280]
 4432              		.loc 1 2085 32 view .LVU1495
ARM GAS  C:\Users\ADMINI~1\AppData\Local\Temp\cceMOlfx.s 			page 135


 4433 0096 43F00043 		orr	r3, r3, #-2147483648
 4434 009a C1F80035 		str	r3, [r1, #1280]
 4435 009e 05E0     		b	.L275
 4436              	.L277:
2086:Drivers/STM32H7xx_HAL_Driver/Src/stm32h7xx_ll_usb.c ****       }
2087:Drivers/STM32H7xx_HAL_Driver/Src/stm32h7xx_ll_usb.c ****     }
2088:Drivers/STM32H7xx_HAL_Driver/Src/stm32h7xx_ll_usb.c ****     else
2089:Drivers/STM32H7xx_HAL_Driver/Src/stm32h7xx_ll_usb.c ****     {
2090:Drivers/STM32H7xx_HAL_Driver/Src/stm32h7xx_ll_usb.c ****       USBx_HC(hcnum)->HCCHAR |= USB_OTG_HCCHAR_CHENA;
 4437              		.loc 1 2090 7 is_stmt 1 view .LVU1496
 4438              		.loc 1 2090 21 is_stmt 0 view .LVU1497
 4439 00a0 D1F80035 		ldr	r3, [r1, #1280]
 4440              		.loc 1 2090 30 view .LVU1498
 4441 00a4 43F00043 		orr	r3, r3, #-2147483648
 4442 00a8 C1F80035 		str	r3, [r1, #1280]
 4443              	.L275:
2091:Drivers/STM32H7xx_HAL_Driver/Src/stm32h7xx_ll_usb.c ****     }
2092:Drivers/STM32H7xx_HAL_Driver/Src/stm32h7xx_ll_usb.c ****   }
2093:Drivers/STM32H7xx_HAL_Driver/Src/stm32h7xx_ll_usb.c ****   else
2094:Drivers/STM32H7xx_HAL_Driver/Src/stm32h7xx_ll_usb.c ****   {
2095:Drivers/STM32H7xx_HAL_Driver/Src/stm32h7xx_ll_usb.c ****     USBx_HC(hcnum)->HCCHAR |= USB_OTG_HCCHAR_CHDIS;
2096:Drivers/STM32H7xx_HAL_Driver/Src/stm32h7xx_ll_usb.c **** 
2097:Drivers/STM32H7xx_HAL_Driver/Src/stm32h7xx_ll_usb.c ****     if ((USBx_HOST->HPTXSTS & (0xFFU << 16)) == 0U)
2098:Drivers/STM32H7xx_HAL_Driver/Src/stm32h7xx_ll_usb.c ****     {
2099:Drivers/STM32H7xx_HAL_Driver/Src/stm32h7xx_ll_usb.c ****       USBx_HC(hcnum)->HCCHAR &= ~USB_OTG_HCCHAR_CHENA;
2100:Drivers/STM32H7xx_HAL_Driver/Src/stm32h7xx_ll_usb.c ****       USBx_HC(hcnum)->HCCHAR |= USB_OTG_HCCHAR_CHENA;
2101:Drivers/STM32H7xx_HAL_Driver/Src/stm32h7xx_ll_usb.c ****       do
2102:Drivers/STM32H7xx_HAL_Driver/Src/stm32h7xx_ll_usb.c ****       {
2103:Drivers/STM32H7xx_HAL_Driver/Src/stm32h7xx_ll_usb.c ****         count++;
2104:Drivers/STM32H7xx_HAL_Driver/Src/stm32h7xx_ll_usb.c **** 
2105:Drivers/STM32H7xx_HAL_Driver/Src/stm32h7xx_ll_usb.c ****         if (count > 1000U)
2106:Drivers/STM32H7xx_HAL_Driver/Src/stm32h7xx_ll_usb.c ****         {
2107:Drivers/STM32H7xx_HAL_Driver/Src/stm32h7xx_ll_usb.c ****           break;
2108:Drivers/STM32H7xx_HAL_Driver/Src/stm32h7xx_ll_usb.c ****         }
2109:Drivers/STM32H7xx_HAL_Driver/Src/stm32h7xx_ll_usb.c ****       } while ((USBx_HC(hcnum)->HCCHAR & USB_OTG_HCCHAR_CHENA) == USB_OTG_HCCHAR_CHENA);
2110:Drivers/STM32H7xx_HAL_Driver/Src/stm32h7xx_ll_usb.c ****     }
2111:Drivers/STM32H7xx_HAL_Driver/Src/stm32h7xx_ll_usb.c ****     else
2112:Drivers/STM32H7xx_HAL_Driver/Src/stm32h7xx_ll_usb.c ****     {
2113:Drivers/STM32H7xx_HAL_Driver/Src/stm32h7xx_ll_usb.c ****       USBx_HC(hcnum)->HCCHAR |= USB_OTG_HCCHAR_CHENA;
2114:Drivers/STM32H7xx_HAL_Driver/Src/stm32h7xx_ll_usb.c ****     }
2115:Drivers/STM32H7xx_HAL_Driver/Src/stm32h7xx_ll_usb.c ****   }
2116:Drivers/STM32H7xx_HAL_Driver/Src/stm32h7xx_ll_usb.c **** 
2117:Drivers/STM32H7xx_HAL_Driver/Src/stm32h7xx_ll_usb.c ****   return HAL_OK;
2118:Drivers/STM32H7xx_HAL_Driver/Src/stm32h7xx_ll_usb.c **** }
 4444              		.loc 1 2118 1 view .LVU1499
 4445 00ac 0020     		movs	r0, #0
 4446 00ae 02B0     		add	sp, sp, #8
 4447              	.LCFI48:
 4448              		.cfi_remember_state
 4449              		.cfi_def_cfa_offset 8
 4450              		@ sp needed
 4451 00b0 10BD     		pop	{r4, pc}
 4452              	.LVL328:
 4453              	.L276:
 4454              	.LCFI49:
 4455              		.cfi_restore_state
2095:Drivers/STM32H7xx_HAL_Driver/Src/stm32h7xx_ll_usb.c **** 
ARM GAS  C:\Users\ADMINI~1\AppData\Local\Temp\cceMOlfx.s 			page 136


 4456              		.loc 1 2095 5 is_stmt 1 view .LVU1500
2095:Drivers/STM32H7xx_HAL_Driver/Src/stm32h7xx_ll_usb.c **** 
 4457              		.loc 1 2095 19 is_stmt 0 view .LVU1501
 4458 00b2 D1F80035 		ldr	r3, [r1, #1280]
 4459              	.LVL329:
2095:Drivers/STM32H7xx_HAL_Driver/Src/stm32h7xx_ll_usb.c **** 
 4460              		.loc 1 2095 28 view .LVU1502
 4461 00b6 43F08043 		orr	r3, r3, #1073741824
 4462 00ba C1F80035 		str	r3, [r1, #1280]
2097:Drivers/STM32H7xx_HAL_Driver/Src/stm32h7xx_ll_usb.c ****     {
 4463              		.loc 1 2097 5 is_stmt 1 view .LVU1503
2097:Drivers/STM32H7xx_HAL_Driver/Src/stm32h7xx_ll_usb.c ****     {
 4464              		.loc 1 2097 19 is_stmt 0 view .LVU1504
 4465 00be D4F81034 		ldr	r3, [r4, #1040]
2097:Drivers/STM32H7xx_HAL_Driver/Src/stm32h7xx_ll_usb.c ****     {
 4466              		.loc 1 2097 8 view .LVU1505
 4467 00c2 13F47F0F 		tst	r3, #16711680
 4468 00c6 16D1     		bne	.L280
2099:Drivers/STM32H7xx_HAL_Driver/Src/stm32h7xx_ll_usb.c ****       USBx_HC(hcnum)->HCCHAR |= USB_OTG_HCCHAR_CHENA;
 4469              		.loc 1 2099 7 is_stmt 1 view .LVU1506
2099:Drivers/STM32H7xx_HAL_Driver/Src/stm32h7xx_ll_usb.c ****       USBx_HC(hcnum)->HCCHAR |= USB_OTG_HCCHAR_CHENA;
 4470              		.loc 1 2099 21 is_stmt 0 view .LVU1507
 4471 00c8 D1F80035 		ldr	r3, [r1, #1280]
2099:Drivers/STM32H7xx_HAL_Driver/Src/stm32h7xx_ll_usb.c ****       USBx_HC(hcnum)->HCCHAR |= USB_OTG_HCCHAR_CHENA;
 4472              		.loc 1 2099 30 view .LVU1508
 4473 00cc 23F00043 		bic	r3, r3, #-2147483648
 4474 00d0 C1F80035 		str	r3, [r1, #1280]
2100:Drivers/STM32H7xx_HAL_Driver/Src/stm32h7xx_ll_usb.c ****       do
 4475              		.loc 1 2100 7 is_stmt 1 view .LVU1509
2100:Drivers/STM32H7xx_HAL_Driver/Src/stm32h7xx_ll_usb.c ****       do
 4476              		.loc 1 2100 21 is_stmt 0 view .LVU1510
 4477 00d4 D1F80035 		ldr	r3, [r1, #1280]
2100:Drivers/STM32H7xx_HAL_Driver/Src/stm32h7xx_ll_usb.c ****       do
 4478              		.loc 1 2100 30 view .LVU1511
 4479 00d8 43F00043 		orr	r3, r3, #-2147483648
 4480 00dc C1F80035 		str	r3, [r1, #1280]
 4481              	.L281:
2101:Drivers/STM32H7xx_HAL_Driver/Src/stm32h7xx_ll_usb.c ****       {
 4482              		.loc 1 2101 7 is_stmt 1 view .LVU1512
2103:Drivers/STM32H7xx_HAL_Driver/Src/stm32h7xx_ll_usb.c **** 
 4483              		.loc 1 2103 9 view .LVU1513
2103:Drivers/STM32H7xx_HAL_Driver/Src/stm32h7xx_ll_usb.c **** 
 4484              		.loc 1 2103 14 is_stmt 0 view .LVU1514
 4485 00e0 019B     		ldr	r3, [sp, #4]
 4486 00e2 0133     		adds	r3, r3, #1
 4487 00e4 0193     		str	r3, [sp, #4]
2105:Drivers/STM32H7xx_HAL_Driver/Src/stm32h7xx_ll_usb.c ****         {
 4488              		.loc 1 2105 9 is_stmt 1 view .LVU1515
2105:Drivers/STM32H7xx_HAL_Driver/Src/stm32h7xx_ll_usb.c ****         {
 4489              		.loc 1 2105 19 is_stmt 0 view .LVU1516
 4490 00e6 019B     		ldr	r3, [sp, #4]
2105:Drivers/STM32H7xx_HAL_Driver/Src/stm32h7xx_ll_usb.c ****         {
 4491              		.loc 1 2105 12 view .LVU1517
 4492 00e8 B3F57A7F 		cmp	r3, #1000
 4493 00ec DED8     		bhi	.L275
2109:Drivers/STM32H7xx_HAL_Driver/Src/stm32h7xx_ll_usb.c ****     }
 4494              		.loc 1 2109 64 is_stmt 1 view .LVU1518
ARM GAS  C:\Users\ADMINI~1\AppData\Local\Temp\cceMOlfx.s 			page 137


2109:Drivers/STM32H7xx_HAL_Driver/Src/stm32h7xx_ll_usb.c ****     }
 4495              		.loc 1 2109 31 is_stmt 0 view .LVU1519
 4496 00ee 1368     		ldr	r3, [r2]
2109:Drivers/STM32H7xx_HAL_Driver/Src/stm32h7xx_ll_usb.c ****     }
 4497              		.loc 1 2109 64 view .LVU1520
 4498 00f0 002B     		cmp	r3, #0
 4499 00f2 F5DB     		blt	.L281
 4500 00f4 DAE7     		b	.L275
 4501              	.L280:
2113:Drivers/STM32H7xx_HAL_Driver/Src/stm32h7xx_ll_usb.c ****     }
 4502              		.loc 1 2113 7 is_stmt 1 view .LVU1521
2113:Drivers/STM32H7xx_HAL_Driver/Src/stm32h7xx_ll_usb.c ****     }
 4503              		.loc 1 2113 21 is_stmt 0 view .LVU1522
 4504 00f6 D1F80035 		ldr	r3, [r1, #1280]
2113:Drivers/STM32H7xx_HAL_Driver/Src/stm32h7xx_ll_usb.c ****     }
 4505              		.loc 1 2113 30 view .LVU1523
 4506 00fa 43F00043 		orr	r3, r3, #-2147483648
 4507 00fe C1F80035 		str	r3, [r1, #1280]
 4508 0102 D3E7     		b	.L275
 4509              		.cfi_endproc
 4510              	.LFE394:
 4512              		.section	.text.USB_DoPing,"ax",%progbits
 4513              		.align	1
 4514              		.global	USB_DoPing
 4515              		.syntax unified
 4516              		.thumb
 4517              		.thumb_func
 4519              	USB_DoPing:
 4520              	.LVL330:
 4521              	.LFB395:
2119:Drivers/STM32H7xx_HAL_Driver/Src/stm32h7xx_ll_usb.c **** 
2120:Drivers/STM32H7xx_HAL_Driver/Src/stm32h7xx_ll_usb.c **** /**
2121:Drivers/STM32H7xx_HAL_Driver/Src/stm32h7xx_ll_usb.c ****   * @brief  Initiate Do Ping protocol
2122:Drivers/STM32H7xx_HAL_Driver/Src/stm32h7xx_ll_usb.c ****   * @param  USBx  Selected device
2123:Drivers/STM32H7xx_HAL_Driver/Src/stm32h7xx_ll_usb.c ****   * @param  hc_num  Host Channel number
2124:Drivers/STM32H7xx_HAL_Driver/Src/stm32h7xx_ll_usb.c ****   *         This parameter can be a value from 1 to 15
2125:Drivers/STM32H7xx_HAL_Driver/Src/stm32h7xx_ll_usb.c ****   * @retval HAL state
2126:Drivers/STM32H7xx_HAL_Driver/Src/stm32h7xx_ll_usb.c ****   */
2127:Drivers/STM32H7xx_HAL_Driver/Src/stm32h7xx_ll_usb.c **** HAL_StatusTypeDef USB_DoPing(const USB_OTG_GlobalTypeDef *USBx, uint8_t ch_num)
2128:Drivers/STM32H7xx_HAL_Driver/Src/stm32h7xx_ll_usb.c **** {
 4522              		.loc 1 2128 1 is_stmt 1 view -0
 4523              		.cfi_startproc
 4524              		@ args = 0, pretend = 0, frame = 0
 4525              		@ frame_needed = 0, uses_anonymous_args = 0
 4526              		@ link register save eliminated.
2129:Drivers/STM32H7xx_HAL_Driver/Src/stm32h7xx_ll_usb.c ****   uint32_t USBx_BASE = (uint32_t)USBx;
 4527              		.loc 1 2129 3 view .LVU1525
2130:Drivers/STM32H7xx_HAL_Driver/Src/stm32h7xx_ll_usb.c ****   uint32_t chnum = (uint32_t)ch_num;
 4528              		.loc 1 2130 3 view .LVU1526
2131:Drivers/STM32H7xx_HAL_Driver/Src/stm32h7xx_ll_usb.c ****   uint32_t num_packets = 1U;
 4529              		.loc 1 2131 3 view .LVU1527
2132:Drivers/STM32H7xx_HAL_Driver/Src/stm32h7xx_ll_usb.c ****   uint32_t tmpreg;
 4530              		.loc 1 2132 3 view .LVU1528
2133:Drivers/STM32H7xx_HAL_Driver/Src/stm32h7xx_ll_usb.c **** 
2134:Drivers/STM32H7xx_HAL_Driver/Src/stm32h7xx_ll_usb.c ****   USBx_HC(chnum)->HCTSIZ = ((num_packets << 19) & USB_OTG_HCTSIZ_PKTCNT) |
 4531              		.loc 1 2134 3 view .LVU1529
 4532 0000 00EB4110 		add	r0, r0, r1, lsl #5
ARM GAS  C:\Users\ADMINI~1\AppData\Local\Temp\cceMOlfx.s 			page 138


 4533              	.LVL331:
 4534              		.loc 1 2134 26 is_stmt 0 view .LVU1530
 4535 0004 064A     		ldr	r2, .L284
 4536 0006 C0F81025 		str	r2, [r0, #1296]
2135:Drivers/STM32H7xx_HAL_Driver/Src/stm32h7xx_ll_usb.c ****                            USB_OTG_HCTSIZ_DOPING;
2136:Drivers/STM32H7xx_HAL_Driver/Src/stm32h7xx_ll_usb.c **** 
2137:Drivers/STM32H7xx_HAL_Driver/Src/stm32h7xx_ll_usb.c ****   /* Set host channel enable */
2138:Drivers/STM32H7xx_HAL_Driver/Src/stm32h7xx_ll_usb.c ****   tmpreg = USBx_HC(chnum)->HCCHAR;
 4537              		.loc 1 2138 3 is_stmt 1 view .LVU1531
 4538              		.loc 1 2138 10 is_stmt 0 view .LVU1532
 4539 000a D0F80035 		ldr	r3, [r0, #1280]
 4540              	.LVL332:
2139:Drivers/STM32H7xx_HAL_Driver/Src/stm32h7xx_ll_usb.c ****   tmpreg &= ~USB_OTG_HCCHAR_CHDIS;
 4541              		.loc 1 2139 3 is_stmt 1 view .LVU1533
 4542              		.loc 1 2139 10 is_stmt 0 view .LVU1534
 4543 000e 23F08043 		bic	r3, r3, #1073741824
 4544              	.LVL333:
2140:Drivers/STM32H7xx_HAL_Driver/Src/stm32h7xx_ll_usb.c ****   tmpreg |= USB_OTG_HCCHAR_CHENA;
 4545              		.loc 1 2140 3 is_stmt 1 view .LVU1535
 4546              		.loc 1 2140 10 is_stmt 0 view .LVU1536
 4547 0012 43F00043 		orr	r3, r3, #-2147483648
 4548              	.LVL334:
2141:Drivers/STM32H7xx_HAL_Driver/Src/stm32h7xx_ll_usb.c ****   USBx_HC(chnum)->HCCHAR = tmpreg;
 4549              		.loc 1 2141 3 is_stmt 1 view .LVU1537
 4550              		.loc 1 2141 26 is_stmt 0 view .LVU1538
 4551 0016 C0F80035 		str	r3, [r0, #1280]
2142:Drivers/STM32H7xx_HAL_Driver/Src/stm32h7xx_ll_usb.c **** 
2143:Drivers/STM32H7xx_HAL_Driver/Src/stm32h7xx_ll_usb.c ****   return HAL_OK;
 4552              		.loc 1 2143 3 is_stmt 1 view .LVU1539
2144:Drivers/STM32H7xx_HAL_Driver/Src/stm32h7xx_ll_usb.c **** }
 4553              		.loc 1 2144 1 is_stmt 0 view .LVU1540
 4554 001a 0020     		movs	r0, #0
 4555 001c 7047     		bx	lr
 4556              	.L285:
 4557 001e 00BF     		.align	2
 4558              	.L284:
 4559 0020 00000880 		.word	-2146959360
 4560              		.cfi_endproc
 4561              	.LFE395:
 4563              		.section	.text.USB_HC_StartXfer,"ax",%progbits
 4564              		.align	1
 4565              		.global	USB_HC_StartXfer
 4566              		.syntax unified
 4567              		.thumb
 4568              		.thumb_func
 4570              	USB_HC_StartXfer:
 4571              	.LVL335:
 4572              	.LFB392:
1772:Drivers/STM32H7xx_HAL_Driver/Src/stm32h7xx_ll_usb.c ****   uint32_t USBx_BASE = (uint32_t)USBx;
 4573              		.loc 1 1772 1 is_stmt 1 view -0
 4574              		.cfi_startproc
 4575              		@ args = 0, pretend = 0, frame = 8
 4576              		@ frame_needed = 0, uses_anonymous_args = 0
1772:Drivers/STM32H7xx_HAL_Driver/Src/stm32h7xx_ll_usb.c ****   uint32_t USBx_BASE = (uint32_t)USBx;
 4577              		.loc 1 1772 1 is_stmt 0 view .LVU1542
 4578 0000 70B5     		push	{r4, r5, r6, lr}
 4579              	.LCFI50:
ARM GAS  C:\Users\ADMINI~1\AppData\Local\Temp\cceMOlfx.s 			page 139


 4580              		.cfi_def_cfa_offset 16
 4581              		.cfi_offset 4, -16
 4582              		.cfi_offset 5, -12
 4583              		.cfi_offset 6, -8
 4584              		.cfi_offset 14, -4
 4585 0002 84B0     		sub	sp, sp, #16
 4586              	.LCFI51:
 4587              		.cfi_def_cfa_offset 32
 4588 0004 9646     		mov	lr, r2
1773:Drivers/STM32H7xx_HAL_Driver/Src/stm32h7xx_ll_usb.c ****   uint32_t ch_num = (uint32_t)hc->ch_num;
 4589              		.loc 1 1773 3 is_stmt 1 view .LVU1543
 4590              	.LVL336:
1774:Drivers/STM32H7xx_HAL_Driver/Src/stm32h7xx_ll_usb.c ****   __IO uint32_t tmpreg;
 4591              		.loc 1 1774 3 view .LVU1544
1774:Drivers/STM32H7xx_HAL_Driver/Src/stm32h7xx_ll_usb.c ****   __IO uint32_t tmpreg;
 4592              		.loc 1 1774 33 is_stmt 0 view .LVU1545
 4593 0006 4B78     		ldrb	r3, [r1, #1]	@ zero_extendqisi2
 4594              	.LVL337:
1775:Drivers/STM32H7xx_HAL_Driver/Src/stm32h7xx_ll_usb.c ****   uint8_t  is_oddframe;
 4595              		.loc 1 1775 3 is_stmt 1 view .LVU1546
1776:Drivers/STM32H7xx_HAL_Driver/Src/stm32h7xx_ll_usb.c ****   uint16_t len_words;
 4596              		.loc 1 1776 3 view .LVU1547
1777:Drivers/STM32H7xx_HAL_Driver/Src/stm32h7xx_ll_usb.c ****   uint16_t num_packets;
 4597              		.loc 1 1777 3 view .LVU1548
1778:Drivers/STM32H7xx_HAL_Driver/Src/stm32h7xx_ll_usb.c ****   uint16_t max_hc_pkt_count = HC_MAX_PKT_CNT;
 4598              		.loc 1 1778 3 view .LVU1549
1779:Drivers/STM32H7xx_HAL_Driver/Src/stm32h7xx_ll_usb.c **** 
 4599              		.loc 1 1779 3 view .LVU1550
1782:Drivers/STM32H7xx_HAL_Driver/Src/stm32h7xx_ll_usb.c ****   {
 4600              		.loc 1 1782 3 view .LVU1551
1782:Drivers/STM32H7xx_HAL_Driver/Src/stm32h7xx_ll_usb.c ****   {
 4601              		.loc 1 1782 6 is_stmt 0 view .LVU1552
 4602 0008 012A     		cmp	r2, #1
 4603 000a 18D0     		beq	.L318
1794:Drivers/STM32H7xx_HAL_Driver/Src/stm32h7xx_ll_usb.c ****     {
 4604              		.loc 1 1794 5 is_stmt 1 view .LVU1553
1794:Drivers/STM32H7xx_HAL_Driver/Src/stm32h7xx_ll_usb.c ****     {
 4605              		.loc 1 1794 12 is_stmt 0 view .LVU1554
 4606 000c 0A79     		ldrb	r2, [r1, #4]	@ zero_extendqisi2
 4607              	.LVL338:
1794:Drivers/STM32H7xx_HAL_Driver/Src/stm32h7xx_ll_usb.c ****     {
 4608              		.loc 1 1794 8 view .LVU1555
 4609 000e 12B9     		cbnz	r2, .L288
1794:Drivers/STM32H7xx_HAL_Driver/Src/stm32h7xx_ll_usb.c ****     {
 4610              		.loc 1 1794 44 discriminator 1 view .LVU1556
 4611 0010 4A79     		ldrb	r2, [r1, #5]	@ zero_extendqisi2
1794:Drivers/STM32H7xx_HAL_Driver/Src/stm32h7xx_ll_usb.c ****     {
 4612              		.loc 1 1794 38 discriminator 1 view .LVU1557
 4613 0012 012A     		cmp	r2, #1
 4614 0014 21D0     		beq	.L319
 4615              	.L288:
1801:Drivers/STM32H7xx_HAL_Driver/Src/stm32h7xx_ll_usb.c ****   {
 4616              		.loc 1 1801 3 is_stmt 1 view .LVU1558
1801:Drivers/STM32H7xx_HAL_Driver/Src/stm32h7xx_ll_usb.c ****   {
 4617              		.loc 1 1801 9 is_stmt 0 view .LVU1559
 4618 0016 8A79     		ldrb	r2, [r1, #6]	@ zero_extendqisi2
1801:Drivers/STM32H7xx_HAL_Driver/Src/stm32h7xx_ll_usb.c ****   {
ARM GAS  C:\Users\ADMINI~1\AppData\Local\Temp\cceMOlfx.s 			page 140


 4619              		.loc 1 1801 6 view .LVU1560
 4620 0018 012A     		cmp	r2, #1
 4621 001a 22D0     		beq	.L320
1859:Drivers/STM32H7xx_HAL_Driver/Src/stm32h7xx_ll_usb.c ****     {
 4622              		.loc 1 1859 5 is_stmt 1 view .LVU1561
1859:Drivers/STM32H7xx_HAL_Driver/Src/stm32h7xx_ll_usb.c ****     {
 4623              		.loc 1 1859 11 is_stmt 0 view .LVU1562
 4624 001c 0C6A     		ldr	r4, [r1, #32]
1859:Drivers/STM32H7xx_HAL_Driver/Src/stm32h7xx_ll_usb.c ****     {
 4625              		.loc 1 1859 8 view .LVU1563
 4626 001e 002C     		cmp	r4, #0
 4627 0020 54D0     		beq	.L316
1861:Drivers/STM32H7xx_HAL_Driver/Src/stm32h7xx_ll_usb.c **** 
 4628              		.loc 1 1861 7 is_stmt 1 view .LVU1564
1861:Drivers/STM32H7xx_HAL_Driver/Src/stm32h7xx_ll_usb.c **** 
 4629              		.loc 1 1861 50 is_stmt 0 view .LVU1565
 4630 0022 8D8A     		ldrh	r5, [r1, #20]
1861:Drivers/STM32H7xx_HAL_Driver/Src/stm32h7xx_ll_usb.c **** 
 4631              		.loc 1 1861 46 view .LVU1566
 4632 0024 6219     		adds	r2, r4, r5
1861:Drivers/STM32H7xx_HAL_Driver/Src/stm32h7xx_ll_usb.c **** 
 4633              		.loc 1 1861 63 view .LVU1567
 4634 0026 013A     		subs	r2, r2, #1
1861:Drivers/STM32H7xx_HAL_Driver/Src/stm32h7xx_ll_usb.c **** 
 4635              		.loc 1 1861 69 view .LVU1568
 4636 0028 B2FBF5F2 		udiv	r2, r2, r5
1861:Drivers/STM32H7xx_HAL_Driver/Src/stm32h7xx_ll_usb.c **** 
 4637              		.loc 1 1861 19 view .LVU1569
 4638 002c 92B2     		uxth	r2, r2
 4639              	.LVL339:
1863:Drivers/STM32H7xx_HAL_Driver/Src/stm32h7xx_ll_usb.c ****       {
 4640              		.loc 1 1863 7 is_stmt 1 view .LVU1570
1863:Drivers/STM32H7xx_HAL_Driver/Src/stm32h7xx_ll_usb.c ****       {
 4641              		.loc 1 1863 10 is_stmt 0 view .LVU1571
 4642 002e B2F5807F 		cmp	r2, #256
 4643 0032 4CD9     		bls	.L298
1865:Drivers/STM32H7xx_HAL_Driver/Src/stm32h7xx_ll_usb.c ****         hc->XferSize = (uint32_t)num_packets * hc->max_packet;
 4644              		.loc 1 1865 9 is_stmt 1 view .LVU1572
 4645              	.LVL340:
1866:Drivers/STM32H7xx_HAL_Driver/Src/stm32h7xx_ll_usb.c ****       }
 4646              		.loc 1 1866 9 view .LVU1573
1866:Drivers/STM32H7xx_HAL_Driver/Src/stm32h7xx_ll_usb.c ****       }
 4647              		.loc 1 1866 46 is_stmt 0 view .LVU1574
 4648 0034 2D02     		lsls	r5, r5, #8
1866:Drivers/STM32H7xx_HAL_Driver/Src/stm32h7xx_ll_usb.c ****       }
 4649              		.loc 1 1866 22 view .LVU1575
 4650 0036 CD61     		str	r5, [r1, #28]
1865:Drivers/STM32H7xx_HAL_Driver/Src/stm32h7xx_ll_usb.c ****         hc->XferSize = (uint32_t)num_packets * hc->max_packet;
 4651              		.loc 1 1865 21 view .LVU1576
 4652 0038 4FF48072 		mov	r2, #256
 4653 003c 47E0     		b	.L298
 4654              	.LVL341:
 4655              	.L318:
1784:Drivers/STM32H7xx_HAL_Driver/Src/stm32h7xx_ll_usb.c ****     {
 4656              		.loc 1 1784 5 is_stmt 1 view .LVU1577
1784:Drivers/STM32H7xx_HAL_Driver/Src/stm32h7xx_ll_usb.c ****     {
 4657              		.loc 1 1784 12 is_stmt 0 view .LVU1578
ARM GAS  C:\Users\ADMINI~1\AppData\Local\Temp\cceMOlfx.s 			page 141


 4658 003e 8A7C     		ldrb	r2, [r1, #18]	@ zero_extendqisi2
 4659              	.LVL342:
1784:Drivers/STM32H7xx_HAL_Driver/Src/stm32h7xx_ll_usb.c ****     {
 4660              		.loc 1 1784 8 view .LVU1579
 4661 0040 022A     		cmp	r2, #2
 4662 0042 18BF     		it	ne
 4663 0044 002A     		cmpne	r2, #0
 4664 0046 E6D1     		bne	.L288
1787:Drivers/STM32H7xx_HAL_Driver/Src/stm32h7xx_ll_usb.c ****                                                USB_OTG_HCINTMSK_ACKM |
 4665              		.loc 1 1787 7 is_stmt 1 view .LVU1580
1787:Drivers/STM32H7xx_HAL_Driver/Src/stm32h7xx_ll_usb.c ****                                                USB_OTG_HCINTMSK_ACKM |
 4666              		.loc 1 1787 32 is_stmt 0 view .LVU1581
 4667 0048 00EB4312 		add	r2, r0, r3, lsl #5
 4668 004c D2F80C45 		ldr	r4, [r2, #1292]
1787:Drivers/STM32H7xx_HAL_Driver/Src/stm32h7xx_ll_usb.c ****                                                USB_OTG_HCINTMSK_ACKM |
 4669              		.loc 1 1787 43 view .LVU1582
 4670 0050 24F07004 		bic	r4, r4, #112
 4671 0054 C2F80C45 		str	r4, [r2, #1292]
 4672 0058 DDE7     		b	.L288
 4673              	.L319:
1796:Drivers/STM32H7xx_HAL_Driver/Src/stm32h7xx_ll_usb.c ****       return HAL_OK;
 4674              		.loc 1 1796 7 is_stmt 1 view .LVU1583
1796:Drivers/STM32H7xx_HAL_Driver/Src/stm32h7xx_ll_usb.c ****       return HAL_OK;
 4675              		.loc 1 1796 13 is_stmt 0 view .LVU1584
 4676 005a 1946     		mov	r1, r3
 4677              	.LVL343:
1796:Drivers/STM32H7xx_HAL_Driver/Src/stm32h7xx_ll_usb.c ****       return HAL_OK;
 4678              		.loc 1 1796 13 view .LVU1585
 4679 005c FFF7FEFF 		bl	USB_DoPing
 4680              	.LVL344:
1797:Drivers/STM32H7xx_HAL_Driver/Src/stm32h7xx_ll_usb.c ****     }
 4681              		.loc 1 1797 7 is_stmt 1 view .LVU1586
1797:Drivers/STM32H7xx_HAL_Driver/Src/stm32h7xx_ll_usb.c ****     }
 4682              		.loc 1 1797 14 is_stmt 0 view .LVU1587
 4683 0060 9BE0     		b	.L289
 4684              	.LVL345:
 4685              	.L320:
1804:Drivers/STM32H7xx_HAL_Driver/Src/stm32h7xx_ll_usb.c **** 
 4686              		.loc 1 1804 5 is_stmt 1 view .LVU1588
1806:Drivers/STM32H7xx_HAL_Driver/Src/stm32h7xx_ll_usb.c ****     {
 4687              		.loc 1 1806 5 view .LVU1589
1806:Drivers/STM32H7xx_HAL_Driver/Src/stm32h7xx_ll_usb.c ****     {
 4688              		.loc 1 1806 11 is_stmt 0 view .LVU1590
 4689 0062 CA78     		ldrb	r2, [r1, #3]	@ zero_extendqisi2
1806:Drivers/STM32H7xx_HAL_Driver/Src/stm32h7xx_ll_usb.c ****     {
 4690              		.loc 1 1806 8 view .LVU1591
 4691 0064 1AB1     		cbz	r2, .L291
1808:Drivers/STM32H7xx_HAL_Driver/Src/stm32h7xx_ll_usb.c ****     }
 4692              		.loc 1 1808 7 is_stmt 1 view .LVU1592
1808:Drivers/STM32H7xx_HAL_Driver/Src/stm32h7xx_ll_usb.c ****     }
 4693              		.loc 1 1808 48 is_stmt 0 view .LVU1593
 4694 0066 8A8A     		ldrh	r2, [r1, #20]
1808:Drivers/STM32H7xx_HAL_Driver/Src/stm32h7xx_ll_usb.c ****     }
 4695              		.loc 1 1808 20 view .LVU1594
 4696 0068 CA61     		str	r2, [r1, #28]
1804:Drivers/STM32H7xx_HAL_Driver/Src/stm32h7xx_ll_usb.c **** 
 4697              		.loc 1 1804 17 view .LVU1595
ARM GAS  C:\Users\ADMINI~1\AppData\Local\Temp\cceMOlfx.s 			page 142


 4698 006a 0122     		movs	r2, #1
 4699 006c 36E0     		b	.L292
 4700              	.L291:
1812:Drivers/STM32H7xx_HAL_Driver/Src/stm32h7xx_ll_usb.c ****       {
 4701              		.loc 1 1812 7 is_stmt 1 view .LVU1596
1812:Drivers/STM32H7xx_HAL_Driver/Src/stm32h7xx_ll_usb.c ****       {
 4702              		.loc 1 1812 13 is_stmt 0 view .LVU1597
 4703 006e 8A7C     		ldrb	r2, [r1, #18]	@ zero_extendqisi2
1812:Drivers/STM32H7xx_HAL_Driver/Src/stm32h7xx_ll_usb.c ****       {
 4704              		.loc 1 1812 10 view .LVU1598
 4705 0070 012A     		cmp	r2, #1
 4706 0072 06D0     		beq	.L321
1845:Drivers/STM32H7xx_HAL_Driver/Src/stm32h7xx_ll_usb.c ****         {
 4707              		.loc 1 1845 9 is_stmt 1 view .LVU1599
1845:Drivers/STM32H7xx_HAL_Driver/Src/stm32h7xx_ll_usb.c ****         {
 4708              		.loc 1 1845 12 is_stmt 0 view .LVU1600
 4709 0074 BEF1010F 		cmp	lr, #1
 4710 0078 21D0     		beq	.L322
 4711              	.L297:
1851:Drivers/STM32H7xx_HAL_Driver/Src/stm32h7xx_ll_usb.c ****         }
 4712              		.loc 1 1851 11 is_stmt 1 view .LVU1601
1851:Drivers/STM32H7xx_HAL_Driver/Src/stm32h7xx_ll_usb.c ****         }
 4713              		.loc 1 1851 28 is_stmt 0 view .LVU1602
 4714 007a 0A6A     		ldr	r2, [r1, #32]
1851:Drivers/STM32H7xx_HAL_Driver/Src/stm32h7xx_ll_usb.c ****         }
 4715              		.loc 1 1851 24 view .LVU1603
 4716 007c CA61     		str	r2, [r1, #28]
1804:Drivers/STM32H7xx_HAL_Driver/Src/stm32h7xx_ll_usb.c **** 
 4717              		.loc 1 1804 17 view .LVU1604
 4718 007e 0122     		movs	r2, #1
 4719 0080 2CE0     		b	.L292
 4720              	.L321:
1814:Drivers/STM32H7xx_HAL_Driver/Src/stm32h7xx_ll_usb.c ****         {
 4721              		.loc 1 1814 9 is_stmt 1 view .LVU1605
1814:Drivers/STM32H7xx_HAL_Driver/Src/stm32h7xx_ll_usb.c ****         {
 4722              		.loc 1 1814 15 is_stmt 0 view .LVU1606
 4723 0082 0A6A     		ldr	r2, [r1, #32]
1814:Drivers/STM32H7xx_HAL_Driver/Src/stm32h7xx_ll_usb.c ****         {
 4724              		.loc 1 1814 12 view .LVU1607
 4725 0084 BC2A     		cmp	r2, #188
 4726 0086 0DD9     		bls	.L294
1817:Drivers/STM32H7xx_HAL_Driver/Src/stm32h7xx_ll_usb.c ****           hc->xfer_len = hc->XferSize;
 4727              		.loc 1 1817 11 is_stmt 1 view .LVU1608
1817:Drivers/STM32H7xx_HAL_Driver/Src/stm32h7xx_ll_usb.c ****           hc->xfer_len = hc->XferSize;
 4728              		.loc 1 1817 28 is_stmt 0 view .LVU1609
 4729 0088 8A8A     		ldrh	r2, [r1, #20]
1817:Drivers/STM32H7xx_HAL_Driver/Src/stm32h7xx_ll_usb.c ****           hc->xfer_len = hc->XferSize;
 4730              		.loc 1 1817 24 view .LVU1610
 4731 008a CA61     		str	r2, [r1, #28]
1818:Drivers/STM32H7xx_HAL_Driver/Src/stm32h7xx_ll_usb.c **** 
 4732              		.loc 1 1818 11 is_stmt 1 view .LVU1611
1818:Drivers/STM32H7xx_HAL_Driver/Src/stm32h7xx_ll_usb.c **** 
 4733              		.loc 1 1818 24 is_stmt 0 view .LVU1612
 4734 008c 0A62     		str	r2, [r1, #32]
1820:Drivers/STM32H7xx_HAL_Driver/Src/stm32h7xx_ll_usb.c ****           {
 4735              		.loc 1 1820 11 is_stmt 1 view .LVU1613
1820:Drivers/STM32H7xx_HAL_Driver/Src/stm32h7xx_ll_usb.c ****           {
ARM GAS  C:\Users\ADMINI~1\AppData\Local\Temp\cceMOlfx.s 			page 143


 4736              		.loc 1 1820 18 is_stmt 0 view .LVU1614
 4737 008e CA68     		ldr	r2, [r1, #12]
1820:Drivers/STM32H7xx_HAL_Driver/Src/stm32h7xx_ll_usb.c ****           {
 4738              		.loc 1 1820 54 view .LVU1615
 4739 0090 013A     		subs	r2, r2, #1
1820:Drivers/STM32H7xx_HAL_Driver/Src/stm32h7xx_ll_usb.c ****           {
 4740              		.loc 1 1820 14 view .LVU1616
 4741 0092 012A     		cmp	r2, #1
 4742 0094 02D9     		bls	.L323
1826:Drivers/STM32H7xx_HAL_Driver/Src/stm32h7xx_ll_usb.c ****           }
 4743              		.loc 1 1826 13 is_stmt 1 view .LVU1617
1826:Drivers/STM32H7xx_HAL_Driver/Src/stm32h7xx_ll_usb.c ****           }
 4744              		.loc 1 1826 34 is_stmt 0 view .LVU1618
 4745 0096 0122     		movs	r2, #1
 4746 0098 CA60     		str	r2, [r1, #12]
 4747 009a 1FE0     		b	.L292
 4748              	.L323:
1822:Drivers/STM32H7xx_HAL_Driver/Src/stm32h7xx_ll_usb.c ****           }
 4749              		.loc 1 1822 13 is_stmt 1 view .LVU1619
1822:Drivers/STM32H7xx_HAL_Driver/Src/stm32h7xx_ll_usb.c ****           }
 4750              		.loc 1 1822 34 is_stmt 0 view .LVU1620
 4751 009c 0222     		movs	r2, #2
 4752 009e CA60     		str	r2, [r1, #12]
1804:Drivers/STM32H7xx_HAL_Driver/Src/stm32h7xx_ll_usb.c **** 
 4753              		.loc 1 1804 17 view .LVU1621
 4754 00a0 0122     		movs	r2, #1
 4755 00a2 1BE0     		b	.L292
 4756              	.L294:
1831:Drivers/STM32H7xx_HAL_Driver/Src/stm32h7xx_ll_usb.c **** 
 4757              		.loc 1 1831 11 is_stmt 1 view .LVU1622
1831:Drivers/STM32H7xx_HAL_Driver/Src/stm32h7xx_ll_usb.c **** 
 4758              		.loc 1 1831 24 is_stmt 0 view .LVU1623
 4759 00a4 CA61     		str	r2, [r1, #28]
1833:Drivers/STM32H7xx_HAL_Driver/Src/stm32h7xx_ll_usb.c ****           {
 4760              		.loc 1 1833 11 is_stmt 1 view .LVU1624
1833:Drivers/STM32H7xx_HAL_Driver/Src/stm32h7xx_ll_usb.c ****           {
 4761              		.loc 1 1833 18 is_stmt 0 view .LVU1625
 4762 00a6 CA68     		ldr	r2, [r1, #12]
1833:Drivers/STM32H7xx_HAL_Driver/Src/stm32h7xx_ll_usb.c ****           {
 4763              		.loc 1 1833 54 view .LVU1626
 4764 00a8 013A     		subs	r2, r2, #1
1833:Drivers/STM32H7xx_HAL_Driver/Src/stm32h7xx_ll_usb.c ****           {
 4765              		.loc 1 1833 14 view .LVU1627
 4766 00aa 012A     		cmp	r2, #1
 4767 00ac 03D9     		bls	.L296
1835:Drivers/STM32H7xx_HAL_Driver/Src/stm32h7xx_ll_usb.c ****           }
 4768              		.loc 1 1835 13 is_stmt 1 view .LVU1628
1835:Drivers/STM32H7xx_HAL_Driver/Src/stm32h7xx_ll_usb.c ****           }
 4769              		.loc 1 1835 34 is_stmt 0 view .LVU1629
 4770 00ae 0422     		movs	r2, #4
 4771 00b0 CA60     		str	r2, [r1, #12]
1804:Drivers/STM32H7xx_HAL_Driver/Src/stm32h7xx_ll_usb.c **** 
 4772              		.loc 1 1804 17 view .LVU1630
 4773 00b2 0122     		movs	r2, #1
 4774 00b4 12E0     		b	.L292
 4775              	.L296:
1839:Drivers/STM32H7xx_HAL_Driver/Src/stm32h7xx_ll_usb.c ****           }
ARM GAS  C:\Users\ADMINI~1\AppData\Local\Temp\cceMOlfx.s 			page 144


 4776              		.loc 1 1839 13 is_stmt 1 view .LVU1631
1839:Drivers/STM32H7xx_HAL_Driver/Src/stm32h7xx_ll_usb.c ****           }
 4777              		.loc 1 1839 34 is_stmt 0 view .LVU1632
 4778 00b6 0322     		movs	r2, #3
 4779 00b8 CA60     		str	r2, [r1, #12]
1804:Drivers/STM32H7xx_HAL_Driver/Src/stm32h7xx_ll_usb.c **** 
 4780              		.loc 1 1804 17 view .LVU1633
 4781 00ba 0122     		movs	r2, #1
 4782 00bc 0EE0     		b	.L292
 4783              	.L322:
1845:Drivers/STM32H7xx_HAL_Driver/Src/stm32h7xx_ll_usb.c ****         {
 4784              		.loc 1 1845 31 discriminator 1 view .LVU1634
 4785 00be 0C6A     		ldr	r4, [r1, #32]
1845:Drivers/STM32H7xx_HAL_Driver/Src/stm32h7xx_ll_usb.c ****         {
 4786              		.loc 1 1845 46 discriminator 1 view .LVU1635
 4787 00c0 8A8A     		ldrh	r2, [r1, #20]
1845:Drivers/STM32H7xx_HAL_Driver/Src/stm32h7xx_ll_usb.c ****         {
 4788              		.loc 1 1845 25 discriminator 1 view .LVU1636
 4789 00c2 9442     		cmp	r4, r2
 4790 00c4 D9D9     		bls	.L297
1847:Drivers/STM32H7xx_HAL_Driver/Src/stm32h7xx_ll_usb.c ****         }
 4791              		.loc 1 1847 11 is_stmt 1 view .LVU1637
1847:Drivers/STM32H7xx_HAL_Driver/Src/stm32h7xx_ll_usb.c ****         }
 4792              		.loc 1 1847 24 is_stmt 0 view .LVU1638
 4793 00c6 CA61     		str	r2, [r1, #28]
1804:Drivers/STM32H7xx_HAL_Driver/Src/stm32h7xx_ll_usb.c **** 
 4794              		.loc 1 1804 17 view .LVU1639
 4795 00c8 0122     		movs	r2, #1
1847:Drivers/STM32H7xx_HAL_Driver/Src/stm32h7xx_ll_usb.c ****         }
 4796              		.loc 1 1847 24 view .LVU1640
 4797 00ca 07E0     		b	.L292
 4798              	.LVL346:
 4799              	.L316:
1871:Drivers/STM32H7xx_HAL_Driver/Src/stm32h7xx_ll_usb.c ****     }
 4800              		.loc 1 1871 19 view .LVU1641
 4801 00cc 0122     		movs	r2, #1
 4802              	.L298:
 4803              	.LVL347:
1878:Drivers/STM32H7xx_HAL_Driver/Src/stm32h7xx_ll_usb.c ****     {
 4804              		.loc 1 1878 5 is_stmt 1 view .LVU1642
1878:Drivers/STM32H7xx_HAL_Driver/Src/stm32h7xx_ll_usb.c ****     {
 4805              		.loc 1 1878 11 is_stmt 0 view .LVU1643
 4806 00ce CD78     		ldrb	r5, [r1, #3]	@ zero_extendqisi2
1878:Drivers/STM32H7xx_HAL_Driver/Src/stm32h7xx_ll_usb.c ****     {
 4807              		.loc 1 1878 8 view .LVU1644
 4808 00d0 002D     		cmp	r5, #0
 4809 00d2 65D0     		beq	.L299
1880:Drivers/STM32H7xx_HAL_Driver/Src/stm32h7xx_ll_usb.c ****     }
 4810              		.loc 1 1880 7 is_stmt 1 view .LVU1645
1880:Drivers/STM32H7xx_HAL_Driver/Src/stm32h7xx_ll_usb.c ****     }
 4811              		.loc 1 1880 48 is_stmt 0 view .LVU1646
 4812 00d4 8C8A     		ldrh	r4, [r1, #20]
1880:Drivers/STM32H7xx_HAL_Driver/Src/stm32h7xx_ll_usb.c ****     }
 4813              		.loc 1 1880 44 view .LVU1647
 4814 00d6 02FB04F4 		mul	r4, r2, r4
1880:Drivers/STM32H7xx_HAL_Driver/Src/stm32h7xx_ll_usb.c ****     }
 4815              		.loc 1 1880 20 view .LVU1648
ARM GAS  C:\Users\ADMINI~1\AppData\Local\Temp\cceMOlfx.s 			page 145


 4816 00da CC61     		str	r4, [r1, #28]
 4817              	.LVL348:
 4818              	.L292:
1889:Drivers/STM32H7xx_HAL_Driver/Src/stm32h7xx_ll_usb.c ****                             (((uint32_t)num_packets << 19) & USB_OTG_HCTSIZ_PKTCNT) |
 4819              		.loc 1 1889 3 is_stmt 1 view .LVU1649
1889:Drivers/STM32H7xx_HAL_Driver/Src/stm32h7xx_ll_usb.c ****                             (((uint32_t)num_packets << 19) & USB_OTG_HCTSIZ_PKTCNT) |
 4820              		.loc 1 1889 43 is_stmt 0 view .LVU1650
 4821 00dc CC69     		ldr	r4, [r1, #28]
 4822 00de C4F3120C 		ubfx	ip, r4, #0, #19
1890:Drivers/STM32H7xx_HAL_Driver/Src/stm32h7xx_ll_usb.c ****                             (((uint32_t)hc->data_pid << 29) & USB_OTG_HCTSIZ_DPID);
 4823              		.loc 1 1890 60 view .LVU1651
 4824 00e2 674C     		ldr	r4, .L327
 4825 00e4 04EAC242 		and	r2, r4, r2, lsl #19
 4826              	.LVL349:
1889:Drivers/STM32H7xx_HAL_Driver/Src/stm32h7xx_ll_usb.c ****                             (((uint32_t)num_packets << 19) & USB_OTG_HCTSIZ_PKTCNT) |
 4827              		.loc 1 1889 68 view .LVU1652
 4828 00e8 4CEA020C 		orr	ip, ip, r2
1891:Drivers/STM32H7xx_HAL_Driver/Src/stm32h7xx_ll_usb.c **** 
 4829              		.loc 1 1891 43 view .LVU1653
 4830 00ec 8A7D     		ldrb	r2, [r1, #22]	@ zero_extendqisi2
1891:Drivers/STM32H7xx_HAL_Driver/Src/stm32h7xx_ll_usb.c **** 
 4831              		.loc 1 1891 54 view .LVU1654
 4832 00ee 5207     		lsls	r2, r2, #29
1891:Drivers/STM32H7xx_HAL_Driver/Src/stm32h7xx_ll_usb.c **** 
 4833              		.loc 1 1891 61 view .LVU1655
 4834 00f0 02F0C042 		and	r2, r2, #1610612736
1889:Drivers/STM32H7xx_HAL_Driver/Src/stm32h7xx_ll_usb.c ****                             (((uint32_t)num_packets << 19) & USB_OTG_HCTSIZ_PKTCNT) |
 4835              		.loc 1 1889 3 view .LVU1656
 4836 00f4 00EB4313 		add	r3, r0, r3, lsl #5
 4837              	.LVL350:
1889:Drivers/STM32H7xx_HAL_Driver/Src/stm32h7xx_ll_usb.c ****                             (((uint32_t)num_packets << 19) & USB_OTG_HCTSIZ_PKTCNT) |
 4838              		.loc 1 1889 3 view .LVU1657
 4839 00f8 03F5A064 		add	r4, r3, #1280
1890:Drivers/STM32H7xx_HAL_Driver/Src/stm32h7xx_ll_usb.c ****                             (((uint32_t)hc->data_pid << 29) & USB_OTG_HCTSIZ_DPID);
 4840              		.loc 1 1890 85 view .LVU1658
 4841 00fc 4CEA0202 		orr	r2, ip, r2
1889:Drivers/STM32H7xx_HAL_Driver/Src/stm32h7xx_ll_usb.c ****                             (((uint32_t)num_packets << 19) & USB_OTG_HCTSIZ_PKTCNT) |
 4842              		.loc 1 1889 27 view .LVU1659
 4843 0100 2261     		str	r2, [r4, #16]
1893:Drivers/STM32H7xx_HAL_Driver/Src/stm32h7xx_ll_usb.c ****   {
 4844              		.loc 1 1893 3 is_stmt 1 view .LVU1660
1893:Drivers/STM32H7xx_HAL_Driver/Src/stm32h7xx_ll_usb.c ****   {
 4845              		.loc 1 1893 6 is_stmt 0 view .LVU1661
 4846 0102 BEF1000F 		cmp	lr, #0
 4847 0106 01D0     		beq	.L300
1896:Drivers/STM32H7xx_HAL_Driver/Src/stm32h7xx_ll_usb.c ****   }
 4848              		.loc 1 1896 5 is_stmt 1 view .LVU1662
1896:Drivers/STM32H7xx_HAL_Driver/Src/stm32h7xx_ll_usb.c ****   }
 4849              		.loc 1 1896 42 is_stmt 0 view .LVU1663
 4850 0108 8A69     		ldr	r2, [r1, #24]
1896:Drivers/STM32H7xx_HAL_Driver/Src/stm32h7xx_ll_usb.c ****   }
 4851              		.loc 1 1896 28 view .LVU1664
 4852 010a 6261     		str	r2, [r4, #20]
 4853              	.L300:
1899:Drivers/STM32H7xx_HAL_Driver/Src/stm32h7xx_ll_usb.c ****   USBx_HC(ch_num)->HCCHAR &= ~USB_OTG_HCCHAR_ODDFRM;
 4854              		.loc 1 1899 3 is_stmt 1 view .LVU1665
1899:Drivers/STM32H7xx_HAL_Driver/Src/stm32h7xx_ll_usb.c ****   USBx_HC(ch_num)->HCCHAR &= ~USB_OTG_HCCHAR_ODDFRM;
ARM GAS  C:\Users\ADMINI~1\AppData\Local\Temp\cceMOlfx.s 			page 146


 4855              		.loc 1 1899 29 is_stmt 0 view .LVU1666
 4856 010c 00F58065 		add	r5, r0, #1024
1899:Drivers/STM32H7xx_HAL_Driver/Src/stm32h7xx_ll_usb.c ****   USBx_HC(ch_num)->HCCHAR &= ~USB_OTG_HCCHAR_ODDFRM;
 4857              		.loc 1 1899 38 view .LVU1667
 4858 0110 AA68     		ldr	r2, [r5, #8]
 4859              	.LVL351:
1900:Drivers/STM32H7xx_HAL_Driver/Src/stm32h7xx_ll_usb.c ****   USBx_HC(ch_num)->HCCHAR |= (uint32_t)is_oddframe << 29;
 4860              		.loc 1 1900 3 is_stmt 1 view .LVU1668
1900:Drivers/STM32H7xx_HAL_Driver/Src/stm32h7xx_ll_usb.c ****   USBx_HC(ch_num)->HCCHAR |= (uint32_t)is_oddframe << 29;
 4861              		.loc 1 1900 18 is_stmt 0 view .LVU1669
 4862 0112 D3F80065 		ldr	r6, [r3, #1280]
1900:Drivers/STM32H7xx_HAL_Driver/Src/stm32h7xx_ll_usb.c ****   USBx_HC(ch_num)->HCCHAR |= (uint32_t)is_oddframe << 29;
 4863              		.loc 1 1900 27 view .LVU1670
 4864 0116 26F00056 		bic	r6, r6, #536870912
 4865 011a C3F80065 		str	r6, [r3, #1280]
1901:Drivers/STM32H7xx_HAL_Driver/Src/stm32h7xx_ll_usb.c **** 
 4866              		.loc 1 1901 3 is_stmt 1 view .LVU1671
1901:Drivers/STM32H7xx_HAL_Driver/Src/stm32h7xx_ll_usb.c **** 
 4867              		.loc 1 1901 18 is_stmt 0 view .LVU1672
 4868 011e D3F80065 		ldr	r6, [r3, #1280]
1901:Drivers/STM32H7xx_HAL_Driver/Src/stm32h7xx_ll_usb.c **** 
 4869              		.loc 1 1901 52 view .LVU1673
 4870 0122 6FEA020C 		mvn	ip, r2
 4871 0126 4FEA4C7C 		lsl	ip, ip, #29
 4872 012a 0CF0005C 		and	ip, ip, #536870912
1901:Drivers/STM32H7xx_HAL_Driver/Src/stm32h7xx_ll_usb.c **** 
 4873              		.loc 1 1901 27 view .LVU1674
 4874 012e 46EA0C06 		orr	r6, r6, ip
 4875 0132 C3F80065 		str	r6, [r3, #1280]
1903:Drivers/STM32H7xx_HAL_Driver/Src/stm32h7xx_ll_usb.c ****   {
 4876              		.loc 1 1903 3 is_stmt 1 view .LVU1675
1903:Drivers/STM32H7xx_HAL_Driver/Src/stm32h7xx_ll_usb.c ****   {
 4877              		.loc 1 1903 9 is_stmt 0 view .LVU1676
 4878 0136 8A79     		ldrb	r2, [r1, #6]	@ zero_extendqisi2
 4879              	.LVL352:
1903:Drivers/STM32H7xx_HAL_Driver/Src/stm32h7xx_ll_usb.c ****   {
 4880              		.loc 1 1903 6 view .LVU1677
 4881 0138 012A     		cmp	r2, #1
 4882 013a 33D0     		beq	.L324
1959:Drivers/STM32H7xx_HAL_Driver/Src/stm32h7xx_ll_usb.c ****   }
 4883              		.loc 1 1959 5 is_stmt 1 view .LVU1678
1959:Drivers/STM32H7xx_HAL_Driver/Src/stm32h7xx_ll_usb.c ****   }
 4884              		.loc 1 1959 39 is_stmt 0 view .LVU1679
 4885 013c 0022     		movs	r2, #0
 4886 013e 6260     		str	r2, [r4, #4]
 4887              	.L304:
1963:Drivers/STM32H7xx_HAL_Driver/Src/stm32h7xx_ll_usb.c ****   tmpreg &= ~USB_OTG_HCCHAR_CHDIS;
 4888              		.loc 1 1963 3 is_stmt 1 view .LVU1680
1963:Drivers/STM32H7xx_HAL_Driver/Src/stm32h7xx_ll_usb.c ****   tmpreg &= ~USB_OTG_HCCHAR_CHDIS;
 4889              		.loc 1 1963 27 is_stmt 0 view .LVU1681
 4890 0140 D3F80025 		ldr	r2, [r3, #1280]
1963:Drivers/STM32H7xx_HAL_Driver/Src/stm32h7xx_ll_usb.c ****   tmpreg &= ~USB_OTG_HCCHAR_CHDIS;
 4891              		.loc 1 1963 10 view .LVU1682
 4892 0144 0392     		str	r2, [sp, #12]
1964:Drivers/STM32H7xx_HAL_Driver/Src/stm32h7xx_ll_usb.c **** 
 4893              		.loc 1 1964 3 is_stmt 1 view .LVU1683
1964:Drivers/STM32H7xx_HAL_Driver/Src/stm32h7xx_ll_usb.c **** 
ARM GAS  C:\Users\ADMINI~1\AppData\Local\Temp\cceMOlfx.s 			page 147


 4894              		.loc 1 1964 10 is_stmt 0 view .LVU1684
 4895 0146 039A     		ldr	r2, [sp, #12]
 4896 0148 22F08042 		bic	r2, r2, #1073741824
 4897 014c 0392     		str	r2, [sp, #12]
1967:Drivers/STM32H7xx_HAL_Driver/Src/stm32h7xx_ll_usb.c ****   {
 4898              		.loc 1 1967 3 is_stmt 1 view .LVU1685
1967:Drivers/STM32H7xx_HAL_Driver/Src/stm32h7xx_ll_usb.c ****   {
 4899              		.loc 1 1967 9 is_stmt 0 view .LVU1686
 4900 014e CA78     		ldrb	r2, [r1, #3]	@ zero_extendqisi2
1967:Drivers/STM32H7xx_HAL_Driver/Src/stm32h7xx_ll_usb.c ****   {
 4901              		.loc 1 1967 6 view .LVU1687
 4902 0150 002A     		cmp	r2, #0
 4903 0152 75D0     		beq	.L310
1969:Drivers/STM32H7xx_HAL_Driver/Src/stm32h7xx_ll_usb.c ****   }
 4904              		.loc 1 1969 5 is_stmt 1 view .LVU1688
1969:Drivers/STM32H7xx_HAL_Driver/Src/stm32h7xx_ll_usb.c ****   }
 4905              		.loc 1 1969 12 is_stmt 0 view .LVU1689
 4906 0154 039A     		ldr	r2, [sp, #12]
 4907 0156 42F40042 		orr	r2, r2, #32768
 4908 015a 0392     		str	r2, [sp, #12]
 4909              	.L311:
1975:Drivers/STM32H7xx_HAL_Driver/Src/stm32h7xx_ll_usb.c ****   USBx_HC(ch_num)->HCCHAR = tmpreg;
 4910              		.loc 1 1975 3 is_stmt 1 view .LVU1690
1975:Drivers/STM32H7xx_HAL_Driver/Src/stm32h7xx_ll_usb.c ****   USBx_HC(ch_num)->HCCHAR = tmpreg;
 4911              		.loc 1 1975 10 is_stmt 0 view .LVU1691
 4912 015c 039A     		ldr	r2, [sp, #12]
 4913 015e 42F00042 		orr	r2, r2, #-2147483648
 4914 0162 0392     		str	r2, [sp, #12]
1976:Drivers/STM32H7xx_HAL_Driver/Src/stm32h7xx_ll_usb.c **** 
 4915              		.loc 1 1976 3 is_stmt 1 view .LVU1692
1976:Drivers/STM32H7xx_HAL_Driver/Src/stm32h7xx_ll_usb.c **** 
 4916              		.loc 1 1976 27 is_stmt 0 view .LVU1693
 4917 0164 039A     		ldr	r2, [sp, #12]
 4918 0166 C3F80025 		str	r2, [r3, #1280]
1978:Drivers/STM32H7xx_HAL_Driver/Src/stm32h7xx_ll_usb.c ****   {
 4919              		.loc 1 1978 3 is_stmt 1 view .LVU1694
1978:Drivers/STM32H7xx_HAL_Driver/Src/stm32h7xx_ll_usb.c ****   {
 4920              		.loc 1 1978 6 is_stmt 0 view .LVU1695
 4921 016a BEF1000F 		cmp	lr, #0
 4922 016e 14D1     		bne	.L289
1983:Drivers/STM32H7xx_HAL_Driver/Src/stm32h7xx_ll_usb.c ****   {
 4923              		.loc 1 1983 3 is_stmt 1 view .LVU1696
1983:Drivers/STM32H7xx_HAL_Driver/Src/stm32h7xx_ll_usb.c ****   {
 4924              		.loc 1 1983 10 is_stmt 0 view .LVU1697
 4925 0170 CB78     		ldrb	r3, [r1, #3]	@ zero_extendqisi2
1983:Drivers/STM32H7xx_HAL_Driver/Src/stm32h7xx_ll_usb.c ****   {
 4926              		.loc 1 1983 6 view .LVU1698
 4927 0172 93B9     		cbnz	r3, .L289
1983:Drivers/STM32H7xx_HAL_Driver/Src/stm32h7xx_ll_usb.c ****   {
 4928              		.loc 1 1983 34 discriminator 1 view .LVU1699
 4929 0174 0B6A     		ldr	r3, [r1, #32]
1983:Drivers/STM32H7xx_HAL_Driver/Src/stm32h7xx_ll_usb.c ****   {
 4930              		.loc 1 1983 28 discriminator 1 view .LVU1700
 4931 0176 83B1     		cbz	r3, .L289
1983:Drivers/STM32H7xx_HAL_Driver/Src/stm32h7xx_ll_usb.c ****   {
 4932              		.loc 1 1983 57 discriminator 2 view .LVU1701
 4933 0178 CA79     		ldrb	r2, [r1, #7]	@ zero_extendqisi2
ARM GAS  C:\Users\ADMINI~1\AppData\Local\Temp\cceMOlfx.s 			page 148


1983:Drivers/STM32H7xx_HAL_Driver/Src/stm32h7xx_ll_usb.c ****   {
 4934              		.loc 1 1983 51 discriminator 2 view .LVU1702
 4935 017a 72B9     		cbnz	r2, .L289
1985:Drivers/STM32H7xx_HAL_Driver/Src/stm32h7xx_ll_usb.c ****     {
 4936              		.loc 1 1985 5 is_stmt 1 view .LVU1703
1985:Drivers/STM32H7xx_HAL_Driver/Src/stm32h7xx_ll_usb.c ****     {
 4937              		.loc 1 1985 15 is_stmt 0 view .LVU1704
 4938 017c 8A7C     		ldrb	r2, [r1, #18]	@ zero_extendqisi2
1985:Drivers/STM32H7xx_HAL_Driver/Src/stm32h7xx_ll_usb.c ****     {
 4939              		.loc 1 1985 5 view .LVU1705
 4940 017e 022A     		cmp	r2, #2
 4941 0180 71D0     		beq	.L312
 4942 0182 62D8     		bhi	.L313
 4943 0184 002A     		cmp	r2, #0
 4944 0186 6ED0     		beq	.L312
 4945 0188 012A     		cmp	r2, #1
 4946 018a 60D0     		beq	.L314
 4947              	.L315:
2018:Drivers/STM32H7xx_HAL_Driver/Src/stm32h7xx_ll_usb.c ****   }
 4948              		.loc 1 2018 5 is_stmt 1 view .LVU1706
2018:Drivers/STM32H7xx_HAL_Driver/Src/stm32h7xx_ll_usb.c ****   }
 4949              		.loc 1 2018 11 is_stmt 0 view .LVU1707
 4950 018c 0023     		movs	r3, #0
 4951 018e 0093     		str	r3, [sp]
 4952 0190 0B8C     		ldrh	r3, [r1, #32]
 4953 0192 4A78     		ldrb	r2, [r1, #1]	@ zero_extendqisi2
 4954 0194 8969     		ldr	r1, [r1, #24]
 4955              	.LVL353:
2018:Drivers/STM32H7xx_HAL_Driver/Src/stm32h7xx_ll_usb.c ****   }
 4956              		.loc 1 2018 11 view .LVU1708
 4957 0196 FFF7FEFF 		bl	USB_WritePacket
 4958              	.LVL354:
 4959              	.L289:
2022:Drivers/STM32H7xx_HAL_Driver/Src/stm32h7xx_ll_usb.c **** 
 4960              		.loc 1 2022 1 view .LVU1709
 4961 019a 0020     		movs	r0, #0
 4962 019c 04B0     		add	sp, sp, #16
 4963              	.LCFI52:
 4964              		.cfi_remember_state
 4965              		.cfi_def_cfa_offset 16
 4966              		@ sp needed
 4967 019e 70BD     		pop	{r4, r5, r6, pc}
 4968              	.LVL355:
 4969              	.L299:
 4970              	.LCFI53:
 4971              		.cfi_restore_state
1884:Drivers/STM32H7xx_HAL_Driver/Src/stm32h7xx_ll_usb.c ****     }
 4972              		.loc 1 1884 7 is_stmt 1 view .LVU1710
1884:Drivers/STM32H7xx_HAL_Driver/Src/stm32h7xx_ll_usb.c ****     }
 4973              		.loc 1 1884 20 is_stmt 0 view .LVU1711
 4974 01a0 CC61     		str	r4, [r1, #28]
 4975 01a2 9BE7     		b	.L292
 4976              	.LVL356:
 4977              	.L324:
1906:Drivers/STM32H7xx_HAL_Driver/Src/stm32h7xx_ll_usb.c ****                                         (uint32_t)hc->hub_port_nbr | USB_OTG_HCSPLT_SPLITEN;
 4978              		.loc 1 1906 5 is_stmt 1 view .LVU1712
1906:Drivers/STM32H7xx_HAL_Driver/Src/stm32h7xx_ll_usb.c ****                                         (uint32_t)hc->hub_port_nbr | USB_OTG_HCSPLT_SPLITEN;
ARM GAS  C:\Users\ADMINI~1\AppData\Local\Temp\cceMOlfx.s 			page 149


 4979              		.loc 1 1906 54 is_stmt 0 view .LVU1713
 4980 01a4 4E7C     		ldrb	r6, [r1, #17]	@ zero_extendqisi2
1907:Drivers/STM32H7xx_HAL_Driver/Src/stm32h7xx_ll_usb.c **** 
 4981              		.loc 1 1907 53 view .LVU1714
 4982 01a6 0A7C     		ldrb	r2, [r1, #16]	@ zero_extendqisi2
1906:Drivers/STM32H7xx_HAL_Driver/Src/stm32h7xx_ll_usb.c ****                                         (uint32_t)hc->hub_port_nbr | USB_OTG_HCSPLT_SPLITEN;
 4983              		.loc 1 1906 96 view .LVU1715
 4984 01a8 42EAC612 		orr	r2, r2, r6, lsl #7
1907:Drivers/STM32H7xx_HAL_Driver/Src/stm32h7xx_ll_usb.c **** 
 4985              		.loc 1 1907 68 view .LVU1716
 4986 01ac 42F00042 		orr	r2, r2, #-2147483648
1906:Drivers/STM32H7xx_HAL_Driver/Src/stm32h7xx_ll_usb.c ****                                         (uint32_t)hc->hub_port_nbr | USB_OTG_HCSPLT_SPLITEN;
 4987              		.loc 1 1906 39 view .LVU1717
 4988 01b0 6260     		str	r2, [r4, #4]
1910:Drivers/STM32H7xx_HAL_Driver/Src/stm32h7xx_ll_usb.c ****                                             USB_OTG_HCINTMSK_NYET);
 4989              		.loc 1 1910 5 is_stmt 1 view .LVU1718
1910:Drivers/STM32H7xx_HAL_Driver/Src/stm32h7xx_ll_usb.c ****                                             USB_OTG_HCINTMSK_NYET);
 4990              		.loc 1 1910 30 is_stmt 0 view .LVU1719
 4991 01b2 E268     		ldr	r2, [r4, #12]
1910:Drivers/STM32H7xx_HAL_Driver/Src/stm32h7xx_ll_usb.c ****                                             USB_OTG_HCINTMSK_NYET);
 4992              		.loc 1 1910 41 view .LVU1720
 4993 01b4 42F06002 		orr	r2, r2, #96
 4994 01b8 E260     		str	r2, [r4, #12]
1913:Drivers/STM32H7xx_HAL_Driver/Src/stm32h7xx_ll_usb.c ****     {
 4995              		.loc 1 1913 5 is_stmt 1 view .LVU1721
1913:Drivers/STM32H7xx_HAL_Driver/Src/stm32h7xx_ll_usb.c ****     {
 4996              		.loc 1 1913 12 is_stmt 0 view .LVU1722
 4997 01ba CA79     		ldrb	r2, [r1, #7]	@ zero_extendqisi2
1913:Drivers/STM32H7xx_HAL_Driver/Src/stm32h7xx_ll_usb.c ****     {
 4998              		.loc 1 1913 8 view .LVU1723
 4999 01bc 012A     		cmp	r2, #1
 5000 01be 1AD0     		beq	.L325
 5001              	.L302:
1919:Drivers/STM32H7xx_HAL_Driver/Src/stm32h7xx_ll_usb.c ****         (hc->do_csplit == 1U) && (hc->ep_is_in == 1U))
 5002              		.loc 1 1919 5 is_stmt 1 view .LVU1724
1919:Drivers/STM32H7xx_HAL_Driver/Src/stm32h7xx_ll_usb.c ****         (hc->do_csplit == 1U) && (hc->ep_is_in == 1U))
 5003              		.loc 1 1919 13 is_stmt 0 view .LVU1725
 5004 01c0 8A7C     		ldrb	r2, [r1, #18]	@ zero_extendqisi2
1919:Drivers/STM32H7xx_HAL_Driver/Src/stm32h7xx_ll_usb.c ****         (hc->do_csplit == 1U) && (hc->ep_is_in == 1U))
 5005              		.loc 1 1919 8 view .LVU1726
 5006 01c2 032A     		cmp	r2, #3
 5007 01c4 18BF     		it	ne
 5008 01c6 012A     		cmpne	r2, #1
 5009 01c8 02D1     		bne	.L303
1920:Drivers/STM32H7xx_HAL_Driver/Src/stm32h7xx_ll_usb.c ****     {
 5010              		.loc 1 1920 12 view .LVU1727
 5011 01ca CA79     		ldrb	r2, [r1, #7]	@ zero_extendqisi2
1919:Drivers/STM32H7xx_HAL_Driver/Src/stm32h7xx_ll_usb.c ****         (hc->do_csplit == 1U) && (hc->ep_is_in == 1U))
 5012              		.loc 1 1919 74 discriminator 1 view .LVU1728
 5013 01cc 012A     		cmp	r2, #1
 5014 01ce 1ED0     		beq	.L326
 5015              	.L303:
1926:Drivers/STM32H7xx_HAL_Driver/Src/stm32h7xx_ll_usb.c ****     {
 5016              		.loc 1 1926 5 is_stmt 1 view .LVU1729
1926:Drivers/STM32H7xx_HAL_Driver/Src/stm32h7xx_ll_usb.c ****     {
 5017              		.loc 1 1926 12 is_stmt 0 view .LVU1730
 5018 01d0 8A7C     		ldrb	r2, [r1, #18]	@ zero_extendqisi2
ARM GAS  C:\Users\ADMINI~1\AppData\Local\Temp\cceMOlfx.s 			page 150


1926:Drivers/STM32H7xx_HAL_Driver/Src/stm32h7xx_ll_usb.c ****     {
 5019              		.loc 1 1926 8 view .LVU1731
 5020 01d2 012A     		cmp	r2, #1
 5021 01d4 B4D1     		bne	.L304
1926:Drivers/STM32H7xx_HAL_Driver/Src/stm32h7xx_ll_usb.c ****     {
 5022              		.loc 1 1926 45 discriminator 1 view .LVU1732
 5023 01d6 CA78     		ldrb	r2, [r1, #3]	@ zero_extendqisi2
1926:Drivers/STM32H7xx_HAL_Driver/Src/stm32h7xx_ll_usb.c ****     {
 5024              		.loc 1 1926 39 discriminator 1 view .LVU1733
 5025 01d8 002A     		cmp	r2, #0
 5026 01da B1D1     		bne	.L304
1929:Drivers/STM32H7xx_HAL_Driver/Src/stm32h7xx_ll_usb.c ****       {
 5027              		.loc 1 1929 7 is_stmt 1 view .LVU1734
1929:Drivers/STM32H7xx_HAL_Driver/Src/stm32h7xx_ll_usb.c ****       {
 5028              		.loc 1 1929 17 is_stmt 0 view .LVU1735
 5029 01dc CA68     		ldr	r2, [r1, #12]
1929:Drivers/STM32H7xx_HAL_Driver/Src/stm32h7xx_ll_usb.c ****       {
 5030              		.loc 1 1929 7 view .LVU1736
 5031 01de 032A     		cmp	r2, #3
 5032 01e0 29D0     		beq	.L305
 5033 01e2 1CD8     		bhi	.L306
 5034 01e4 012A     		cmp	r2, #1
 5035 01e6 21D0     		beq	.L307
 5036 01e8 022A     		cmp	r2, #2
 5037 01ea A9D1     		bne	.L304
1938:Drivers/STM32H7xx_HAL_Driver/Src/stm32h7xx_ll_usb.c ****           break;
 5038              		.loc 1 1938 11 is_stmt 1 view .LVU1737
1938:Drivers/STM32H7xx_HAL_Driver/Src/stm32h7xx_ll_usb.c ****           break;
 5039              		.loc 1 1938 36 is_stmt 0 view .LVU1738
 5040 01ec 6268     		ldr	r2, [r4, #4]
1938:Drivers/STM32H7xx_HAL_Driver/Src/stm32h7xx_ll_usb.c ****           break;
 5041              		.loc 1 1938 45 view .LVU1739
 5042 01ee 42F00E02 		orr	r2, r2, #14
 5043 01f2 6260     		str	r2, [r4, #4]
1939:Drivers/STM32H7xx_HAL_Driver/Src/stm32h7xx_ll_usb.c **** 
 5044              		.loc 1 1939 11 is_stmt 1 view .LVU1740
 5045 01f4 A4E7     		b	.L304
 5046              	.L325:
1913:Drivers/STM32H7xx_HAL_Driver/Src/stm32h7xx_ll_usb.c ****     {
 5047              		.loc 1 1913 37 is_stmt 0 discriminator 1 view .LVU1741
 5048 01f6 CA78     		ldrb	r2, [r1, #3]	@ zero_extendqisi2
1913:Drivers/STM32H7xx_HAL_Driver/Src/stm32h7xx_ll_usb.c ****     {
 5049              		.loc 1 1913 31 discriminator 1 view .LVU1742
 5050 01f8 002A     		cmp	r2, #0
 5051 01fa E1D1     		bne	.L302
1915:Drivers/STM32H7xx_HAL_Driver/Src/stm32h7xx_ll_usb.c ****       USBx_HC((uint32_t)ch_num)->HCINTMSK |= USB_OTG_HCINTMSK_NYET;
 5052              		.loc 1 1915 7 is_stmt 1 view .LVU1743
1915:Drivers/STM32H7xx_HAL_Driver/Src/stm32h7xx_ll_usb.c ****       USBx_HC((uint32_t)ch_num)->HCINTMSK |= USB_OTG_HCINTMSK_NYET;
 5053              		.loc 1 1915 32 is_stmt 0 view .LVU1744
 5054 01fc 6268     		ldr	r2, [r4, #4]
1915:Drivers/STM32H7xx_HAL_Driver/Src/stm32h7xx_ll_usb.c ****       USBx_HC((uint32_t)ch_num)->HCINTMSK |= USB_OTG_HCINTMSK_NYET;
 5055              		.loc 1 1915 41 view .LVU1745
 5056 01fe 42F48032 		orr	r2, r2, #65536
 5057 0202 6260     		str	r2, [r4, #4]
1916:Drivers/STM32H7xx_HAL_Driver/Src/stm32h7xx_ll_usb.c ****     }
 5058              		.loc 1 1916 7 is_stmt 1 view .LVU1746
1916:Drivers/STM32H7xx_HAL_Driver/Src/stm32h7xx_ll_usb.c ****     }
ARM GAS  C:\Users\ADMINI~1\AppData\Local\Temp\cceMOlfx.s 			page 151


 5059              		.loc 1 1916 32 is_stmt 0 view .LVU1747
 5060 0204 E268     		ldr	r2, [r4, #12]
1916:Drivers/STM32H7xx_HAL_Driver/Src/stm32h7xx_ll_usb.c ****     }
 5061              		.loc 1 1916 43 view .LVU1748
 5062 0206 42F04002 		orr	r2, r2, #64
 5063 020a E260     		str	r2, [r4, #12]
 5064 020c D8E7     		b	.L302
 5065              	.L326:
1920:Drivers/STM32H7xx_HAL_Driver/Src/stm32h7xx_ll_usb.c ****     {
 5066              		.loc 1 1920 37 view .LVU1749
 5067 020e CA78     		ldrb	r2, [r1, #3]	@ zero_extendqisi2
1920:Drivers/STM32H7xx_HAL_Driver/Src/stm32h7xx_ll_usb.c ****     {
 5068              		.loc 1 1920 31 view .LVU1750
 5069 0210 012A     		cmp	r2, #1
 5070 0212 DDD1     		bne	.L303
1922:Drivers/STM32H7xx_HAL_Driver/Src/stm32h7xx_ll_usb.c ****     }
 5071              		.loc 1 1922 7 is_stmt 1 view .LVU1751
1922:Drivers/STM32H7xx_HAL_Driver/Src/stm32h7xx_ll_usb.c ****     }
 5072              		.loc 1 1922 32 is_stmt 0 view .LVU1752
 5073 0214 6268     		ldr	r2, [r4, #4]
1922:Drivers/STM32H7xx_HAL_Driver/Src/stm32h7xx_ll_usb.c ****     }
 5074              		.loc 1 1922 41 view .LVU1753
 5075 0216 42F48032 		orr	r2, r2, #65536
 5076 021a 6260     		str	r2, [r4, #4]
 5077 021c D8E7     		b	.L303
 5078              	.L306:
1929:Drivers/STM32H7xx_HAL_Driver/Src/stm32h7xx_ll_usb.c ****       {
 5079              		.loc 1 1929 7 view .LVU1754
 5080 021e 042A     		cmp	r2, #4
 5081 0220 8ED1     		bne	.L304
1948:Drivers/STM32H7xx_HAL_Driver/Src/stm32h7xx_ll_usb.c ****           break;
 5082              		.loc 1 1948 11 is_stmt 1 view .LVU1755
1948:Drivers/STM32H7xx_HAL_Driver/Src/stm32h7xx_ll_usb.c ****           break;
 5083              		.loc 1 1948 36 is_stmt 0 view .LVU1756
 5084 0222 6268     		ldr	r2, [r4, #4]
1948:Drivers/STM32H7xx_HAL_Driver/Src/stm32h7xx_ll_usb.c ****           break;
 5085              		.loc 1 1948 45 view .LVU1757
 5086 0224 42F44042 		orr	r2, r2, #49152
 5087 0228 6260     		str	r2, [r4, #4]
1949:Drivers/STM32H7xx_HAL_Driver/Src/stm32h7xx_ll_usb.c **** 
 5088              		.loc 1 1949 11 is_stmt 1 view .LVU1758
 5089 022a 89E7     		b	.L304
 5090              	.L307:
1933:Drivers/STM32H7xx_HAL_Driver/Src/stm32h7xx_ll_usb.c ****           break;
 5091              		.loc 1 1933 11 view .LVU1759
1933:Drivers/STM32H7xx_HAL_Driver/Src/stm32h7xx_ll_usb.c ****           break;
 5092              		.loc 1 1933 36 is_stmt 0 view .LVU1760
 5093 022c 6268     		ldr	r2, [r4, #4]
1933:Drivers/STM32H7xx_HAL_Driver/Src/stm32h7xx_ll_usb.c ****           break;
 5094              		.loc 1 1933 45 view .LVU1761
 5095 022e 42F40042 		orr	r2, r2, #32768
 5096 0232 6260     		str	r2, [r4, #4]
1934:Drivers/STM32H7xx_HAL_Driver/Src/stm32h7xx_ll_usb.c **** 
 5097              		.loc 1 1934 11 is_stmt 1 view .LVU1762
 5098 0234 84E7     		b	.L304
 5099              	.L305:
1943:Drivers/STM32H7xx_HAL_Driver/Src/stm32h7xx_ll_usb.c ****           break;
ARM GAS  C:\Users\ADMINI~1\AppData\Local\Temp\cceMOlfx.s 			page 152


 5100              		.loc 1 1943 11 view .LVU1763
1943:Drivers/STM32H7xx_HAL_Driver/Src/stm32h7xx_ll_usb.c ****           break;
 5101              		.loc 1 1943 36 is_stmt 0 view .LVU1764
 5102 0236 6268     		ldr	r2, [r4, #4]
1943:Drivers/STM32H7xx_HAL_Driver/Src/stm32h7xx_ll_usb.c ****           break;
 5103              		.loc 1 1943 45 view .LVU1765
 5104 0238 42F48042 		orr	r2, r2, #16384
 5105 023c 6260     		str	r2, [r4, #4]
1944:Drivers/STM32H7xx_HAL_Driver/Src/stm32h7xx_ll_usb.c **** 
 5106              		.loc 1 1944 11 is_stmt 1 view .LVU1766
 5107 023e 7FE7     		b	.L304
 5108              	.L310:
1973:Drivers/STM32H7xx_HAL_Driver/Src/stm32h7xx_ll_usb.c ****   }
 5109              		.loc 1 1973 5 view .LVU1767
1973:Drivers/STM32H7xx_HAL_Driver/Src/stm32h7xx_ll_usb.c ****   }
 5110              		.loc 1 1973 12 is_stmt 0 view .LVU1768
 5111 0240 039A     		ldr	r2, [sp, #12]
 5112 0242 22F40042 		bic	r2, r2, #32768
 5113 0246 0392     		str	r2, [sp, #12]
 5114 0248 88E7     		b	.L311
 5115              	.L313:
1985:Drivers/STM32H7xx_HAL_Driver/Src/stm32h7xx_ll_usb.c ****     {
 5116              		.loc 1 1985 5 view .LVU1769
 5117 024a 032A     		cmp	r2, #3
 5118 024c 9ED1     		bne	.L315
 5119              	.L314:
2004:Drivers/STM32H7xx_HAL_Driver/Src/stm32h7xx_ll_usb.c ****         /* check if there is enough space in FIFO space */
 5120              		.loc 1 2004 9 is_stmt 1 view .LVU1770
2004:Drivers/STM32H7xx_HAL_Driver/Src/stm32h7xx_ll_usb.c ****         /* check if there is enough space in FIFO space */
 5121              		.loc 1 2004 46 is_stmt 0 view .LVU1771
 5122 024e 0333     		adds	r3, r3, #3
 5123              	.LVL357:
2006:Drivers/STM32H7xx_HAL_Driver/Src/stm32h7xx_ll_usb.c ****         {
 5124              		.loc 1 2006 9 is_stmt 1 view .LVU1772
2006:Drivers/STM32H7xx_HAL_Driver/Src/stm32h7xx_ll_usb.c ****         {
 5125              		.loc 1 2006 35 is_stmt 0 view .LVU1773
 5126 0250 2A69     		ldr	r2, [r5, #16]
2006:Drivers/STM32H7xx_HAL_Driver/Src/stm32h7xx_ll_usb.c ****         {
 5127              		.loc 1 2006 45 view .LVU1774
 5128 0252 92B2     		uxth	r2, r2
2006:Drivers/STM32H7xx_HAL_Driver/Src/stm32h7xx_ll_usb.c ****         {
 5129              		.loc 1 2006 12 view .LVU1775
 5130 0254 C3F38F03 		ubfx	r3, r3, #2, #16
 5131              	.LVL358:
2006:Drivers/STM32H7xx_HAL_Driver/Src/stm32h7xx_ll_usb.c ****         {
 5132              		.loc 1 2006 12 view .LVU1776
 5133 0258 9A42     		cmp	r2, r3
 5134 025a 97D2     		bcs	.L315
2009:Drivers/STM32H7xx_HAL_Driver/Src/stm32h7xx_ll_usb.c ****         }
 5135              		.loc 1 2009 11 is_stmt 1 view .LVU1777
2009:Drivers/STM32H7xx_HAL_Driver/Src/stm32h7xx_ll_usb.c ****         }
 5136              		.loc 1 2009 15 is_stmt 0 view .LVU1778
 5137 025c 8369     		ldr	r3, [r0, #24]
2009:Drivers/STM32H7xx_HAL_Driver/Src/stm32h7xx_ll_usb.c ****         }
 5138              		.loc 1 2009 25 view .LVU1779
 5139 025e 43F08063 		orr	r3, r3, #67108864
 5140 0262 8361     		str	r3, [r0, #24]
ARM GAS  C:\Users\ADMINI~1\AppData\Local\Temp\cceMOlfx.s 			page 153


 5141              	.LVL359:
2009:Drivers/STM32H7xx_HAL_Driver/Src/stm32h7xx_ll_usb.c ****         }
 5142              		.loc 1 2009 25 view .LVU1780
 5143 0264 92E7     		b	.L315
 5144              	.LVL360:
 5145              	.L312:
1991:Drivers/STM32H7xx_HAL_Driver/Src/stm32h7xx_ll_usb.c **** 
 5146              		.loc 1 1991 9 is_stmt 1 view .LVU1781
1991:Drivers/STM32H7xx_HAL_Driver/Src/stm32h7xx_ll_usb.c **** 
 5147              		.loc 1 1991 46 is_stmt 0 view .LVU1782
 5148 0266 0333     		adds	r3, r3, #3
 5149              	.LVL361:
1994:Drivers/STM32H7xx_HAL_Driver/Src/stm32h7xx_ll_usb.c ****         {
 5150              		.loc 1 1994 9 is_stmt 1 view .LVU1783
1994:Drivers/STM32H7xx_HAL_Driver/Src/stm32h7xx_ll_usb.c ****         {
 5151              		.loc 1 1994 30 is_stmt 0 view .LVU1784
 5152 0268 C26A     		ldr	r2, [r0, #44]
1994:Drivers/STM32H7xx_HAL_Driver/Src/stm32h7xx_ll_usb.c ****         {
 5153              		.loc 1 1994 41 view .LVU1785
 5154 026a 92B2     		uxth	r2, r2
1994:Drivers/STM32H7xx_HAL_Driver/Src/stm32h7xx_ll_usb.c ****         {
 5155              		.loc 1 1994 12 view .LVU1786
 5156 026c C3F38F03 		ubfx	r3, r3, #2, #16
 5157              	.LVL362:
1994:Drivers/STM32H7xx_HAL_Driver/Src/stm32h7xx_ll_usb.c ****         {
 5158              		.loc 1 1994 12 view .LVU1787
 5159 0270 9A42     		cmp	r2, r3
 5160 0272 8BD2     		bcs	.L315
1997:Drivers/STM32H7xx_HAL_Driver/Src/stm32h7xx_ll_usb.c ****         }
 5161              		.loc 1 1997 11 is_stmt 1 view .LVU1788
1997:Drivers/STM32H7xx_HAL_Driver/Src/stm32h7xx_ll_usb.c ****         }
 5162              		.loc 1 1997 15 is_stmt 0 view .LVU1789
 5163 0274 8369     		ldr	r3, [r0, #24]
1997:Drivers/STM32H7xx_HAL_Driver/Src/stm32h7xx_ll_usb.c ****         }
 5164              		.loc 1 1997 25 view .LVU1790
 5165 0276 43F02003 		orr	r3, r3, #32
 5166 027a 8361     		str	r3, [r0, #24]
 5167              	.LVL363:
1997:Drivers/STM32H7xx_HAL_Driver/Src/stm32h7xx_ll_usb.c ****         }
 5168              		.loc 1 1997 25 view .LVU1791
 5169 027c 86E7     		b	.L315
 5170              	.L328:
 5171 027e 00BF     		.align	2
 5172              	.L327:
 5173 0280 0000F81F 		.word	536346624
 5174              		.cfi_endproc
 5175              	.LFE392:
 5177              		.section	.text.USB_StopHost,"ax",%progbits
 5178              		.align	1
 5179              		.global	USB_StopHost
 5180              		.syntax unified
 5181              		.thumb
 5182              		.thumb_func
 5184              	USB_StopHost:
 5185              	.LVL364:
 5186              	.LFB396:
2145:Drivers/STM32H7xx_HAL_Driver/Src/stm32h7xx_ll_usb.c **** 
ARM GAS  C:\Users\ADMINI~1\AppData\Local\Temp\cceMOlfx.s 			page 154


2146:Drivers/STM32H7xx_HAL_Driver/Src/stm32h7xx_ll_usb.c **** /**
2147:Drivers/STM32H7xx_HAL_Driver/Src/stm32h7xx_ll_usb.c ****   * @brief  Stop Host Core
2148:Drivers/STM32H7xx_HAL_Driver/Src/stm32h7xx_ll_usb.c ****   * @param  USBx  Selected device
2149:Drivers/STM32H7xx_HAL_Driver/Src/stm32h7xx_ll_usb.c ****   * @retval HAL state
2150:Drivers/STM32H7xx_HAL_Driver/Src/stm32h7xx_ll_usb.c ****   */
2151:Drivers/STM32H7xx_HAL_Driver/Src/stm32h7xx_ll_usb.c **** HAL_StatusTypeDef USB_StopHost(USB_OTG_GlobalTypeDef *USBx)
2152:Drivers/STM32H7xx_HAL_Driver/Src/stm32h7xx_ll_usb.c **** {
 5187              		.loc 1 2152 1 is_stmt 1 view -0
 5188              		.cfi_startproc
 5189              		@ args = 0, pretend = 0, frame = 8
 5190              		@ frame_needed = 0, uses_anonymous_args = 0
 5191              		.loc 1 2152 1 is_stmt 0 view .LVU1793
 5192 0000 30B5     		push	{r4, r5, lr}
 5193              	.LCFI54:
 5194              		.cfi_def_cfa_offset 12
 5195              		.cfi_offset 4, -12
 5196              		.cfi_offset 5, -8
 5197              		.cfi_offset 14, -4
 5198 0002 83B0     		sub	sp, sp, #12
 5199              	.LCFI55:
 5200              		.cfi_def_cfa_offset 24
 5201 0004 0446     		mov	r4, r0
2153:Drivers/STM32H7xx_HAL_Driver/Src/stm32h7xx_ll_usb.c ****   HAL_StatusTypeDef ret = HAL_OK;
 5202              		.loc 1 2153 3 is_stmt 1 view .LVU1794
 5203              	.LVL365:
2154:Drivers/STM32H7xx_HAL_Driver/Src/stm32h7xx_ll_usb.c ****   uint32_t USBx_BASE = (uint32_t)USBx;
 5204              		.loc 1 2154 3 view .LVU1795
2155:Drivers/STM32H7xx_HAL_Driver/Src/stm32h7xx_ll_usb.c ****   __IO uint32_t count = 0U;
 5205              		.loc 1 2155 3 view .LVU1796
 5206              		.loc 1 2155 17 is_stmt 0 view .LVU1797
 5207 0006 0023     		movs	r3, #0
 5208 0008 0193     		str	r3, [sp, #4]
2156:Drivers/STM32H7xx_HAL_Driver/Src/stm32h7xx_ll_usb.c ****   uint32_t value;
 5209              		.loc 1 2156 3 is_stmt 1 view .LVU1798
2157:Drivers/STM32H7xx_HAL_Driver/Src/stm32h7xx_ll_usb.c ****   uint32_t i;
 5210              		.loc 1 2157 3 view .LVU1799
2158:Drivers/STM32H7xx_HAL_Driver/Src/stm32h7xx_ll_usb.c **** 
2159:Drivers/STM32H7xx_HAL_Driver/Src/stm32h7xx_ll_usb.c ****   (void)USB_DisableGlobalInt(USBx);
 5211              		.loc 1 2159 3 view .LVU1800
 5212              		.loc 1 2159 9 is_stmt 0 view .LVU1801
 5213 000a FFF7FEFF 		bl	USB_DisableGlobalInt
 5214              	.LVL366:
2160:Drivers/STM32H7xx_HAL_Driver/Src/stm32h7xx_ll_usb.c **** 
2161:Drivers/STM32H7xx_HAL_Driver/Src/stm32h7xx_ll_usb.c ****   /* Flush USB FIFO */
2162:Drivers/STM32H7xx_HAL_Driver/Src/stm32h7xx_ll_usb.c ****   if (USB_FlushTxFifo(USBx, 0x10U) != HAL_OK) /* all Tx FIFOs */
 5215              		.loc 1 2162 3 is_stmt 1 view .LVU1802
 5216              		.loc 1 2162 7 is_stmt 0 view .LVU1803
 5217 000e 1021     		movs	r1, #16
 5218 0010 2046     		mov	r0, r4
 5219 0012 FFF7FEFF 		bl	USB_FlushTxFifo
 5220              	.LVL367:
 5221              		.loc 1 2162 6 discriminator 1 view .LVU1804
 5222 0016 0546     		mov	r5, r0
 5223 0018 08B1     		cbz	r0, .L330
2163:Drivers/STM32H7xx_HAL_Driver/Src/stm32h7xx_ll_usb.c ****   {
2164:Drivers/STM32H7xx_HAL_Driver/Src/stm32h7xx_ll_usb.c ****     ret = HAL_ERROR;
 5224              		.loc 1 2164 9 view .LVU1805
ARM GAS  C:\Users\ADMINI~1\AppData\Local\Temp\cceMOlfx.s 			page 155


 5225 001a 0123     		movs	r3, #1
 5226 001c 1D46     		mov	r5, r3
 5227              	.L330:
 5228              	.LVL368:
2165:Drivers/STM32H7xx_HAL_Driver/Src/stm32h7xx_ll_usb.c ****   }
2166:Drivers/STM32H7xx_HAL_Driver/Src/stm32h7xx_ll_usb.c **** 
2167:Drivers/STM32H7xx_HAL_Driver/Src/stm32h7xx_ll_usb.c ****   if (USB_FlushRxFifo(USBx) != HAL_OK)
 5229              		.loc 1 2167 3 is_stmt 1 view .LVU1806
 5230              		.loc 1 2167 7 is_stmt 0 view .LVU1807
 5231 001e 2046     		mov	r0, r4
 5232 0020 FFF7FEFF 		bl	USB_FlushRxFifo
 5233              	.LVL369:
 5234              		.loc 1 2167 6 discriminator 1 view .LVU1808
 5235 0024 08B1     		cbz	r0, .L331
2168:Drivers/STM32H7xx_HAL_Driver/Src/stm32h7xx_ll_usb.c ****   {
2169:Drivers/STM32H7xx_HAL_Driver/Src/stm32h7xx_ll_usb.c ****     ret = HAL_ERROR;
 5236              		.loc 1 2169 9 view .LVU1809
 5237 0026 0123     		movs	r3, #1
 5238 0028 1D46     		mov	r5, r3
 5239              	.LVL370:
 5240              	.L331:
2170:Drivers/STM32H7xx_HAL_Driver/Src/stm32h7xx_ll_usb.c ****   }
2171:Drivers/STM32H7xx_HAL_Driver/Src/stm32h7xx_ll_usb.c **** 
2172:Drivers/STM32H7xx_HAL_Driver/Src/stm32h7xx_ll_usb.c ****   /* Flush out any leftover queued requests. */
2173:Drivers/STM32H7xx_HAL_Driver/Src/stm32h7xx_ll_usb.c ****   for (i = 0U; i <= 15U; i++)
 5241              		.loc 1 2173 3 is_stmt 1 view .LVU1810
 5242              		.loc 1 2173 10 is_stmt 0 view .LVU1811
 5243 002a 0022     		movs	r2, #0
 5244              		.loc 1 2173 3 view .LVU1812
 5245 002c 0AE0     		b	.L332
 5246              	.LVL371:
 5247              	.L333:
2174:Drivers/STM32H7xx_HAL_Driver/Src/stm32h7xx_ll_usb.c ****   {
2175:Drivers/STM32H7xx_HAL_Driver/Src/stm32h7xx_ll_usb.c ****     value = USBx_HC(i)->HCCHAR;
 5248              		.loc 1 2175 5 is_stmt 1 view .LVU1813
 5249              		.loc 1 2175 13 is_stmt 0 view .LVU1814
 5250 002e 04EB4211 		add	r1, r4, r2, lsl #5
 5251              		.loc 1 2175 11 view .LVU1815
 5252 0032 D1F80035 		ldr	r3, [r1, #1280]
2176:Drivers/STM32H7xx_HAL_Driver/Src/stm32h7xx_ll_usb.c ****     value |=  USB_OTG_HCCHAR_CHDIS;
 5253              		.loc 1 2176 5 is_stmt 1 view .LVU1816
2177:Drivers/STM32H7xx_HAL_Driver/Src/stm32h7xx_ll_usb.c ****     value &= ~USB_OTG_HCCHAR_CHENA;
 5254              		.loc 1 2177 5 view .LVU1817
 5255              	.LVL372:
2178:Drivers/STM32H7xx_HAL_Driver/Src/stm32h7xx_ll_usb.c ****     value &= ~USB_OTG_HCCHAR_EPDIR;
 5256              		.loc 1 2178 5 view .LVU1818
 5257 0036 23F08023 		bic	r3, r3, #-2147450880
 5258              	.LVL373:
 5259              		.loc 1 2178 11 is_stmt 0 view .LVU1819
 5260 003a 43F08043 		orr	r3, r3, #1073741824
 5261              	.LVL374:
2179:Drivers/STM32H7xx_HAL_Driver/Src/stm32h7xx_ll_usb.c ****     USBx_HC(i)->HCCHAR = value;
 5262              		.loc 1 2179 5 is_stmt 1 view .LVU1820
 5263              		.loc 1 2179 24 is_stmt 0 view .LVU1821
 5264 003e C1F80035 		str	r3, [r1, #1280]
2173:Drivers/STM32H7xx_HAL_Driver/Src/stm32h7xx_ll_usb.c ****   {
 5265              		.loc 1 2173 27 is_stmt 1 discriminator 3 view .LVU1822
ARM GAS  C:\Users\ADMINI~1\AppData\Local\Temp\cceMOlfx.s 			page 156


 5266 0042 0132     		adds	r2, r2, #1
 5267              	.LVL375:
 5268              	.L332:
2173:Drivers/STM32H7xx_HAL_Driver/Src/stm32h7xx_ll_usb.c ****   {
 5269              		.loc 1 2173 18 discriminator 1 view .LVU1823
 5270 0044 0F2A     		cmp	r2, #15
 5271 0046 F2D9     		bls	.L333
2180:Drivers/STM32H7xx_HAL_Driver/Src/stm32h7xx_ll_usb.c ****   }
2181:Drivers/STM32H7xx_HAL_Driver/Src/stm32h7xx_ll_usb.c **** 
2182:Drivers/STM32H7xx_HAL_Driver/Src/stm32h7xx_ll_usb.c ****   /* Halt all channels to put them into a known state. */
2183:Drivers/STM32H7xx_HAL_Driver/Src/stm32h7xx_ll_usb.c ****   for (i = 0U; i <= 15U; i++)
 5272              		.loc 1 2183 10 is_stmt 0 view .LVU1824
 5273 0048 0021     		movs	r1, #0
 5274 004a 00E0     		b	.L334
 5275              	.LVL376:
 5276              	.L335:
 5277              		.loc 1 2183 27 is_stmt 1 discriminator 2 view .LVU1825
 5278 004c 0131     		adds	r1, r1, #1
 5279              	.LVL377:
 5280              	.L334:
 5281              		.loc 1 2183 18 discriminator 1 view .LVU1826
 5282 004e 0F29     		cmp	r1, #15
 5283 0050 16D8     		bhi	.L341
2184:Drivers/STM32H7xx_HAL_Driver/Src/stm32h7xx_ll_usb.c ****   {
2185:Drivers/STM32H7xx_HAL_Driver/Src/stm32h7xx_ll_usb.c ****     value = USBx_HC(i)->HCCHAR;
 5284              		.loc 1 2185 5 view .LVU1827
 5285              		.loc 1 2185 13 is_stmt 0 view .LVU1828
 5286 0052 04EB4110 		add	r0, r4, r1, lsl #5
 5287 0056 00F5A062 		add	r2, r0, #1280
 5288              		.loc 1 2185 11 view .LVU1829
 5289 005a D0F80035 		ldr	r3, [r0, #1280]
2186:Drivers/STM32H7xx_HAL_Driver/Src/stm32h7xx_ll_usb.c ****     value |= USB_OTG_HCCHAR_CHDIS;
 5290              		.loc 1 2186 5 is_stmt 1 view .LVU1830
2187:Drivers/STM32H7xx_HAL_Driver/Src/stm32h7xx_ll_usb.c ****     value |= USB_OTG_HCCHAR_CHENA;
 5291              		.loc 1 2187 5 view .LVU1831
 5292              	.LVL378:
2188:Drivers/STM32H7xx_HAL_Driver/Src/stm32h7xx_ll_usb.c ****     value &= ~USB_OTG_HCCHAR_EPDIR;
 5293              		.loc 1 2188 5 view .LVU1832
 5294 005e 23F40043 		bic	r3, r3, #32768
 5295              	.LVL379:
 5296              		.loc 1 2188 11 is_stmt 0 view .LVU1833
 5297 0062 43F04043 		orr	r3, r3, #-1073741824
 5298              	.LVL380:
2189:Drivers/STM32H7xx_HAL_Driver/Src/stm32h7xx_ll_usb.c ****     USBx_HC(i)->HCCHAR = value;
 5299              		.loc 1 2189 5 is_stmt 1 view .LVU1834
 5300              		.loc 1 2189 24 is_stmt 0 view .LVU1835
 5301 0066 C0F80035 		str	r3, [r0, #1280]
 5302              	.LVL381:
 5303              	.L336:
2190:Drivers/STM32H7xx_HAL_Driver/Src/stm32h7xx_ll_usb.c **** 
2191:Drivers/STM32H7xx_HAL_Driver/Src/stm32h7xx_ll_usb.c ****     do
 5304              		.loc 1 2191 5 is_stmt 1 view .LVU1836
2192:Drivers/STM32H7xx_HAL_Driver/Src/stm32h7xx_ll_usb.c ****     {
2193:Drivers/STM32H7xx_HAL_Driver/Src/stm32h7xx_ll_usb.c ****       count++;
 5305              		.loc 1 2193 7 view .LVU1837
 5306              		.loc 1 2193 12 is_stmt 0 view .LVU1838
 5307 006a 019B     		ldr	r3, [sp, #4]
ARM GAS  C:\Users\ADMINI~1\AppData\Local\Temp\cceMOlfx.s 			page 157


 5308 006c 0133     		adds	r3, r3, #1
 5309 006e 0193     		str	r3, [sp, #4]
2194:Drivers/STM32H7xx_HAL_Driver/Src/stm32h7xx_ll_usb.c **** 
2195:Drivers/STM32H7xx_HAL_Driver/Src/stm32h7xx_ll_usb.c ****       if (count > 1000U)
 5310              		.loc 1 2195 7 is_stmt 1 view .LVU1839
 5311              		.loc 1 2195 17 is_stmt 0 view .LVU1840
 5312 0070 019B     		ldr	r3, [sp, #4]
 5313              		.loc 1 2195 10 view .LVU1841
 5314 0072 B3F57A7F 		cmp	r3, #1000
 5315 0076 E9D8     		bhi	.L335
2196:Drivers/STM32H7xx_HAL_Driver/Src/stm32h7xx_ll_usb.c ****       {
2197:Drivers/STM32H7xx_HAL_Driver/Src/stm32h7xx_ll_usb.c ****         break;
2198:Drivers/STM32H7xx_HAL_Driver/Src/stm32h7xx_ll_usb.c ****       }
2199:Drivers/STM32H7xx_HAL_Driver/Src/stm32h7xx_ll_usb.c ****     } while ((USBx_HC(i)->HCCHAR & USB_OTG_HCCHAR_CHENA) == USB_OTG_HCCHAR_CHENA);
 5316              		.loc 1 2199 58 is_stmt 1 view .LVU1842
 5317              		.loc 1 2199 25 is_stmt 0 view .LVU1843
 5318 0078 1368     		ldr	r3, [r2]
 5319              		.loc 1 2199 58 view .LVU1844
 5320 007a 002B     		cmp	r3, #0
 5321 007c F5DB     		blt	.L336
 5322 007e E5E7     		b	.L335
 5323              	.LVL382:
 5324              	.L341:
2200:Drivers/STM32H7xx_HAL_Driver/Src/stm32h7xx_ll_usb.c ****   }
2201:Drivers/STM32H7xx_HAL_Driver/Src/stm32h7xx_ll_usb.c **** 
2202:Drivers/STM32H7xx_HAL_Driver/Src/stm32h7xx_ll_usb.c ****   /* Clear any pending Host interrupts */
2203:Drivers/STM32H7xx_HAL_Driver/Src/stm32h7xx_ll_usb.c ****   USBx_HOST->HAINT = CLEAR_INTERRUPT_MASK;
 5325              		.loc 1 2203 3 is_stmt 1 view .LVU1845
 5326              		.loc 1 2203 20 is_stmt 0 view .LVU1846
 5327 0080 4FF0FF33 		mov	r3, #-1
 5328 0084 C4F81434 		str	r3, [r4, #1044]
2204:Drivers/STM32H7xx_HAL_Driver/Src/stm32h7xx_ll_usb.c ****   USBx->GINTSTS = CLEAR_INTERRUPT_MASK;
 5329              		.loc 1 2204 3 is_stmt 1 view .LVU1847
 5330              		.loc 1 2204 17 is_stmt 0 view .LVU1848
 5331 0088 6361     		str	r3, [r4, #20]
2205:Drivers/STM32H7xx_HAL_Driver/Src/stm32h7xx_ll_usb.c **** 
2206:Drivers/STM32H7xx_HAL_Driver/Src/stm32h7xx_ll_usb.c ****   (void)USB_EnableGlobalInt(USBx);
 5332              		.loc 1 2206 3 is_stmt 1 view .LVU1849
 5333              		.loc 1 2206 9 is_stmt 0 view .LVU1850
 5334 008a 2046     		mov	r0, r4
 5335 008c FFF7FEFF 		bl	USB_EnableGlobalInt
 5336              	.LVL383:
2207:Drivers/STM32H7xx_HAL_Driver/Src/stm32h7xx_ll_usb.c **** 
2208:Drivers/STM32H7xx_HAL_Driver/Src/stm32h7xx_ll_usb.c ****   return ret;
 5337              		.loc 1 2208 3 is_stmt 1 view .LVU1851
2209:Drivers/STM32H7xx_HAL_Driver/Src/stm32h7xx_ll_usb.c **** }
 5338              		.loc 1 2209 1 is_stmt 0 view .LVU1852
 5339 0090 2846     		mov	r0, r5
 5340 0092 03B0     		add	sp, sp, #12
 5341              	.LCFI56:
 5342              		.cfi_def_cfa_offset 12
 5343              		@ sp needed
 5344 0094 30BD     		pop	{r4, r5, pc}
 5345              		.loc 1 2209 1 view .LVU1853
 5346              		.cfi_endproc
 5347              	.LFE396:
 5349              		.section	.text.USB_ActivateRemoteWakeup,"ax",%progbits
ARM GAS  C:\Users\ADMINI~1\AppData\Local\Temp\cceMOlfx.s 			page 158


 5350              		.align	1
 5351              		.global	USB_ActivateRemoteWakeup
 5352              		.syntax unified
 5353              		.thumb
 5354              		.thumb_func
 5356              	USB_ActivateRemoteWakeup:
 5357              	.LVL384:
 5358              	.LFB397:
2210:Drivers/STM32H7xx_HAL_Driver/Src/stm32h7xx_ll_usb.c **** 
2211:Drivers/STM32H7xx_HAL_Driver/Src/stm32h7xx_ll_usb.c **** /**
2212:Drivers/STM32H7xx_HAL_Driver/Src/stm32h7xx_ll_usb.c ****   * @brief  USB_ActivateRemoteWakeup active remote wakeup signalling
2213:Drivers/STM32H7xx_HAL_Driver/Src/stm32h7xx_ll_usb.c ****   * @param  USBx Selected device
2214:Drivers/STM32H7xx_HAL_Driver/Src/stm32h7xx_ll_usb.c ****   * @retval HAL status
2215:Drivers/STM32H7xx_HAL_Driver/Src/stm32h7xx_ll_usb.c ****   */
2216:Drivers/STM32H7xx_HAL_Driver/Src/stm32h7xx_ll_usb.c **** HAL_StatusTypeDef USB_ActivateRemoteWakeup(const USB_OTG_GlobalTypeDef *USBx)
2217:Drivers/STM32H7xx_HAL_Driver/Src/stm32h7xx_ll_usb.c **** {
 5359              		.loc 1 2217 1 is_stmt 1 view -0
 5360              		.cfi_startproc
 5361              		@ args = 0, pretend = 0, frame = 0
 5362              		@ frame_needed = 0, uses_anonymous_args = 0
 5363              		@ link register save eliminated.
2218:Drivers/STM32H7xx_HAL_Driver/Src/stm32h7xx_ll_usb.c ****   uint32_t USBx_BASE = (uint32_t)USBx;
 5364              		.loc 1 2218 3 view .LVU1855
2219:Drivers/STM32H7xx_HAL_Driver/Src/stm32h7xx_ll_usb.c **** 
2220:Drivers/STM32H7xx_HAL_Driver/Src/stm32h7xx_ll_usb.c ****   if ((USBx_DEVICE->DSTS & USB_OTG_DSTS_SUSPSTS) == USB_OTG_DSTS_SUSPSTS)
 5365              		.loc 1 2220 3 view .LVU1856
 5366              		.loc 1 2220 19 is_stmt 0 view .LVU1857
 5367 0000 D0F80838 		ldr	r3, [r0, #2056]
 5368              		.loc 1 2220 8 view .LVU1858
 5369 0004 00F50060 		add	r0, r0, #2048
 5370              	.LVL385:
 5371              		.loc 1 2220 6 view .LVU1859
 5372 0008 13F0010F 		tst	r3, #1
 5373 000c 03D0     		beq	.L343
2221:Drivers/STM32H7xx_HAL_Driver/Src/stm32h7xx_ll_usb.c ****   {
2222:Drivers/STM32H7xx_HAL_Driver/Src/stm32h7xx_ll_usb.c ****     /* active Remote wakeup signalling */
2223:Drivers/STM32H7xx_HAL_Driver/Src/stm32h7xx_ll_usb.c ****     USBx_DEVICE->DCTL |= USB_OTG_DCTL_RWUSIG;
 5374              		.loc 1 2223 5 is_stmt 1 view .LVU1860
 5375              		.loc 1 2223 16 is_stmt 0 view .LVU1861
 5376 000e 4368     		ldr	r3, [r0, #4]
 5377              		.loc 1 2223 23 view .LVU1862
 5378 0010 43F00103 		orr	r3, r3, #1
 5379 0014 4360     		str	r3, [r0, #4]
 5380              	.L343:
2224:Drivers/STM32H7xx_HAL_Driver/Src/stm32h7xx_ll_usb.c ****   }
2225:Drivers/STM32H7xx_HAL_Driver/Src/stm32h7xx_ll_usb.c **** 
2226:Drivers/STM32H7xx_HAL_Driver/Src/stm32h7xx_ll_usb.c ****   return HAL_OK;
 5381              		.loc 1 2226 3 is_stmt 1 view .LVU1863
2227:Drivers/STM32H7xx_HAL_Driver/Src/stm32h7xx_ll_usb.c **** }
 5382              		.loc 1 2227 1 is_stmt 0 view .LVU1864
 5383 0016 0020     		movs	r0, #0
 5384              	.LVL386:
 5385              		.loc 1 2227 1 view .LVU1865
 5386 0018 7047     		bx	lr
 5387              		.cfi_endproc
 5388              	.LFE397:
 5390              		.section	.text.USB_DeActivateRemoteWakeup,"ax",%progbits
ARM GAS  C:\Users\ADMINI~1\AppData\Local\Temp\cceMOlfx.s 			page 159


 5391              		.align	1
 5392              		.global	USB_DeActivateRemoteWakeup
 5393              		.syntax unified
 5394              		.thumb
 5395              		.thumb_func
 5397              	USB_DeActivateRemoteWakeup:
 5398              	.LVL387:
 5399              	.LFB398:
2228:Drivers/STM32H7xx_HAL_Driver/Src/stm32h7xx_ll_usb.c **** 
2229:Drivers/STM32H7xx_HAL_Driver/Src/stm32h7xx_ll_usb.c **** /**
2230:Drivers/STM32H7xx_HAL_Driver/Src/stm32h7xx_ll_usb.c ****   * @brief  USB_DeActivateRemoteWakeup de-active remote wakeup signalling
2231:Drivers/STM32H7xx_HAL_Driver/Src/stm32h7xx_ll_usb.c ****   * @param  USBx Selected device
2232:Drivers/STM32H7xx_HAL_Driver/Src/stm32h7xx_ll_usb.c ****   * @retval HAL status
2233:Drivers/STM32H7xx_HAL_Driver/Src/stm32h7xx_ll_usb.c ****   */
2234:Drivers/STM32H7xx_HAL_Driver/Src/stm32h7xx_ll_usb.c **** HAL_StatusTypeDef USB_DeActivateRemoteWakeup(const USB_OTG_GlobalTypeDef *USBx)
2235:Drivers/STM32H7xx_HAL_Driver/Src/stm32h7xx_ll_usb.c **** {
 5400              		.loc 1 2235 1 is_stmt 1 view -0
 5401              		.cfi_startproc
 5402              		@ args = 0, pretend = 0, frame = 0
 5403              		@ frame_needed = 0, uses_anonymous_args = 0
 5404              		@ link register save eliminated.
2236:Drivers/STM32H7xx_HAL_Driver/Src/stm32h7xx_ll_usb.c ****   uint32_t USBx_BASE = (uint32_t)USBx;
 5405              		.loc 1 2236 3 view .LVU1867
2237:Drivers/STM32H7xx_HAL_Driver/Src/stm32h7xx_ll_usb.c **** 
2238:Drivers/STM32H7xx_HAL_Driver/Src/stm32h7xx_ll_usb.c ****   /* active Remote wakeup signalling */
2239:Drivers/STM32H7xx_HAL_Driver/Src/stm32h7xx_ll_usb.c ****   USBx_DEVICE->DCTL &= ~(USB_OTG_DCTL_RWUSIG);
 5406              		.loc 1 2239 3 view .LVU1868
 5407              		.loc 1 2239 14 is_stmt 0 view .LVU1869
 5408 0000 D0F80438 		ldr	r3, [r0, #2052]
 5409              		.loc 1 2239 21 view .LVU1870
 5410 0004 23F00103 		bic	r3, r3, #1
 5411 0008 C0F80438 		str	r3, [r0, #2052]
2240:Drivers/STM32H7xx_HAL_Driver/Src/stm32h7xx_ll_usb.c **** 
2241:Drivers/STM32H7xx_HAL_Driver/Src/stm32h7xx_ll_usb.c ****   return HAL_OK;
 5412              		.loc 1 2241 3 is_stmt 1 view .LVU1871
2242:Drivers/STM32H7xx_HAL_Driver/Src/stm32h7xx_ll_usb.c **** }
 5413              		.loc 1 2242 1 is_stmt 0 view .LVU1872
 5414 000c 0020     		movs	r0, #0
 5415              	.LVL388:
 5416              		.loc 1 2242 1 view .LVU1873
 5417 000e 7047     		bx	lr
 5418              		.cfi_endproc
 5419              	.LFE398:
 5421              		.text
 5422              	.Letext0:
 5423              		.file 2 "D:/14.3 rel1/arm-none-eabi/include/machine/_default_types.h"
 5424              		.file 3 "D:/14.3 rel1/arm-none-eabi/include/sys/_stdint.h"
 5425              		.file 4 "Drivers/CMSIS/Include/cmsis_gcc.h"
 5426              		.file 5 "Drivers/CMSIS/Device/ST/STM32H7xx/Include/stm32h723xx.h"
 5427              		.file 6 "Drivers/STM32H7xx_HAL_Driver/Inc/stm32h7xx_hal_def.h"
 5428              		.file 7 "Drivers/STM32H7xx_HAL_Driver/Inc/stm32h7xx_ll_usb.h"
 5429              		.file 8 "Drivers/STM32H7xx_HAL_Driver/Inc/stm32h7xx_hal.h"
ARM GAS  C:\Users\ADMINI~1\AppData\Local\Temp\cceMOlfx.s 			page 160


DEFINED SYMBOLS
                            *ABS*:00000000 stm32h7xx_ll_usb.c
C:\Users\ADMINI~1\AppData\Local\Temp\cceMOlfx.s:20     .text.USB_CoreReset:00000000 $t
C:\Users\ADMINI~1\AppData\Local\Temp\cceMOlfx.s:25     .text.USB_CoreReset:00000000 USB_CoreReset
C:\Users\ADMINI~1\AppData\Local\Temp\cceMOlfx.s:120    .text.USB_CoreInit:00000000 $t
C:\Users\ADMINI~1\AppData\Local\Temp\cceMOlfx.s:126    .text.USB_CoreInit:00000000 USB_CoreInit
C:\Users\ADMINI~1\AppData\Local\Temp\cceMOlfx.s:280    .text.USB_CoreInit:0000009c $d
C:\Users\ADMINI~1\AppData\Local\Temp\cceMOlfx.s:286    .text.USB_SetTurnaroundTime:00000000 $t
C:\Users\ADMINI~1\AppData\Local\Temp\cceMOlfx.s:292    .text.USB_SetTurnaroundTime:00000000 USB_SetTurnaroundTime
C:\Users\ADMINI~1\AppData\Local\Temp\cceMOlfx.s:445    .text.USB_SetTurnaroundTime:0000009c $d
C:\Users\ADMINI~1\AppData\Local\Temp\cceMOlfx.s:467    .text.USB_EnableGlobalInt:00000000 $t
C:\Users\ADMINI~1\AppData\Local\Temp\cceMOlfx.s:473    .text.USB_EnableGlobalInt:00000000 USB_EnableGlobalInt
C:\Users\ADMINI~1\AppData\Local\Temp\cceMOlfx.s:497    .text.USB_DisableGlobalInt:00000000 $t
C:\Users\ADMINI~1\AppData\Local\Temp\cceMOlfx.s:503    .text.USB_DisableGlobalInt:00000000 USB_DisableGlobalInt
C:\Users\ADMINI~1\AppData\Local\Temp\cceMOlfx.s:527    .text.USB_FlushTxFifo:00000000 $t
C:\Users\ADMINI~1\AppData\Local\Temp\cceMOlfx.s:533    .text.USB_FlushTxFifo:00000000 USB_FlushTxFifo
C:\Users\ADMINI~1\AppData\Local\Temp\cceMOlfx.s:630    .text.USB_FlushRxFifo:00000000 $t
C:\Users\ADMINI~1\AppData\Local\Temp\cceMOlfx.s:636    .text.USB_FlushRxFifo:00000000 USB_FlushRxFifo
C:\Users\ADMINI~1\AppData\Local\Temp\cceMOlfx.s:729    .text.USB_SetDevSpeed:00000000 $t
C:\Users\ADMINI~1\AppData\Local\Temp\cceMOlfx.s:735    .text.USB_SetDevSpeed:00000000 USB_SetDevSpeed
C:\Users\ADMINI~1\AppData\Local\Temp\cceMOlfx.s:762    .text.USB_DevInit:00000000 $t
C:\Users\ADMINI~1\AppData\Local\Temp\cceMOlfx.s:768    .text.USB_DevInit:00000000 USB_DevInit
C:\Users\ADMINI~1\AppData\Local\Temp\cceMOlfx.s:1119   .text.USB_DevInit:00000190 $d
C:\Users\ADMINI~1\AppData\Local\Temp\cceMOlfx.s:1125   .text.USB_GetDevSpeed:00000000 $t
C:\Users\ADMINI~1\AppData\Local\Temp\cceMOlfx.s:1131   .text.USB_GetDevSpeed:00000000 USB_GetDevSpeed
C:\Users\ADMINI~1\AppData\Local\Temp\cceMOlfx.s:1181   .text.USB_ActivateEndpoint:00000000 $t
C:\Users\ADMINI~1\AppData\Local\Temp\cceMOlfx.s:1187   .text.USB_ActivateEndpoint:00000000 USB_ActivateEndpoint
C:\Users\ADMINI~1\AppData\Local\Temp\cceMOlfx.s:1304   .text.USB_ActivateEndpoint:0000009c $d
C:\Users\ADMINI~1\AppData\Local\Temp\cceMOlfx.s:1309   .text.USB_ActivateDedicatedEndpoint:00000000 $t
C:\Users\ADMINI~1\AppData\Local\Temp\cceMOlfx.s:1315   .text.USB_ActivateDedicatedEndpoint:00000000 USB_ActivateDedicatedEndpoint
C:\Users\ADMINI~1\AppData\Local\Temp\cceMOlfx.s:1441   .text.USB_ActivateDedicatedEndpoint:0000009c $d
C:\Users\ADMINI~1\AppData\Local\Temp\cceMOlfx.s:1446   .text.USB_DeactivateEndpoint:00000000 $t
C:\Users\ADMINI~1\AppData\Local\Temp\cceMOlfx.s:1452   .text.USB_DeactivateEndpoint:00000000 USB_DeactivateEndpoint
C:\Users\ADMINI~1\AppData\Local\Temp\cceMOlfx.s:1613   .text.USB_DeactivateEndpoint:000000dc $d
C:\Users\ADMINI~1\AppData\Local\Temp\cceMOlfx.s:1619   .text.USB_DeactivateDedicatedEndpoint:00000000 $t
C:\Users\ADMINI~1\AppData\Local\Temp\cceMOlfx.s:1625   .text.USB_DeactivateDedicatedEndpoint:00000000 USB_DeactivateDedicatedEndpoint
C:\Users\ADMINI~1\AppData\Local\Temp\cceMOlfx.s:1754   .text.USB_EPStopXfer:00000000 $t
C:\Users\ADMINI~1\AppData\Local\Temp\cceMOlfx.s:1760   .text.USB_EPStopXfer:00000000 USB_EPStopXfer
C:\Users\ADMINI~1\AppData\Local\Temp\cceMOlfx.s:1914   .text.USB_WritePacket:00000000 $t
C:\Users\ADMINI~1\AppData\Local\Temp\cceMOlfx.s:1920   .text.USB_WritePacket:00000000 USB_WritePacket
C:\Users\ADMINI~1\AppData\Local\Temp\cceMOlfx.s:1988   .text.USB_EPStartXfer:00000000 $t
C:\Users\ADMINI~1\AppData\Local\Temp\cceMOlfx.s:1994   .text.USB_EPStartXfer:00000000 USB_EPStartXfer
C:\Users\ADMINI~1\AppData\Local\Temp\cceMOlfx.s:2462   .text.USB_EPStartXfer:00000278 $d
C:\Users\ADMINI~1\AppData\Local\Temp\cceMOlfx.s:2467   .text.USB_ReadPacket:00000000 $t
C:\Users\ADMINI~1\AppData\Local\Temp\cceMOlfx.s:2473   .text.USB_ReadPacket:00000000 USB_ReadPacket
C:\Users\ADMINI~1\AppData\Local\Temp\cceMOlfx.s:2572   .text.USB_EPSetStall:00000000 $t
C:\Users\ADMINI~1\AppData\Local\Temp\cceMOlfx.s:2578   .text.USB_EPSetStall:00000000 USB_EPSetStall
C:\Users\ADMINI~1\AppData\Local\Temp\cceMOlfx.s:2661   .text.USB_EPClearStall:00000000 $t
C:\Users\ADMINI~1\AppData\Local\Temp\cceMOlfx.s:2667   .text.USB_EPClearStall:00000000 USB_EPClearStall
C:\Users\ADMINI~1\AppData\Local\Temp\cceMOlfx.s:2752   .text.USB_StopDevice:00000000 $t
C:\Users\ADMINI~1\AppData\Local\Temp\cceMOlfx.s:2758   .text.USB_StopDevice:00000000 USB_StopDevice
C:\Users\ADMINI~1\AppData\Local\Temp\cceMOlfx.s:2840   .text.USB_SetDevAddress:00000000 $t
C:\Users\ADMINI~1\AppData\Local\Temp\cceMOlfx.s:2846   .text.USB_SetDevAddress:00000000 USB_SetDevAddress
C:\Users\ADMINI~1\AppData\Local\Temp\cceMOlfx.s:2882   .text.USB_DevConnect:00000000 $t
C:\Users\ADMINI~1\AppData\Local\Temp\cceMOlfx.s:2888   .text.USB_DevConnect:00000000 USB_DevConnect
C:\Users\ADMINI~1\AppData\Local\Temp\cceMOlfx.s:2918   .text.USB_DevDisconnect:00000000 $t
C:\Users\ADMINI~1\AppData\Local\Temp\cceMOlfx.s:2924   .text.USB_DevDisconnect:00000000 USB_DevDisconnect
ARM GAS  C:\Users\ADMINI~1\AppData\Local\Temp\cceMOlfx.s 			page 161


C:\Users\ADMINI~1\AppData\Local\Temp\cceMOlfx.s:2954   .text.USB_ReadInterrupts:00000000 $t
C:\Users\ADMINI~1\AppData\Local\Temp\cceMOlfx.s:2960   .text.USB_ReadInterrupts:00000000 USB_ReadInterrupts
C:\Users\ADMINI~1\AppData\Local\Temp\cceMOlfx.s:2987   .text.USB_ReadChInterrupts:00000000 $t
C:\Users\ADMINI~1\AppData\Local\Temp\cceMOlfx.s:2993   .text.USB_ReadChInterrupts:00000000 USB_ReadChInterrupts
C:\Users\ADMINI~1\AppData\Local\Temp\cceMOlfx.s:3026   .text.USB_ReadDevAllOutEpInterrupt:00000000 $t
C:\Users\ADMINI~1\AppData\Local\Temp\cceMOlfx.s:3032   .text.USB_ReadDevAllOutEpInterrupt:00000000 USB_ReadDevAllOutEpInterrupt
C:\Users\ADMINI~1\AppData\Local\Temp\cceMOlfx.s:3065   .text.USB_ReadDevAllInEpInterrupt:00000000 $t
C:\Users\ADMINI~1\AppData\Local\Temp\cceMOlfx.s:3071   .text.USB_ReadDevAllInEpInterrupt:00000000 USB_ReadDevAllInEpInterrupt
C:\Users\ADMINI~1\AppData\Local\Temp\cceMOlfx.s:3104   .text.USB_ReadDevOutEPInterrupt:00000000 $t
C:\Users\ADMINI~1\AppData\Local\Temp\cceMOlfx.s:3110   .text.USB_ReadDevOutEPInterrupt:00000000 USB_ReadDevOutEPInterrupt
C:\Users\ADMINI~1\AppData\Local\Temp\cceMOlfx.s:3144   .text.USB_ReadDevInEPInterrupt:00000000 $t
C:\Users\ADMINI~1\AppData\Local\Temp\cceMOlfx.s:3150   .text.USB_ReadDevInEPInterrupt:00000000 USB_ReadDevInEPInterrupt
C:\Users\ADMINI~1\AppData\Local\Temp\cceMOlfx.s:3201   .text.USB_ClearInterrupts:00000000 $t
C:\Users\ADMINI~1\AppData\Local\Temp\cceMOlfx.s:3207   .text.USB_ClearInterrupts:00000000 USB_ClearInterrupts
C:\Users\ADMINI~1\AppData\Local\Temp\cceMOlfx.s:3227   .text.USB_GetMode:00000000 $t
C:\Users\ADMINI~1\AppData\Local\Temp\cceMOlfx.s:3233   .text.USB_GetMode:00000000 USB_GetMode
C:\Users\ADMINI~1\AppData\Local\Temp\cceMOlfx.s:3252   .text.USB_SetCurrentMode:00000000 $t
C:\Users\ADMINI~1\AppData\Local\Temp\cceMOlfx.s:3258   .text.USB_SetCurrentMode:00000000 USB_SetCurrentMode
C:\Users\ADMINI~1\AppData\Local\Temp\cceMOlfx.s:3378   .text.USB_ActivateSetup:00000000 $t
C:\Users\ADMINI~1\AppData\Local\Temp\cceMOlfx.s:3384   .text.USB_ActivateSetup:00000000 USB_ActivateSetup
C:\Users\ADMINI~1\AppData\Local\Temp\cceMOlfx.s:3415   .text.USB_EP0_OutStart:00000000 $t
C:\Users\ADMINI~1\AppData\Local\Temp\cceMOlfx.s:3421   .text.USB_EP0_OutStart:00000000 USB_EP0_OutStart
C:\Users\ADMINI~1\AppData\Local\Temp\cceMOlfx.s:3498   .text.USB_EP0_OutStart:00000058 $d
C:\Users\ADMINI~1\AppData\Local\Temp\cceMOlfx.s:3503   .text.USB_HostInit:00000000 $t
C:\Users\ADMINI~1\AppData\Local\Temp\cceMOlfx.s:3509   .text.USB_HostInit:00000000 USB_HostInit
C:\Users\ADMINI~1\AppData\Local\Temp\cceMOlfx.s:3698   .text.USB_HostInit:000000d4 $d
C:\Users\ADMINI~1\AppData\Local\Temp\cceMOlfx.s:3704   .text.USB_InitFSLSPClkSel:00000000 $t
C:\Users\ADMINI~1\AppData\Local\Temp\cceMOlfx.s:3710   .text.USB_InitFSLSPClkSel:00000000 USB_InitFSLSPClkSel
C:\Users\ADMINI~1\AppData\Local\Temp\cceMOlfx.s:3773   .text.USB_ResetPort:00000000 $t
C:\Users\ADMINI~1\AppData\Local\Temp\cceMOlfx.s:3779   .text.USB_ResetPort:00000000 USB_ResetPort
C:\Users\ADMINI~1\AppData\Local\Temp\cceMOlfx.s:3848   .text.USB_DriveVbus:00000000 $t
C:\Users\ADMINI~1\AppData\Local\Temp\cceMOlfx.s:3854   .text.USB_DriveVbus:00000000 USB_DriveVbus
C:\Users\ADMINI~1\AppData\Local\Temp\cceMOlfx.s:3933   .text.USB_GetHostSpeed:00000000 $t
C:\Users\ADMINI~1\AppData\Local\Temp\cceMOlfx.s:3939   .text.USB_GetHostSpeed:00000000 USB_GetHostSpeed
C:\Users\ADMINI~1\AppData\Local\Temp\cceMOlfx.s:3977   .text.USB_GetCurrentFrame:00000000 $t
C:\Users\ADMINI~1\AppData\Local\Temp\cceMOlfx.s:3983   .text.USB_GetCurrentFrame:00000000 USB_GetCurrentFrame
C:\Users\ADMINI~1\AppData\Local\Temp\cceMOlfx.s:4006   .text.USB_HC_Init:00000000 $t
C:\Users\ADMINI~1\AppData\Local\Temp\cceMOlfx.s:4012   .text.USB_HC_Init:00000000 USB_HC_Init
C:\Users\ADMINI~1\AppData\Local\Temp\cceMOlfx.s:4270   .text.USB_HC_ReadInterrupt:00000000 $t
C:\Users\ADMINI~1\AppData\Local\Temp\cceMOlfx.s:4276   .text.USB_HC_ReadInterrupt:00000000 USB_HC_ReadInterrupt
C:\Users\ADMINI~1\AppData\Local\Temp\cceMOlfx.s:4299   .text.USB_HC_Halt:00000000 $t
C:\Users\ADMINI~1\AppData\Local\Temp\cceMOlfx.s:4305   .text.USB_HC_Halt:00000000 USB_HC_Halt
C:\Users\ADMINI~1\AppData\Local\Temp\cceMOlfx.s:4513   .text.USB_DoPing:00000000 $t
C:\Users\ADMINI~1\AppData\Local\Temp\cceMOlfx.s:4519   .text.USB_DoPing:00000000 USB_DoPing
C:\Users\ADMINI~1\AppData\Local\Temp\cceMOlfx.s:4559   .text.USB_DoPing:00000020 $d
C:\Users\ADMINI~1\AppData\Local\Temp\cceMOlfx.s:4564   .text.USB_HC_StartXfer:00000000 $t
C:\Users\ADMINI~1\AppData\Local\Temp\cceMOlfx.s:4570   .text.USB_HC_StartXfer:00000000 USB_HC_StartXfer
C:\Users\ADMINI~1\AppData\Local\Temp\cceMOlfx.s:5173   .text.USB_HC_StartXfer:00000280 $d
C:\Users\ADMINI~1\AppData\Local\Temp\cceMOlfx.s:5178   .text.USB_StopHost:00000000 $t
C:\Users\ADMINI~1\AppData\Local\Temp\cceMOlfx.s:5184   .text.USB_StopHost:00000000 USB_StopHost
C:\Users\ADMINI~1\AppData\Local\Temp\cceMOlfx.s:5350   .text.USB_ActivateRemoteWakeup:00000000 $t
C:\Users\ADMINI~1\AppData\Local\Temp\cceMOlfx.s:5356   .text.USB_ActivateRemoteWakeup:00000000 USB_ActivateRemoteWakeup
C:\Users\ADMINI~1\AppData\Local\Temp\cceMOlfx.s:5391   .text.USB_DeActivateRemoteWakeup:00000000 $t
C:\Users\ADMINI~1\AppData\Local\Temp\cceMOlfx.s:5397   .text.USB_DeActivateRemoteWakeup:00000000 USB_DeActivateRemoteWakeup

UNDEFINED SYMBOLS
HAL_Delay
ARM GAS  C:\Users\ADMINI~1\AppData\Local\Temp\cceMOlfx.s 			page 162


